Archive member included to satisfy reference by file (symbol)

c:/program files/microchip/xc32/v4.00/bin/bin/../../lib/gcc/pic32c/8.3.1/thumb/v7-a+simd/hard\libgcc.a(_udivsi3.o)
                              build/sam_a5d27_som1_winc1500/production/_ext/1834821283/plib_flexcom4_spi_master.o (__aeabi_uidiv)
c:/program files/microchip/xc32/v4.00/bin/bin/../../lib/gcc/pic32c/8.3.1/thumb/v7-a+simd/hard\libgcc.a(_divsi3.o)
                              build/sam_a5d27_som1_winc1500/production/_ext/668867648/sys_time.o (__aeabi_idiv)
c:/program files/microchip/xc32/v4.00/bin/bin/../../lib/gcc/pic32c/8.3.1/thumb/v7-a+simd/hard\libgcc.a(_dvmd_tls.o)
                              c:/program files/microchip/xc32/v4.00/bin/bin/../../lib/gcc/pic32c/8.3.1/thumb/v7-a+simd/hard\libgcc.a(_udivsi3.o) (__aeabi_idiv0)
c:/program files/microchip/xc32/v4.00/bin/bin/../../lib/gcc/pic32c/8.3.1/thumb/v7-a+simd/hard\libgcc.a(_aeabi_uldivmod.o)
                              build/sam_a5d27_som1_winc1500/production/_ext/668867648/sys_time.o (__aeabi_uldivmod)
c:/program files/microchip/xc32/v4.00/bin/bin/../../lib/gcc/pic32c/8.3.1/thumb/v7-a+simd/hard\libgcc.a(_udivmoddi4.o)
                              c:/program files/microchip/xc32/v4.00/bin/bin/../../lib/gcc/pic32c/8.3.1/thumb/v7-a+simd/hard\libgcc.a(_aeabi_uldivmod.o) (__udivmoddi4)
c:/program files/microchip/xc32/v4.00/bin/bin/../../lib/gcc/pic32c/8.3.1/../../../../pic32c/lib/thumb/v7-a+simd/hard\libc-musl.a(__libc_start_main.o)
                              build/sam_a5d27_som1_winc1500/production/_ext/1420715725/cstartup.o (__libc_init_array)
c:/program files/microchip/xc32/v4.00/bin/bin/../../lib/gcc/pic32c/8.3.1/../../../../pic32c/lib/thumb/v7-a+simd/hard\libc-musl.a(libc.o)
                              c:/program files/microchip/xc32/v4.00/bin/bin/../../lib/gcc/pic32c/8.3.1/../../../../pic32c/lib/thumb/v7-a+simd/hard\libc-musl.a(__libc_start_main.o) (__progname_full)
c:/program files/microchip/xc32/v4.00/bin/bin/../../lib/gcc/pic32c/8.3.1/../../../../pic32c/lib/thumb/v7-a+simd/hard\libc-musl.a(malloc.o)
                              build/sam_a5d27_som1_winc1500/production/_ext/492885778/m2m_wifi.o (free)
c:/program files/microchip/xc32/v4.00/bin/bin/../../lib/gcc/pic32c/8.3.1/../../../../pic32c/lib/thumb/v7-a+simd/hard\libc-musl.a(expand_heap.o)
                              c:/program files/microchip/xc32/v4.00/bin/bin/../../lib/gcc/pic32c/8.3.1/../../../../pic32c/lib/thumb/v7-a+simd/hard\libc-musl.a(malloc.o) (__expand_heap)
c:/program files/microchip/xc32/v4.00/bin/bin/../../lib/gcc/pic32c/8.3.1/../../../../pic32c/lib/thumb/v7-a+simd/hard\libc-musl.a(vsnprintf.o)
                              build/sam_a5d27_som1_winc1500/production/_ext/1238961202/sys_console.o (vsnprintf)
c:/program files/microchip/xc32/v4.00/bin/bin/../../lib/gcc/pic32c/8.3.1/../../../../pic32c/lib/thumb/v7-a+simd/hard\libc-musl.a(sprintf.o)
                              (sprintf)
c:/program files/microchip/xc32/v4.00/bin/bin/../../lib/gcc/pic32c/8.3.1/../../../../pic32c/lib/thumb/v7-a+simd/hard\libc-musl.a(vsprintf.o)
                              c:/program files/microchip/xc32/v4.00/bin/bin/../../lib/gcc/pic32c/8.3.1/../../../../pic32c/lib/thumb/v7-a+simd/hard\libc-musl.a(sprintf.o) (vsprintf)
c:/program files/microchip/xc32/v4.00/bin/bin/../../lib/gcc/pic32c/8.3.1/../../../../pic32c/lib/thumb/v7-a+simd/hard\libc-musl.a(atoi.o)
                              build/sam_a5d27_som1_winc1500/production/_ext/1360937237/example.o (atoi)
c:/program files/microchip/xc32/v4.00/bin/bin/../../lib/gcc/pic32c/8.3.1/../../../../pic32c/lib/thumb/v7-a+simd/hard\libc-musl.a(memcpy.o)
                              build/sam_a5d27_som1_winc1500/production/_ext/492885778/m2m_wifi.o (memcpy)
c:/program files/microchip/xc32/v4.00/bin/bin/../../lib/gcc/pic32c/8.3.1/../../../../pic32c/lib/thumb/v7-a+simd/hard\libc-musl.a(memset.o)
                              build/sam_a5d27_som1_winc1500/production/_ext/492885778/m2m_wifi.o (memset)
c:/program files/microchip/xc32/v4.00/bin/bin/../../lib/gcc/pic32c/8.3.1/../../../../pic32c/lib/thumb/v7-a+simd/hard\libc-musl.a(strlen.o)
                              build/sam_a5d27_som1_winc1500/production/_ext/492885778/m2m_wifi.o (strlen)
c:/program files/microchip/xc32/v4.00/bin/bin/../../lib/gcc/pic32c/8.3.1/../../../../pic32c/lib/thumb/v7-a+simd/hard\libc-musl.a(strchr.o)
                              build/sam_a5d27_som1_winc1500/production/_ext/1528743604/wdrv_winc_sta.o (strchr)
c:/program files/microchip/xc32/v4.00/bin/bin/../../lib/gcc/pic32c/8.3.1/../../../../pic32c/lib/thumb/v7-a+simd/hard\libc-musl.a(strchrnul.o)
                              c:/program files/microchip/xc32/v4.00/bin/bin/../../lib/gcc/pic32c/8.3.1/../../../../pic32c/lib/thumb/v7-a+simd/hard\libc-musl.a(strchr.o) (__strchrnul)
c:/program files/microchip/xc32/v4.00/bin/bin/../../lib/gcc/pic32c/8.3.1/../../../../pic32c/lib/thumb/v7-a+simd/hard\libc-musl.a(strcpy.o)
                              build/sam_a5d27_som1_winc1500/production/_ext/1360937237/example.o (strcpy)
c:/program files/microchip/xc32/v4.00/bin/bin/../../lib/gcc/pic32c/8.3.1/../../../../pic32c/lib/thumb/v7-a+simd/hard\libc-musl.a(strncmp.o)
                              build/sam_a5d27_som1_winc1500/production/_ext/1360937237/example.o (strncmp)
c:/program files/microchip/xc32/v4.00/bin/bin/../../lib/gcc/pic32c/8.3.1/../../../../pic32c/lib/thumb/v7-a+simd/hard\libc-musl.a(strtok.o)
                              build/sam_a5d27_som1_winc1500/production/_ext/1360937237/example.o (strtok)
c:/program files/microchip/xc32/v4.00/bin/bin/../../lib/gcc/pic32c/8.3.1/../../../../pic32c/lib/thumb/v7-a+simd/hard\libc-musl.a(gmtime.o)
                              build/sam_a5d27_som1_winc1500/production/_ext/1528743604/wdrv_winc_systime.o (gmtime)
c:/program files/microchip/xc32/v4.00/bin/bin/../../lib/gcc/pic32c/8.3.1/../../../../pic32c/lib/thumb/v7-a+simd/hard\libc-musl.a(gmtime_r.o)
                              c:/program files/microchip/xc32/v4.00/bin/bin/../../lib/gcc/pic32c/8.3.1/../../../../pic32c/lib/thumb/v7-a+simd/hard\libc-musl.a(gmtime.o) (__gmtime_r)
c:/program files/microchip/xc32/v4.00/bin/bin/../../lib/gcc/pic32c/8.3.1/../../../../pic32c/lib/thumb/v7-a+simd/hard\libc-musl.a(__tz.o)
                              c:/program files/microchip/xc32/v4.00/bin/bin/../../lib/gcc/pic32c/8.3.1/../../../../pic32c/lib/thumb/v7-a+simd/hard\libc-musl.a(gmtime_r.o) (__gmt)
c:/program files/microchip/xc32/v4.00/bin/bin/../../lib/gcc/pic32c/8.3.1/../../../../pic32c/lib/thumb/v7-a+simd/hard\libc-musl.a(mktime.o)
                              build/sam_a5d27_som1_winc1500/production/_ext/1528743604/wdrv_winc_systime.o (mktime)
c:/program files/microchip/xc32/v4.00/bin/bin/../../lib/gcc/pic32c/8.3.1/../../../../pic32c/lib/thumb/v7-a+simd/hard\libc-musl.a(__environ.o)
                              c:/program files/microchip/xc32/v4.00/bin/bin/../../lib/gcc/pic32c/8.3.1/../../../../pic32c/lib/thumb/v7-a+simd/hard\libc-musl.a(__libc_start_main.o) (__environ)
c:/program files/microchip/xc32/v4.00/bin/bin/../../lib/gcc/pic32c/8.3.1/../../../../pic32c/lib/thumb/v7-a+simd/hard\libc-musl.a(__errno_location.o)
                              c:/program files/microchip/xc32/v4.00/bin/bin/../../lib/gcc/pic32c/8.3.1/../../../../pic32c/lib/thumb/v7-a+simd/hard\libc-musl.a(malloc.o) (__errno_val)
c:/program files/microchip/xc32/v4.00/bin/bin/../../lib/gcc/pic32c/8.3.1/../../../../pic32c/lib/thumb/v7-a+simd/hard\libc-musl.a(vfprintf.o)
                              c:/program files/microchip/xc32/v4.00/bin/bin/../../lib/gcc/pic32c/8.3.1/../../../../pic32c/lib/thumb/v7-a+simd/hard\libc-musl.a(vsnprintf.o) (vfprintf)
c:/program files/microchip/xc32/v4.00/bin/bin/../../lib/gcc/pic32c/8.3.1/../../../../pic32c/lib/thumb/v7-a+simd/hard\libc-musl.a(stpcpy.o)
                              c:/program files/microchip/xc32/v4.00/bin/bin/../../lib/gcc/pic32c/8.3.1/../../../../pic32c/lib/thumb/v7-a+simd/hard\libc-musl.a(strcpy.o) (__stpcpy)
c:/program files/microchip/xc32/v4.00/bin/bin/../../lib/gcc/pic32c/8.3.1/../../../../pic32c/lib/thumb/v7-a+simd/hard\libc-musl.a(strcspn.o)
                              c:/program files/microchip/xc32/v4.00/bin/bin/../../lib/gcc/pic32c/8.3.1/../../../../pic32c/lib/thumb/v7-a+simd/hard\libc-musl.a(strtok.o) (strcspn)
c:/program files/microchip/xc32/v4.00/bin/bin/../../lib/gcc/pic32c/8.3.1/../../../../pic32c/lib/thumb/v7-a+simd/hard\libc-musl.a(strspn.o)
                              c:/program files/microchip/xc32/v4.00/bin/bin/../../lib/gcc/pic32c/8.3.1/../../../../pic32c/lib/thumb/v7-a+simd/hard\libc-musl.a(strtok.o) (strspn)
c:/program files/microchip/xc32/v4.00/bin/bin/../../lib/gcc/pic32c/8.3.1/../../../../pic32c/lib/thumb/v7-a+simd/hard\libc-musl.a(__month_to_secs.o)
                              c:/program files/microchip/xc32/v4.00/bin/bin/../../lib/gcc/pic32c/8.3.1/../../../../pic32c/lib/thumb/v7-a+simd/hard\libc-musl.a(__tz.o) (__month_to_secs)
c:/program files/microchip/xc32/v4.00/bin/bin/../../lib/gcc/pic32c/8.3.1/../../../../pic32c/lib/thumb/v7-a+simd/hard\libc-musl.a(__secs_to_tm.o)
                              c:/program files/microchip/xc32/v4.00/bin/bin/../../lib/gcc/pic32c/8.3.1/../../../../pic32c/lib/thumb/v7-a+simd/hard\libc-musl.a(gmtime_r.o) (__secs_to_tm)
c:/program files/microchip/xc32/v4.00/bin/bin/../../lib/gcc/pic32c/8.3.1/../../../../pic32c/lib/thumb/v7-a+simd/hard\libc-musl.a(__tm_to_secs.o)
                              c:/program files/microchip/xc32/v4.00/bin/bin/../../lib/gcc/pic32c/8.3.1/../../../../pic32c/lib/thumb/v7-a+simd/hard\libc-musl.a(mktime.o) (__tm_to_secs)
c:/program files/microchip/xc32/v4.00/bin/bin/../../lib/gcc/pic32c/8.3.1/../../../../pic32c/lib/thumb/v7-a+simd/hard\libc-musl.a(__year_to_secs.o)
                              c:/program files/microchip/xc32/v4.00/bin/bin/../../lib/gcc/pic32c/8.3.1/../../../../pic32c/lib/thumb/v7-a+simd/hard\libc-musl.a(__tz.o) (__year_to_secs)
c:/program files/microchip/xc32/v4.00/bin/bin/../../lib/gcc/pic32c/8.3.1/../../../../pic32c/lib/thumb/v7-a+simd/hard\libc-musl.a(__io_fmt_needed.o)
                              c:/program files/microchip/xc32/v4.00/bin/bin/../../lib/gcc/pic32c/8.3.1/../../../../pic32c/lib/thumb/v7-a+simd/hard\libc-musl.a(vfprintf.o) (__io_fmt_needed)
c:/program files/microchip/xc32/v4.00/bin/bin/../../lib/gcc/pic32c/8.3.1/../../../../pic32c/lib/thumb/v7-a+simd/hard\libc-musl.a(__printf_core.o)
                              c:/program files/microchip/xc32/v4.00/bin/bin/../../lib/gcc/pic32c/8.3.1/../../../../pic32c/lib/thumb/v7-a+simd/hard\libc-musl.a(vfprintf.o) (__printf_core)
c:/program files/microchip/xc32/v4.00/bin/bin/../../lib/gcc/pic32c/8.3.1/../../../../pic32c/lib/thumb/v7-a+simd/hard\libc-musl.a(tolower.o)
                              c:/program files/microchip/xc32/v4.00/bin/bin/../../lib/gcc/pic32c/8.3.1/../../../../pic32c/lib/thumb/v7-a+simd/hard\libc-musl.a(__printf_core.o) (tolower)
c:/program files/microchip/xc32/v4.00/bin/bin/../../lib/gcc/pic32c/8.3.1/../../../../pic32c/lib/thumb/v7-a+simd/hard\libc-musl.a(__fmt_a.o)
                              c:/program files/microchip/xc32/v4.00/bin/bin/../../lib/gcc/pic32c/8.3.1/../../../../pic32c/lib/thumb/v7-a+simd/hard\libc-musl.a(__io_fmt_needed.o) (__fmt_a_needed)
c:/program files/microchip/xc32/v4.00/bin/bin/../../lib/gcc/pic32c/8.3.1/../../../../pic32c/lib/thumb/v7-a+simd/hard\libc-musl.a(__fmt_d.o)
                              c:/program files/microchip/xc32/v4.00/bin/bin/../../lib/gcc/pic32c/8.3.1/../../../../pic32c/lib/thumb/v7-a+simd/hard\libc-musl.a(__io_fmt_needed.o) (__fmt_d_needed)
c:/program files/microchip/xc32/v4.00/bin/bin/../../lib/gcc/pic32c/8.3.1/../../../../pic32c/lib/thumb/v7-a+simd/hard\libc-musl.a(__fmt_fp.o)
                              c:/program files/microchip/xc32/v4.00/bin/bin/../../lib/gcc/pic32c/8.3.1/../../../../pic32c/lib/thumb/v7-a+simd/hard\libc-musl.a(__io_fmt_needed.o) (__fmt_f_needed)
c:/program files/microchip/xc32/v4.00/bin/bin/../../lib/gcc/pic32c/8.3.1/../../../../pic32c/lib/thumb/v7-a+simd/hard\libc-musl.a(__fmt_o.o)
                              c:/program files/microchip/xc32/v4.00/bin/bin/../../lib/gcc/pic32c/8.3.1/../../../../pic32c/lib/thumb/v7-a+simd/hard\libc-musl.a(__io_fmt_needed.o) (__fmt_o_needed)
c:/program files/microchip/xc32/v4.00/bin/bin/../../lib/gcc/pic32c/8.3.1/../../../../pic32c/lib/thumb/v7-a+simd/hard\libc-musl.a(__fmt_s.o)
                              c:/program files/microchip/xc32/v4.00/bin/bin/../../lib/gcc/pic32c/8.3.1/../../../../pic32c/lib/thumb/v7-a+simd/hard\libc-musl.a(__io_fmt_needed.o) (__fmt_s_needed)
c:/program files/microchip/xc32/v4.00/bin/bin/../../lib/gcc/pic32c/8.3.1/../../../../pic32c/lib/thumb/v7-a+simd/hard\libc-musl.a(__fmt_u.o)
                              c:/program files/microchip/xc32/v4.00/bin/bin/../../lib/gcc/pic32c/8.3.1/../../../../pic32c/lib/thumb/v7-a+simd/hard\libc-musl.a(__fmt_d.o) (__cvt_u)
c:/program files/microchip/xc32/v4.00/bin/bin/../../lib/gcc/pic32c/8.3.1/../../../../pic32c/lib/thumb/v7-a+simd/hard\libc-musl.a(__fmt_x.o)
                              c:/program files/microchip/xc32/v4.00/bin/bin/../../lib/gcc/pic32c/8.3.1/../../../../pic32c/lib/thumb/v7-a+simd/hard\libc-musl.a(__io_fmt_needed.o) (__fmt_x_needed)
c:/program files/microchip/xc32/v4.00/bin/bin/../../lib/gcc/pic32c/8.3.1/../../../../pic32c/lib/thumb/v7-a+simd/hard\libc-musl.a(__pop_float.o)
                              c:/program files/microchip/xc32/v4.00/bin/bin/../../lib/gcc/pic32c/8.3.1/../../../../pic32c/lib/thumb/v7-a+simd/hard\libc-musl.a(__printf_core.o) (__pop_float)
c:/program files/microchip/xc32/v4.00/bin/bin/../../lib/gcc/pic32c/8.3.1/../../../../pic32c/lib/thumb/v7-a+simd/hard\libc-musl.a(__pop_int.o)
                              c:/program files/microchip/xc32/v4.00/bin/bin/../../lib/gcc/pic32c/8.3.1/../../../../pic32c/lib/thumb/v7-a+simd/hard\libc-musl.a(__printf_core.o) (__pop_int)
c:/program files/microchip/xc32/v4.00/bin/bin/../../lib/gcc/pic32c/8.3.1/../../../../pic32c/lib/thumb/v7-a+simd/hard\libc-musl.a(__pop_ptr.o)
                              c:/program files/microchip/xc32/v4.00/bin/bin/../../lib/gcc/pic32c/8.3.1/../../../../pic32c/lib/thumb/v7-a+simd/hard\libc-musl.a(__printf_core.o) (__pop_ptr)
c:/program files/microchip/xc32/v4.00/bin/bin/../../lib/gcc/pic32c/8.3.1/../../../../pic32c/lib/thumb/v7-a+simd/hard\libc-musl.a(toupper.o)
                              c:/program files/microchip/xc32/v4.00/bin/bin/../../lib/gcc/pic32c/8.3.1/../../../../pic32c/lib/thumb/v7-a+simd/hard\libc-musl.a(__fmt_a.o) (toupper)
c:/program files/microchip/xc32/v4.00/bin/bin/../../lib/gcc/pic32c/8.3.1/../../../../pic32c/lib/thumb/v7-a+simd/hard\libm-musl.a(floor.o)
                              c:/program files/microchip/xc32/v4.00/bin/bin/../../lib/gcc/pic32c/8.3.1/../../../../pic32c/lib/thumb/v7-a+simd/hard\libc-musl.a(__fmt_a.o) (floor)
c:/program files/microchip/xc32/v4.00/bin/bin/../../lib/gcc/pic32c/8.3.1/../../../../pic32c/lib/thumb/v7-a+simd/hard\libm-musl.a(fma.o)
                              c:/program files/microchip/xc32/v4.00/bin/bin/../../lib/gcc/pic32c/8.3.1/../../../../pic32c/lib/thumb/v7-a+simd/hard\libc-musl.a(__fmt_fp.o) (fma)
c:/program files/microchip/xc32/v4.00/bin/bin/../../lib/gcc/pic32c/8.3.1/../../../../pic32c/lib/thumb/v7-a+simd/hard\libm-musl.a(scalbn.o)
                              c:/program files/microchip/xc32/v4.00/bin/bin/../../lib/gcc/pic32c/8.3.1/../../../../pic32c/lib/thumb/v7-a+simd/hard\libm-musl.a(fma.o) (scalbn)
c:/program files/microchip/xc32/v4.00/bin/bin/../../lib/gcc/pic32c/8.3.1/../../../../pic32c/lib/thumb/v7-a+simd/hard\libpic32c.a(sbrk.o)
                              c:/program files/microchip/xc32/v4.00/bin/bin/../../lib/gcc/pic32c/8.3.1/../../../../pic32c/lib/thumb/v7-a+simd/hard\libc-musl.a(expand_heap.o) (_sbrk)
c:/program files/microchip/xc32/v4.00/bin/bin/../../lib/gcc/pic32c/8.3.1/thumb/v7-a+simd/hard\libgcc.a(_arm_addsubdf3.o)
                              c:/program files/microchip/xc32/v4.00/bin/bin/../../lib/gcc/pic32c/8.3.1/../../../../pic32c/lib/thumb/v7-a+simd/hard\libm-musl.a(fma.o) (__aeabi_l2d)
c:/program files/microchip/xc32/v4.00/bin/bin/../../lib/gcc/pic32c/8.3.1/thumb/v7-a+simd/hard\libgcc.a(_aeabi_ldivmod.o)
                              c:/program files/microchip/xc32/v4.00/bin/bin/../../lib/gcc/pic32c/8.3.1/../../../../pic32c/lib/thumb/v7-a+simd/hard\libc-musl.a(__tz.o) (__aeabi_ldivmod)

Microchip PIC32 Memory-Usage Report
        --------------------------------------------------------------------------
         Total Program Memory used  :           0           0  
        --------------------------------------------------------------------------


RAM Data-Memory Usage
section                    address  length [bytes]      (dec)  Description
-------                 ----------  -------------------------  -----------
.text                   0x26f00000         0xd350       54096   
.data                   0x26f0d350           0x80         128  Initialized data 
.ARM.exidx              0x26f0d3d0            0x8           8   
.relocate               0x26f0d3d8           0x3c          60   
.region_cache_aligned_c 0x26f0d414            0xc          12   
.bss                    0x26f10000         0x8ecc       36556  Uninitialized data 
.region_cache_aligned   0x26f18ecc           0x14          20   
.stacks                 0x26f18ee0         0x2140        8512   
         Total RAM used  :     0x18440       99392  0.1% of 0x7000000
        --------------------------------------------------------------------------
            Total Data Memory used  :     0x18440       99392  0.1% of 0x7000000
        --------------------------------------------------------------------------


Dynamic Data-Memory Reservation
section                    address  length [bytes]      (dec)  Description
-------                 ----------  -------------------------  -----------
heap                    0x21000008          0x200         512  Reserved for heap 
stack                   0x21000220      0x5effdd8    99614168  Reserved for stack 

        --------------------------------------------------------------------------

Discarded input sections

 .text          0x00000000        0x0 c:/program files/microchip/xc32/v4.00/bin/bin/../../lib/gcc/pic32c/8.3.1/thumb/v7-a+simd/hard/crti.o
 .data          0x00000000        0x0 c:/program files/microchip/xc32/v4.00/bin/bin/../../lib/gcc/pic32c/8.3.1/thumb/v7-a+simd/hard/crti.o
 .bss           0x00000000        0x0 c:/program files/microchip/xc32/v4.00/bin/bin/../../lib/gcc/pic32c/8.3.1/thumb/v7-a+simd/hard/crti.o
 .xc_stack_usage.hdr
                0x00000000        0xe c:/program files/microchip/xc32/v4.00/bin/bin/../../lib/gcc/pic32c/8.3.1/thumb/v7-a+simd/hard/crti.o
 .xc_stack_usage
                0x00000000       0x26 c:/program files/microchip/xc32/v4.00/bin/bin/../../lib/gcc/pic32c/8.3.1/thumb/v7-a+simd/hard/crti.o
 .data          0x00000000        0x4 c:/program files/microchip/xc32/v4.00/bin/bin/../../lib/gcc/pic32c/8.3.1/thumb/v7-a+simd/hard/crtbegin.o
 .xc_stack_usage
                0x00000000       0x3c c:/program files/microchip/xc32/v4.00/bin/bin/../../lib/gcc/pic32c/8.3.1/thumb/v7-a+simd/hard/crtbegin.o
 .xc_stack_usage.hdr
                0x00000000        0xe c:/program files/microchip/xc32/v4.00/bin/bin/../../lib/gcc/pic32c/8.3.1/thumb/v7-a+simd/hard/crtbegin.o
 .text          0x00000000        0x0 build/sam_a5d27_som1_winc1500/production/_ext/1971804060/drv_spi.o
 .data          0x00000000        0x0 build/sam_a5d27_som1_winc1500/production/_ext/1971804060/drv_spi.o
 .bss           0x00000000        0x0 build/sam_a5d27_som1_winc1500/production/_ext/1971804060/drv_spi.o
 .text.DRV_SPI_Status
                0x00000000       0x30 build/sam_a5d27_som1_winc1500/production/_ext/1971804060/drv_spi.o
 .text.DRV_SPI_Close
                0x00000000      0x12c build/sam_a5d27_som1_winc1500/production/_ext/1971804060/drv_spi.o
 .text.DRV_SPI_TransferSetup
                0x00000000       0xa6 build/sam_a5d27_som1_winc1500/production/_ext/1971804060/drv_spi.o
 .text.DRV_SPI_ReadTransferAdd
                0x00000000       0x18 build/sam_a5d27_som1_winc1500/production/_ext/1971804060/drv_spi.o
 .text.DRV_SPI_TransferStatusGet
                0x00000000       0x8c build/sam_a5d27_som1_winc1500/production/_ext/1971804060/drv_spi.o
 .text.DRV_SPI_Lock
                0x00000000       0xf0 build/sam_a5d27_som1_winc1500/production/_ext/1971804060/drv_spi.o
 .text          0x00000000        0x0 build/sam_a5d27_som1_winc1500/production/_ext/1615170836/wdrv_winc_eint.o
 .data          0x00000000        0x0 build/sam_a5d27_som1_winc1500/production/_ext/1615170836/wdrv_winc_eint.o
 .bss           0x00000000        0x0 build/sam_a5d27_som1_winc1500/production/_ext/1615170836/wdrv_winc_eint.o
 .text          0x00000000        0x0 build/sam_a5d27_som1_winc1500/production/_ext/1615170836/wdrv_winc_gpio.o
 .data          0x00000000        0x0 build/sam_a5d27_som1_winc1500/production/_ext/1615170836/wdrv_winc_gpio.o
 .bss           0x00000000        0x0 build/sam_a5d27_som1_winc1500/production/_ext/1615170836/wdrv_winc_gpio.o
 .text          0x00000000        0x0 build/sam_a5d27_som1_winc1500/production/_ext/467732753/wdrv_winc_spi.o
 .data          0x00000000        0x0 build/sam_a5d27_som1_winc1500/production/_ext/467732753/wdrv_winc_spi.o
 .bss           0x00000000        0x0 build/sam_a5d27_som1_winc1500/production/_ext/467732753/wdrv_winc_spi.o
 .text          0x00000000        0x0 build/sam_a5d27_som1_winc1500/production/_ext/461596885/nm_common.o
 .data          0x00000000        0x0 build/sam_a5d27_som1_winc1500/production/_ext/461596885/nm_common.o
 .bss           0x00000000        0x0 build/sam_a5d27_som1_winc1500/production/_ext/461596885/nm_common.o
 .text          0x00000000        0x0 build/sam_a5d27_som1_winc1500/production/_ext/492885778/m2m_hif.o
 .data          0x00000000        0x0 build/sam_a5d27_som1_winc1500/production/_ext/492885778/m2m_hif.o
 .bss           0x00000000        0x0 build/sam_a5d27_som1_winc1500/production/_ext/492885778/m2m_hif.o
 .text.hif_set_sleep_mode
                0x00000000        0xc build/sam_a5d27_som1_winc1500/production/_ext/492885778/m2m_hif.o
 .text.hif_get_sleep_mode
                0x00000000        0xc build/sam_a5d27_som1_winc1500/production/_ext/492885778/m2m_hif.o
 .text          0x00000000        0x0 build/sam_a5d27_som1_winc1500/production/_ext/492885778/nmbus.o
 .data          0x00000000        0x0 build/sam_a5d27_som1_winc1500/production/_ext/492885778/nmbus.o
 .bss           0x00000000        0x0 build/sam_a5d27_som1_winc1500/production/_ext/492885778/nmbus.o
 .text.nm_bus_iface_reconfigure
                0x00000000        0x4 build/sam_a5d27_som1_winc1500/production/_ext/492885778/nmbus.o
 .text          0x00000000        0x0 build/sam_a5d27_som1_winc1500/production/_ext/492885778/nmdrv.o
 .data          0x00000000        0x0 build/sam_a5d27_som1_winc1500/production/_ext/492885778/nmdrv.o
 .bss           0x00000000        0x0 build/sam_a5d27_som1_winc1500/production/_ext/492885778/nmdrv.o
 .text.nm_get_firmware_info
                0x00000000       0xae build/sam_a5d27_som1_winc1500/production/_ext/492885778/nmdrv.o
 .text.nm_get_ota_firmware_info
                0x00000000       0xd0 build/sam_a5d27_som1_winc1500/production/_ext/492885778/nmdrv.o
 .text.nm_drv_init
                0x00000000       0x1a build/sam_a5d27_som1_winc1500/production/_ext/492885778/nmdrv.o
 .text          0x00000000        0x0 build/sam_a5d27_som1_winc1500/production/_ext/492885778/m2m_wifi.o
 .data          0x00000000        0x0 build/sam_a5d27_som1_winc1500/production/_ext/492885778/m2m_wifi.o
 .bss           0x00000000        0x0 build/sam_a5d27_som1_winc1500/production/_ext/492885778/m2m_wifi.o
 .text.m2m_wifi_send_crl
                0x00000000       0x20 build/sam_a5d27_som1_winc1500/production/_ext/492885778/m2m_wifi.o
 .text.m2m_wifi_init
                0x00000000       0x1a build/sam_a5d27_som1_winc1500/production/_ext/492885778/m2m_wifi.o
 .text.m2m_wifi_delete_sc
                0x00000000       0x3a build/sam_a5d27_som1_winc1500/production/_ext/492885778/m2m_wifi.o
 .text.m2m_wifi_default_connect
                0x00000000       0x1c build/sam_a5d27_som1_winc1500/production/_ext/492885778/m2m_wifi.o
 .text.m2m_wifi_connect_wep
                0x00000000        0x6 build/sam_a5d27_som1_winc1500/production/_ext/492885778/m2m_wifi.o
 .text.m2m_wifi_1x_set_option
                0x00000000      0x17a build/sam_a5d27_som1_winc1500/production/_ext/492885778/m2m_wifi.o
 .text.m2m_wifi_1x_get_option
                0x00000000       0xe4 build/sam_a5d27_som1_winc1500/production/_ext/492885778/m2m_wifi.o
 .text.m2m_wifi_connect_sc
                0x00000000       0xee build/sam_a5d27_som1_winc1500/production/_ext/492885778/m2m_wifi.o
 .text.m2m_wifi_connect
                0x00000000       0x16 build/sam_a5d27_som1_winc1500/production/_ext/492885778/m2m_wifi.o
 .text.m2m_wifi_disconnect
                0x00000000       0x1c build/sam_a5d27_som1_winc1500/production/_ext/492885778/m2m_wifi.o
 .text.m2m_wifi_set_mac_address
                0x00000000       0x2a build/sam_a5d27_som1_winc1500/production/_ext/492885778/m2m_wifi.o
 .text.m2m_wifi_set_lsn_int
                0x00000000       0x1e build/sam_a5d27_som1_winc1500/production/_ext/492885778/m2m_wifi.o
 .text.m2m_wifi_set_cust_InfoElement
                0x00000000       0x32 build/sam_a5d27_som1_winc1500/production/_ext/492885778/m2m_wifi.o
 .text.m2m_wifi_set_scan_options
                0x00000000       0xc0 build/sam_a5d27_som1_winc1500/production/_ext/492885778/m2m_wifi.o
 .text.m2m_wifi_set_stop_scan_on_first
                0x00000000       0x58 build/sam_a5d27_som1_winc1500/production/_ext/492885778/m2m_wifi.o
 .text.m2m_wifi_set_scan_region
                0x00000000       0x22 build/sam_a5d27_som1_winc1500/production/_ext/492885778/m2m_wifi.o
 .text.m2m_wifi_request_scan
                0x00000000       0x5a build/sam_a5d27_som1_winc1500/production/_ext/492885778/m2m_wifi.o
 .text.m2m_wifi_request_scan_passive
                0x00000000       0x5e build/sam_a5d27_som1_winc1500/production/_ext/492885778/m2m_wifi.o
 .text.m2m_wifi_request_scan_ssid_list
                0x00000000       0x96 build/sam_a5d27_som1_winc1500/production/_ext/492885778/m2m_wifi.o
 .text.m2m_wifi_wps
                0x00000000       0x3c build/sam_a5d27_som1_winc1500/production/_ext/492885778/m2m_wifi.o
 .text.m2m_wifi_wps_disable
                0x00000000       0x1c build/sam_a5d27_som1_winc1500/production/_ext/492885778/m2m_wifi.o
 .text.m2m_wifi_req_client_ctrl
                0x00000000       0x1c build/sam_a5d27_som1_winc1500/production/_ext/492885778/m2m_wifi.o
 .text.m2m_wifi_req_server_init
                0x00000000       0x1c build/sam_a5d27_som1_winc1500/production/_ext/492885778/m2m_wifi.o
 .text.m2m_wifi_p2p
                0x00000000       0x50 build/sam_a5d27_som1_winc1500/production/_ext/492885778/m2m_wifi.o
 .text.m2m_wifi_p2p_disconnect
                0x00000000       0x1c build/sam_a5d27_som1_winc1500/production/_ext/492885778/m2m_wifi.o
 .text.m2m_wifi_enable_ap
                0x00000000       0x28 build/sam_a5d27_som1_winc1500/production/_ext/492885778/m2m_wifi.o
 .text.m2m_wifi_set_gains
                0x00000000       0x26 build/sam_a5d27_som1_winc1500/production/_ext/492885778/m2m_wifi.o
 .text.m2m_wifi_req_curr_rssi
                0x00000000       0x1c build/sam_a5d27_som1_winc1500/production/_ext/492885778/m2m_wifi.o
 .text.m2m_wifi_send_ethernet_pkt
                0x00000000       0x38 build/sam_a5d27_som1_winc1500/production/_ext/492885778/m2m_wifi.o
 .text.m2m_wifi_get_otp_mac_address
                0x00000000       0x28 build/sam_a5d27_som1_winc1500/production/_ext/492885778/m2m_wifi.o
 .text.m2m_wifi_get_sleep_mode
                0x00000000        0x8 build/sam_a5d27_som1_winc1500/production/_ext/492885778/m2m_wifi.o
 .text.m2m_wifi_set_sleep_mode
                0x00000000       0x4c build/sam_a5d27_som1_winc1500/production/_ext/492885778/m2m_wifi.o
 .text.m2m_wifi_request_sleep
                0x00000000       0x2c build/sam_a5d27_som1_winc1500/production/_ext/492885778/m2m_wifi.o
 .text.m2m_wifi_set_device_name
                0x00000000       0x30 build/sam_a5d27_som1_winc1500/production/_ext/492885778/m2m_wifi.o
 .text.m2m_wifi_configure_sntp
                0x00000000       0x40 build/sam_a5d27_som1_winc1500/production/_ext/492885778/m2m_wifi.o
 .text.m2m_wifi_get_firmware_version
                0x00000000       0x1e build/sam_a5d27_som1_winc1500/production/_ext/492885778/m2m_wifi.o
 .text.m2m_wifi_start_provision_mode
                0x00000000       0x30 build/sam_a5d27_som1_winc1500/production/_ext/492885778/m2m_wifi.o
 .text.m2m_wifi_get_connection_info
                0x00000000       0x1c build/sam_a5d27_som1_winc1500/production/_ext/492885778/m2m_wifi.o
 .text.m2m_wifi_set_system_time
                0x00000000       0x20 build/sam_a5d27_som1_winc1500/production/_ext/492885778/m2m_wifi.o
 .text.m2m_wifi_get_system_time
                0x00000000       0x1c build/sam_a5d27_som1_winc1500/production/_ext/492885778/m2m_wifi.o
 .text.m2m_wifi_enable_sntp
                0x00000000       0x24 build/sam_a5d27_som1_winc1500/production/_ext/492885778/m2m_wifi.o
 .text.m2m_wifi_set_power_profile
                0x00000000       0x22 build/sam_a5d27_som1_winc1500/production/_ext/492885778/m2m_wifi.o
 .text.m2m_wifi_set_tx_power
                0x00000000       0x22 build/sam_a5d27_som1_winc1500/production/_ext/492885778/m2m_wifi.o
 .text.m2m_wifi_set_gain_table_idx
                0x00000000       0x22 build/sam_a5d27_som1_winc1500/production/_ext/492885778/m2m_wifi.o
 .text.m2m_wifi_enable_firmware_logs
                0x00000000       0x22 build/sam_a5d27_som1_winc1500/production/_ext/492885778/m2m_wifi.o
 .text.m2m_wifi_set_battery_voltage
                0x00000000       0x26 build/sam_a5d27_som1_winc1500/production/_ext/492885778/m2m_wifi.o
 .text.m2m_wifi_prng_get_random_bytes
                0x00000000       0x58 build/sam_a5d27_som1_winc1500/production/_ext/492885778/m2m_wifi.o
 .text.m2m_wifi_conf_auto_rate
                0x00000000       0x1e build/sam_a5d27_som1_winc1500/production/_ext/492885778/m2m_wifi.o
 .text.m2m_wifi_enable_mac_mcast
                0x00000000       0x70 build/sam_a5d27_som1_winc1500/production/_ext/492885778/m2m_wifi.o
 .text.m2m_wifi_set_receive_buffer
                0x00000000       0x3c build/sam_a5d27_som1_winc1500/production/_ext/492885778/m2m_wifi.o
 .text.m2m_wifi_reinit_hold
                0x00000000        0xe build/sam_a5d27_som1_winc1500/production/_ext/492885778/m2m_wifi.o
 .text.m2m_wifi_reinit
                0x00000000       0x1a build/sam_a5d27_som1_winc1500/production/_ext/492885778/m2m_wifi.o
 .text.m2m_wifi_reinit_start
                0x00000000        0x8 build/sam_a5d27_som1_winc1500/production/_ext/492885778/m2m_wifi.o
 .text.m2m_wifi_enable_roaming
                0x00000000       0x32 build/sam_a5d27_som1_winc1500/production/_ext/492885778/m2m_wifi.o
 .text.m2m_wifi_disable_roaming
                0x00000000       0x22 build/sam_a5d27_som1_winc1500/production/_ext/492885778/m2m_wifi.o
 .text.m2m_wifi_enable_XO_during_sleep
                0x00000000       0x2c build/sam_a5d27_som1_winc1500/production/_ext/492885778/m2m_wifi.o
 .text          0x00000000        0x0 build/sam_a5d27_som1_winc1500/production/_ext/492885778/m2m_ssl.o
 .data          0x00000000        0x0 build/sam_a5d27_som1_winc1500/production/_ext/492885778/m2m_ssl.o
 .bss           0x00000000        0x0 build/sam_a5d27_som1_winc1500/production/_ext/492885778/m2m_ssl.o
 .text.m2m_ssl_handshake_rsp
                0x00000000       0x1c build/sam_a5d27_som1_winc1500/production/_ext/492885778/m2m_ssl.o
 .text.m2m_ssl_send_certs_to_winc
                0x00000000      0x148 build/sam_a5d27_som1_winc1500/production/_ext/492885778/m2m_ssl.o
 .text.m2m_ssl_retrieve_next_for_verifying
                0x00000000      0x234 build/sam_a5d27_som1_winc1500/production/_ext/492885778/m2m_ssl.o
 .text.m2m_ssl_retrieve_cert
                0x00000000       0x24 build/sam_a5d27_som1_winc1500/production/_ext/492885778/m2m_ssl.o
 .text.m2m_ssl_retrieve_hash
                0x00000000       0x5c build/sam_a5d27_som1_winc1500/production/_ext/492885778/m2m_ssl.o
 .text.m2m_ssl_stop_retrieving
                0x00000000       0x2c build/sam_a5d27_som1_winc1500/production/_ext/492885778/m2m_ssl.o
 .text.m2m_ssl_stop_processing_certs
                0x00000000        0x8 build/sam_a5d27_som1_winc1500/production/_ext/492885778/m2m_ssl.o
 .text.m2m_ssl_ecc_process_done
                0x00000000        0xe build/sam_a5d27_som1_winc1500/production/_ext/492885778/m2m_ssl.o
 .text.m2m_ssl_set_active_ciphersuites
                0x00000000       0x20 build/sam_a5d27_som1_winc1500/production/_ext/492885778/m2m_ssl.o
 .text          0x00000000        0x0 build/sam_a5d27_som1_winc1500/production/_ext/492885778/nmasic.o
 .data          0x00000000        0x0 build/sam_a5d27_som1_winc1500/production/_ext/492885778/nmasic.o
 .bss           0x00000000        0x0 build/sam_a5d27_som1_winc1500/production/_ext/492885778/nmasic.o
 .text.chip_idle
                0x00000000       0x2c build/sam_a5d27_som1_winc1500/production/_ext/492885778/nmasic.o
 .text.cpu_start
                0x00000000       0xa2 build/sam_a5d27_som1_winc1500/production/_ext/492885778/nmasic.o
 .text.nmi_get_rfrevid
                0x00000000       0x1c build/sam_a5d27_som1_winc1500/production/_ext/492885778/nmasic.o
 .text.restore_pmu_settings_after_global_reset
                0x00000000       0x24 build/sam_a5d27_som1_winc1500/production/_ext/492885778/nmasic.o
 .text.nmi_update_pll
                0x00000000       0x26 build/sam_a5d27_som1_winc1500/production/_ext/492885778/nmasic.o
 .text.nmi_set_sys_clk_src_to_xo
                0x00000000       0x1c build/sam_a5d27_som1_winc1500/production/_ext/492885778/nmasic.o
 .text.chip_reset
                0x00000000       0x18 build/sam_a5d27_som1_winc1500/production/_ext/492885778/nmasic.o
 .text.set_gpio_dir
                0x00000000       0x48 build/sam_a5d27_som1_winc1500/production/_ext/492885778/nmasic.o
 .text.set_gpio_val
                0x00000000       0x48 build/sam_a5d27_som1_winc1500/production/_ext/492885778/nmasic.o
 .text.get_gpio_val
                0x00000000       0x2a build/sam_a5d27_som1_winc1500/production/_ext/492885778/nmasic.o
 .text.pullup_ctrl
                0x00000000       0x68 build/sam_a5d27_som1_winc1500/production/_ext/492885778/nmasic.o
 .text.nmi_get_otp_mac_address
                0x00000000       0xac build/sam_a5d27_som1_winc1500/production/_ext/492885778/nmasic.o
 .text          0x00000000        0x0 build/sam_a5d27_som1_winc1500/production/_ext/492885778/nmspi.o
 .data          0x00000000        0x0 build/sam_a5d27_som1_winc1500/production/_ext/492885778/nmspi.o
 .bss           0x00000000        0x0 build/sam_a5d27_som1_winc1500/production/_ext/492885778/nmspi.o
 .text          0x00000000        0x0 build/sam_a5d27_som1_winc1500/production/_ext/492885778/m2m_periph.o
 .data          0x00000000        0x0 build/sam_a5d27_som1_winc1500/production/_ext/492885778/m2m_periph.o
 .bss           0x00000000        0x0 build/sam_a5d27_som1_winc1500/production/_ext/492885778/m2m_periph.o
 .text.m2m_periph_gpio_set_dir
                0x00000000       0x24 build/sam_a5d27_som1_winc1500/production/_ext/492885778/m2m_periph.o
 .text.m2m_periph_gpio_set_val
                0x00000000       0x24 build/sam_a5d27_som1_winc1500/production/_ext/492885778/m2m_periph.o
 .text.m2m_periph_gpio_get_val
                0x00000000       0x24 build/sam_a5d27_som1_winc1500/production/_ext/492885778/m2m_periph.o
 .text.m2m_periph_pullup_ctrl
                0x00000000        0x8 build/sam_a5d27_som1_winc1500/production/_ext/492885778/m2m_periph.o
 .debug_info    0x00000000      0xa33 build/sam_a5d27_som1_winc1500/production/_ext/492885778/m2m_periph.o
 .debug_abbrev  0x00000000      0x1bf build/sam_a5d27_som1_winc1500/production/_ext/492885778/m2m_periph.o
 .debug_loc     0x00000000      0x304 build/sam_a5d27_som1_winc1500/production/_ext/492885778/m2m_periph.o
 .debug_aranges
                0x00000000       0x38 build/sam_a5d27_som1_winc1500/production/_ext/492885778/m2m_periph.o
 .debug_ranges  0x00000000       0x28 build/sam_a5d27_som1_winc1500/production/_ext/492885778/m2m_periph.o
 .debug_line    0x00000000      0x343 build/sam_a5d27_som1_winc1500/production/_ext/492885778/m2m_periph.o
 .debug_str     0x00000000       0x5a build/sam_a5d27_som1_winc1500/production/_ext/492885778/m2m_periph.o
 .comment       0x00000000       0x54 build/sam_a5d27_som1_winc1500/production/_ext/492885778/m2m_periph.o
 .debug_frame   0x00000000       0x7c build/sam_a5d27_som1_winc1500/production/_ext/492885778/m2m_periph.o
 .ARM.attributes
                0x00000000       0x39 build/sam_a5d27_som1_winc1500/production/_ext/492885778/m2m_periph.o
 .text          0x00000000        0x0 build/sam_a5d27_som1_winc1500/production/_ext/492885778/m2m_ota.o
 .data          0x00000000        0x0 build/sam_a5d27_som1_winc1500/production/_ext/492885778/m2m_ota.o
 .bss           0x00000000        0x0 build/sam_a5d27_som1_winc1500/production/_ext/492885778/m2m_ota.o
 .text.m2m_ota_host_file_get_id
                0x00000000        0xc build/sam_a5d27_som1_winc1500/production/_ext/492885778/m2m_ota.o
 .text.m2m_ota_notif_set_url
                0x00000000       0x24 build/sam_a5d27_som1_winc1500/production/_ext/492885778/m2m_ota.o
 .text.m2m_ota_notif_check_for_update
                0x00000000       0x1c build/sam_a5d27_som1_winc1500/production/_ext/492885778/m2m_ota.o
 .text.m2m_ota_notif_sched
                0x00000000       0x1c build/sam_a5d27_som1_winc1500/production/_ext/492885778/m2m_ota.o
 .text.m2m_ota_start_update
                0x00000000       0x90 build/sam_a5d27_som1_winc1500/production/_ext/492885778/m2m_ota.o
 .text.m2m_ota_rollback
                0x00000000       0x1c build/sam_a5d27_som1_winc1500/production/_ext/492885778/m2m_ota.o
 .text.m2m_ota_abort
                0x00000000       0x1c build/sam_a5d27_som1_winc1500/production/_ext/492885778/m2m_ota.o
 .text.m2m_ota_switch_firmware
                0x00000000       0x1c build/sam_a5d27_som1_winc1500/production/_ext/492885778/m2m_ota.o
 .text.m2m_ota_get_firmware_version
                0x00000000       0x1e build/sam_a5d27_som1_winc1500/production/_ext/492885778/m2m_ota.o
 .text.m2m_ota_host_file_get
                0x00000000       0x94 build/sam_a5d27_som1_winc1500/production/_ext/492885778/m2m_ota.o
 .text.m2m_ota_host_file_erase
                0x00000000       0x5a build/sam_a5d27_som1_winc1500/production/_ext/492885778/m2m_ota.o
 .text.m2m_ota_set_ssl_option
                0x00000000       0xa0 build/sam_a5d27_som1_winc1500/production/_ext/492885778/m2m_ota.o
 .text.m2m_ota_get_ssl_option
                0x00000000       0x86 build/sam_a5d27_som1_winc1500/production/_ext/492885778/m2m_ota.o
 .bss.gu8OTASSLOpts
                0x00000000        0x1 build/sam_a5d27_som1_winc1500/production/_ext/492885778/m2m_ota.o
 .bss.gu8SNIServerName
                0x00000000       0x40 build/sam_a5d27_som1_winc1500/production/_ext/492885778/m2m_ota.o
 .text          0x00000000        0x0 build/sam_a5d27_som1_winc1500/production/_ext/919363165/inet_addr.o
 .data          0x00000000        0x0 build/sam_a5d27_som1_winc1500/production/_ext/919363165/inet_addr.o
 .bss           0x00000000        0x0 build/sam_a5d27_som1_winc1500/production/_ext/919363165/inet_addr.o
 .text          0x00000000        0x0 build/sam_a5d27_som1_winc1500/production/_ext/919363165/inet_ntop.o
 .data          0x00000000        0x0 build/sam_a5d27_som1_winc1500/production/_ext/919363165/inet_ntop.o
 .bss           0x00000000        0x0 build/sam_a5d27_som1_winc1500/production/_ext/919363165/inet_ntop.o
 .text          0x00000000        0x0 build/sam_a5d27_som1_winc1500/production/_ext/919363165/socket.o
 .data          0x00000000        0x0 build/sam_a5d27_som1_winc1500/production/_ext/919363165/socket.o
 .bss           0x00000000        0x0 build/sam_a5d27_som1_winc1500/production/_ext/919363165/socket.o
 .text.registerSocketCallback
                0x00000000       0x16 build/sam_a5d27_som1_winc1500/production/_ext/919363165/socket.o
 .text.registerSocketResolveCallback
                0x00000000        0xc build/sam_a5d27_som1_winc1500/production/_ext/919363165/socket.o
 .text.connect  0x00000000       0xaa build/sam_a5d27_som1_winc1500/production/_ext/919363165/socket.o
 .text.secure   0x00000000       0xc6 build/sam_a5d27_som1_winc1500/production/_ext/919363165/socket.o
 .text.send     0x00000000       0xc8 build/sam_a5d27_som1_winc1500/production/_ext/919363165/socket.o
 .text.sendto   0x00000000       0xb4 build/sam_a5d27_som1_winc1500/production/_ext/919363165/socket.o
 .text.recvfrom
                0x00000000       0xa8 build/sam_a5d27_som1_winc1500/production/_ext/919363165/socket.o
 .text.gethostbyname
                0x00000000       0x2e build/sam_a5d27_som1_winc1500/production/_ext/919363165/socket.o
 .text.setsockopt
                0x00000000      0x1d8 build/sam_a5d27_som1_winc1500/production/_ext/919363165/socket.o
 .text.getsockopt
                0x00000000        0x6 build/sam_a5d27_som1_winc1500/production/_ext/919363165/socket.o
 .text.m2m_ping_req
                0x00000000       0x56 build/sam_a5d27_som1_winc1500/production/_ext/919363165/socket.o
 .text.set_alpn_list
                0x00000000       0xaa build/sam_a5d27_som1_winc1500/production/_ext/919363165/socket.o
 .text.get_alpn_index
                0x00000000       0x4e build/sam_a5d27_som1_winc1500/production/_ext/919363165/socket.o
 .text.sslEnableCertExpirationCheck
                0x00000000       0x20 build/sam_a5d27_som1_winc1500/production/_ext/919363165/socket.o
 .text.IsSocketReady
                0x00000000        0xc build/sam_a5d27_som1_winc1500/production/_ext/919363165/socket.o
 .text.get_error_detail
                0x00000000       0x38 build/sam_a5d27_som1_winc1500/production/_ext/919363165/socket.o
 .bss.gsockerrno
                0x00000000        0x1 build/sam_a5d27_som1_winc1500/production/_ext/919363165/socket.o
 .bss.gu16BufferSize
                0x00000000        0x2 build/sam_a5d27_som1_winc1500/production/_ext/919363165/socket.o
 .bss.gu8OpCode
                0x00000000        0x1 build/sam_a5d27_som1_winc1500/production/_ext/919363165/socket.o
 .text          0x00000000        0x0 build/sam_a5d27_som1_winc1500/production/_ext/2123267981/flexible_flash.o
 .data          0x00000000        0x0 build/sam_a5d27_som1_winc1500/production/_ext/2123267981/flexible_flash.o
 .bss           0x00000000        0x0 build/sam_a5d27_som1_winc1500/production/_ext/2123267981/flexible_flash.o
 .text          0x00000000        0x0 build/sam_a5d27_som1_winc1500/production/_ext/2123267981/spi_flash.o
 .data          0x00000000        0x0 build/sam_a5d27_som1_winc1500/production/_ext/2123267981/spi_flash.o
 .bss           0x00000000        0x0 build/sam_a5d27_som1_winc1500/production/_ext/2123267981/spi_flash.o
 .text.spi_flash_write_enable
                0x00000000       0x82 build/sam_a5d27_som1_winc1500/production/_ext/2123267981/spi_flash.o
 .text.spi_flash_read_status_reg
                0x00000000       0x90 build/sam_a5d27_som1_winc1500/production/_ext/2123267981/spi_flash.o
 .text.spi_flash_pp
                0x00000000      0x168 build/sam_a5d27_som1_winc1500/production/_ext/2123267981/spi_flash.o
 .text.spi_flash_write
                0x00000000       0x92 build/sam_a5d27_som1_winc1500/production/_ext/2123267981/spi_flash.o
 .text.spi_flash_erase
                0x00000000      0x13c build/sam_a5d27_som1_winc1500/production/_ext/2123267981/spi_flash.o
 .text.spi_flash_get_size
                0x00000000      0x134 build/sam_a5d27_som1_winc1500/production/_ext/2123267981/spi_flash.o
 .rodata        0x00000000       0x74 build/sam_a5d27_som1_winc1500/production/_ext/2123267981/spi_flash.o
 .bss.gu32InternalFlashSize.10556
                0x00000000        0x4 build/sam_a5d27_som1_winc1500/production/_ext/2123267981/spi_flash.o
 .text          0x00000000        0x0 build/sam_a5d27_som1_winc1500/production/_ext/141899762/wdrv_winc_osal.o
 .data          0x00000000        0x0 build/sam_a5d27_som1_winc1500/production/_ext/141899762/wdrv_winc_osal.o
 .bss           0x00000000        0x0 build/sam_a5d27_som1_winc1500/production/_ext/141899762/wdrv_winc_osal.o
 .text          0x00000000        0x0 build/sam_a5d27_som1_winc1500/production/_ext/1528743604/wdrv_winc_sta.o
 .data          0x00000000        0x0 build/sam_a5d27_som1_winc1500/production/_ext/1528743604/wdrv_winc_sta.o
 .bss           0x00000000        0x0 build/sam_a5d27_som1_winc1500/production/_ext/1528743604/wdrv_winc_sta.o
 .text.WDRV_WINC_BSSReconnect
                0x00000000       0x52 build/sam_a5d27_som1_winc1500/production/_ext/1528743604/wdrv_winc_sta.o
 .text.WDRV_WINC_BSSDisconnect
                0x00000000       0x44 build/sam_a5d27_som1_winc1500/production/_ext/1528743604/wdrv_winc_sta.o
 .text.WDRV_WINC_BSSRoamingConfigure
                0x00000000       0x44 build/sam_a5d27_som1_winc1500/production/_ext/1528743604/wdrv_winc_sta.o
 .text          0x00000000        0x0 build/sam_a5d27_som1_winc1500/production/_ext/1528743604/wdrv_winc_wps.o
 .data          0x00000000        0x0 build/sam_a5d27_som1_winc1500/production/_ext/1528743604/wdrv_winc_wps.o
 .bss           0x00000000        0x0 build/sam_a5d27_som1_winc1500/production/_ext/1528743604/wdrv_winc_wps.o
 .text.WDRV_WINC_WPSEnrolleeDiscoveryStartPIN
                0x00000000      0x136 build/sam_a5d27_som1_winc1500/production/_ext/1528743604/wdrv_winc_wps.o
 .text.WDRV_WINC_WPSEnrolleeDiscoveryStartPBC
                0x00000000       0x34 build/sam_a5d27_som1_winc1500/production/_ext/1528743604/wdrv_winc_wps.o
 .text.WDRV_WINC_WPSEnrolleeDiscoveryStop
                0x00000000       0x24 build/sam_a5d27_som1_winc1500/production/_ext/1528743604/wdrv_winc_wps.o
 .rodata        0x00000000        0x8 build/sam_a5d27_som1_winc1500/production/_ext/1528743604/wdrv_winc_wps.o
 .debug_info    0x00000000     0x270d build/sam_a5d27_som1_winc1500/production/_ext/1528743604/wdrv_winc_wps.o
 .debug_abbrev  0x00000000      0x2da build/sam_a5d27_som1_winc1500/production/_ext/1528743604/wdrv_winc_wps.o
 .debug_loc     0x00000000      0x772 build/sam_a5d27_som1_winc1500/production/_ext/1528743604/wdrv_winc_wps.o
 .debug_aranges
                0x00000000       0x30 build/sam_a5d27_som1_winc1500/production/_ext/1528743604/wdrv_winc_wps.o
 .debug_ranges  0x00000000       0x20 build/sam_a5d27_som1_winc1500/production/_ext/1528743604/wdrv_winc_wps.o
 .debug_line    0x00000000      0x533 build/sam_a5d27_som1_winc1500/production/_ext/1528743604/wdrv_winc_wps.o
 .debug_str     0x00000000       0x8c build/sam_a5d27_som1_winc1500/production/_ext/1528743604/wdrv_winc_wps.o
 .comment       0x00000000       0x54 build/sam_a5d27_som1_winc1500/production/_ext/1528743604/wdrv_winc_wps.o
 .debug_frame   0x00000000       0x80 build/sam_a5d27_som1_winc1500/production/_ext/1528743604/wdrv_winc_wps.o
 .ARM.attributes
                0x00000000       0x39 build/sam_a5d27_som1_winc1500/production/_ext/1528743604/wdrv_winc_wps.o
 .text          0x00000000        0x0 build/sam_a5d27_som1_winc1500/production/_ext/1528743604/wdrv_winc_authctx.o
 .data          0x00000000        0x0 build/sam_a5d27_som1_winc1500/production/_ext/1528743604/wdrv_winc_authctx.o
 .bss           0x00000000        0x0 build/sam_a5d27_som1_winc1500/production/_ext/1528743604/wdrv_winc_authctx.o
 .text.WDRV_WINC_AuthCtxIsValid
                0x00000000       0x22 build/sam_a5d27_som1_winc1500/production/_ext/1528743604/wdrv_winc_authctx.o
 .text.WDRV_WINC_AuthCtxSetDefaults
                0x00000000        0xe build/sam_a5d27_som1_winc1500/production/_ext/1528743604/wdrv_winc_authctx.o
 .text.WDRV_WINC_AuthCtxSetWPAEnterpriseMSCHAPv2
                0x00000000       0x9c build/sam_a5d27_som1_winc1500/production/_ext/1528743604/wdrv_winc_authctx.o
 .text.WDRV_WINC_AuthCtxSetWPAEnterpriseTLS
                0x00000000      0x176 build/sam_a5d27_som1_winc1500/production/_ext/1528743604/wdrv_winc_authctx.o
 .rodata.rsaPriKeyMap
                0x00000000       0x28 build/sam_a5d27_som1_winc1500/production/_ext/1528743604/wdrv_winc_authctx.o
 .text          0x00000000        0x0 build/sam_a5d27_som1_winc1500/production/_ext/1528743604/wdrv_winc_bssfind.o
 .data          0x00000000        0x0 build/sam_a5d27_som1_winc1500/production/_ext/1528743604/wdrv_winc_bssfind.o
 .bss           0x00000000        0x0 build/sam_a5d27_som1_winc1500/production/_ext/1528743604/wdrv_winc_bssfind.o
 .text.WDRV_WINC_BSSFindFirst
                0x00000000      0x120 build/sam_a5d27_som1_winc1500/production/_ext/1528743604/wdrv_winc_bssfind.o
 .text.WDRV_WINC_BSSFindNext
                0x00000000       0x5e build/sam_a5d27_som1_winc1500/production/_ext/1528743604/wdrv_winc_bssfind.o
 .text.WDRV_WINC_BSSFindReset
                0x00000000       0x50 build/sam_a5d27_som1_winc1500/production/_ext/1528743604/wdrv_winc_bssfind.o
 .text.WDRV_WINC_BSSFindGetInfo
                0x00000000       0x5c build/sam_a5d27_som1_winc1500/production/_ext/1528743604/wdrv_winc_bssfind.o
 .text.WDRV_WINC_BSSFindSetScanParameters
                0x00000000       0x84 build/sam_a5d27_som1_winc1500/production/_ext/1528743604/wdrv_winc_bssfind.o
 .text.WDRV_WINC_BSSFindSetRSSIThreshold
                0x00000000       0x2a build/sam_a5d27_som1_winc1500/production/_ext/1528743604/wdrv_winc_bssfind.o
 .text.WDRV_WINC_BSSFindSetEnabledChannels
                0x00000000       0x2e build/sam_a5d27_som1_winc1500/production/_ext/1528743604/wdrv_winc_bssfind.o
 .text.WDRV_WINC_BSSFindSetScanMatchMode
                0x00000000       0x3c build/sam_a5d27_som1_winc1500/production/_ext/1528743604/wdrv_winc_bssfind.o
 .text.WDRV_WINC_BSSFindGetNumBSSResults
                0x00000000       0x2c build/sam_a5d27_som1_winc1500/production/_ext/1528743604/wdrv_winc_bssfind.o
 .text.WDRV_WINC_BSSFindInProgress
                0x00000000       0x1c build/sam_a5d27_som1_winc1500/production/_ext/1528743604/wdrv_winc_bssfind.o
 .debug_info    0x00000000     0x3009 build/sam_a5d27_som1_winc1500/production/_ext/1528743604/wdrv_winc_bssfind.o
 .debug_abbrev  0x00000000      0x335 build/sam_a5d27_som1_winc1500/production/_ext/1528743604/wdrv_winc_bssfind.o
 .debug_loc     0x00000000     0x1197 build/sam_a5d27_som1_winc1500/production/_ext/1528743604/wdrv_winc_bssfind.o
 .debug_aranges
                0x00000000       0x68 build/sam_a5d27_som1_winc1500/production/_ext/1528743604/wdrv_winc_bssfind.o
 .debug_ranges  0x00000000       0x70 build/sam_a5d27_som1_winc1500/production/_ext/1528743604/wdrv_winc_bssfind.o
 .debug_line    0x00000000      0x931 build/sam_a5d27_som1_winc1500/production/_ext/1528743604/wdrv_winc_bssfind.o
 .debug_str     0x00000000      0x138 build/sam_a5d27_som1_winc1500/production/_ext/1528743604/wdrv_winc_bssfind.o
 .comment       0x00000000       0x54 build/sam_a5d27_som1_winc1500/production/_ext/1528743604/wdrv_winc_bssfind.o
 .debug_frame   0x00000000      0x138 build/sam_a5d27_som1_winc1500/production/_ext/1528743604/wdrv_winc_bssfind.o
 .ARM.attributes
                0x00000000       0x39 build/sam_a5d27_som1_winc1500/production/_ext/1528743604/wdrv_winc_bssfind.o
 .text          0x00000000        0x0 build/sam_a5d27_som1_winc1500/production/_ext/1528743604/wdrv_winc_host_file.o
 .data          0x00000000        0x0 build/sam_a5d27_som1_winc1500/production/_ext/1528743604/wdrv_winc_host_file.o
 .bss           0x00000000        0x0 build/sam_a5d27_som1_winc1500/production/_ext/1528743604/wdrv_winc_host_file.o
 .text.WDRV_WINC_HostFileDownload
                0x00000000       0xac build/sam_a5d27_som1_winc1500/production/_ext/1528743604/wdrv_winc_host_file.o
 .text.WDRV_WINC_HostFileErase
                0x00000000       0xa8 build/sam_a5d27_som1_winc1500/production/_ext/1528743604/wdrv_winc_host_file.o
 .text.WDRV_WINC_HostFileFindByID
                0x00000000       0xfc build/sam_a5d27_som1_winc1500/production/_ext/1528743604/wdrv_winc_host_file.o
 .text.WDRV_WINC_HostFileGetSize
                0x00000000       0x40 build/sam_a5d27_som1_winc1500/production/_ext/1528743604/wdrv_winc_host_file.o
 .text.WDRV_WINC_HostFileUpdateReadBuffer
                0x00000000       0x4e build/sam_a5d27_som1_winc1500/production/_ext/1528743604/wdrv_winc_host_file.o
 .text          0x00000000        0x0 build/sam_a5d27_som1_winc1500/production/_ext/1528743604/wdrv_winc_softap.o
 .data          0x00000000        0x0 build/sam_a5d27_som1_winc1500/production/_ext/1528743604/wdrv_winc_softap.o
 .bss           0x00000000        0x0 build/sam_a5d27_som1_winc1500/production/_ext/1528743604/wdrv_winc_softap.o
 .text.WDRV_WINC_APSetCustIE
                0x00000000       0x3c build/sam_a5d27_som1_winc1500/production/_ext/1528743604/wdrv_winc_softap.o
 .text          0x00000000        0x0 build/sam_a5d27_som1_winc1500/production/_ext/1528743604/wdrv_winc_ssl.o
 .data          0x00000000        0x0 build/sam_a5d27_som1_winc1500/production/_ext/1528743604/wdrv_winc_ssl.o
 .bss           0x00000000        0x0 build/sam_a5d27_som1_winc1500/production/_ext/1528743604/wdrv_winc_ssl.o
 .text.WDRV_WINC_SSLCTXDefault
                0x00000000        0xe build/sam_a5d27_som1_winc1500/production/_ext/1528743604/wdrv_winc_ssl.o
 .text.WDRV_WINC_SSLCTXCipherSuitesSet
                0x00000000       0x74 build/sam_a5d27_som1_winc1500/production/_ext/1528743604/wdrv_winc_ssl.o
 .text.WDRV_WINC_SSLCTXCipherSuitesGet
                0x00000000       0x52 build/sam_a5d27_som1_winc1500/production/_ext/1528743604/wdrv_winc_ssl.o
 .text.WDRV_WINC_SSLActiveCipherSuitesSet
                0x00000000       0x38 build/sam_a5d27_som1_winc1500/production/_ext/1528743604/wdrv_winc_ssl.o
 .text.WDRV_WINC_SSLECCReqCallbackSet
                0x00000000       0x24 build/sam_a5d27_som1_winc1500/production/_ext/1528743604/wdrv_winc_ssl.o
 .text.WDRV_WINC_SSLECCHandShakeRsp
                0x00000000      0x174 build/sam_a5d27_som1_winc1500/production/_ext/1528743604/wdrv_winc_ssl.o
 .text.WDRV_WINC_SSLRetrieveCert
                0x00000000       0x7e build/sam_a5d27_som1_winc1500/production/_ext/1528743604/wdrv_winc_ssl.o
 .text.WDRV_WINC_SSLRetrieveHash
                0x00000000       0x28 build/sam_a5d27_som1_winc1500/production/_ext/1528743604/wdrv_winc_ssl.o
 .text.WDRV_WINC_SSLStopRetrieveCert
                0x00000000       0x18 build/sam_a5d27_som1_winc1500/production/_ext/1528743604/wdrv_winc_ssl.o
 .rodata._cipherSuiteMap
                0x00000000       0x40 build/sam_a5d27_som1_winc1500/production/_ext/1528743604/wdrv_winc_ssl.o
 .debug_info    0x00000000     0x37a1 build/sam_a5d27_som1_winc1500/production/_ext/1528743604/wdrv_winc_ssl.o
 .debug_abbrev  0x00000000      0x379 build/sam_a5d27_som1_winc1500/production/_ext/1528743604/wdrv_winc_ssl.o
 .debug_loc     0x00000000      0xf14 build/sam_a5d27_som1_winc1500/production/_ext/1528743604/wdrv_winc_ssl.o
 .debug_aranges
                0x00000000       0x60 build/sam_a5d27_som1_winc1500/production/_ext/1528743604/wdrv_winc_ssl.o
 .debug_ranges  0x00000000       0x50 build/sam_a5d27_som1_winc1500/production/_ext/1528743604/wdrv_winc_ssl.o
 .debug_line    0x00000000      0x7fd build/sam_a5d27_som1_winc1500/production/_ext/1528743604/wdrv_winc_ssl.o
 .debug_str     0x00000000      0x12e build/sam_a5d27_som1_winc1500/production/_ext/1528743604/wdrv_winc_ssl.o
 .comment       0x00000000       0x54 build/sam_a5d27_som1_winc1500/production/_ext/1528743604/wdrv_winc_ssl.o
 .debug_frame   0x00000000      0x134 build/sam_a5d27_som1_winc1500/production/_ext/1528743604/wdrv_winc_ssl.o
 .ARM.attributes
                0x00000000       0x39 build/sam_a5d27_som1_winc1500/production/_ext/1528743604/wdrv_winc_ssl.o
 .text          0x00000000        0x0 build/sam_a5d27_som1_winc1500/production/_ext/1528743604/wdrv_winc_systime.o
 .data          0x00000000        0x0 build/sam_a5d27_som1_winc1500/production/_ext/1528743604/wdrv_winc_systime.o
 .bss           0x00000000        0x0 build/sam_a5d27_som1_winc1500/production/_ext/1528743604/wdrv_winc_systime.o
 .text.WDRV_WINC_UTCToLocalTime
                0x00000000       0x38 build/sam_a5d27_som1_winc1500/production/_ext/1528743604/wdrv_winc_systime.o
 .text.WDRV_WINC_SystemTimeSNTPClientEnable
                0x00000000       0x5a build/sam_a5d27_som1_winc1500/production/_ext/1528743604/wdrv_winc_systime.o
 .text.WDRV_WINC_SystemTimeSNTPClientDisable
                0x00000000       0x26 build/sam_a5d27_som1_winc1500/production/_ext/1528743604/wdrv_winc_systime.o
 .text.WDRV_WINC_SystemTimeSetCurrent
                0x00000000       0x2e build/sam_a5d27_som1_winc1500/production/_ext/1528743604/wdrv_winc_systime.o
 .text.WDRV_WINC_SystemTimeGetCurrent
                0x00000000       0x30 build/sam_a5d27_som1_winc1500/production/_ext/1528743604/wdrv_winc_systime.o
 .text          0x00000000        0x0 build/sam_a5d27_som1_winc1500/production/_ext/1528743604/wdrv_winc_socket.o
 .data          0x00000000        0x0 build/sam_a5d27_som1_winc1500/production/_ext/1528743604/wdrv_winc_socket.o
 .bss           0x00000000        0x0 build/sam_a5d27_som1_winc1500/production/_ext/1528743604/wdrv_winc_socket.o
 .text._WDRV_WINC_OTAInProgress
                0x00000000       0x2a build/sam_a5d27_som1_winc1500/production/_ext/1528743604/wdrv_winc_socket.o
 .text._WDRV_WINC_ICMPEchoResponseCallback
                0x00000000       0x28 build/sam_a5d27_som1_winc1500/production/_ext/1528743604/wdrv_winc_socket.o
 .text.WDRV_WINC_IPAddressSet
                0x00000000       0x3e build/sam_a5d27_som1_winc1500/production/_ext/1528743604/wdrv_winc_socket.o
 .text.WDRV_WINC_IPAddressGet
                0x00000000       0x2c build/sam_a5d27_som1_winc1500/production/_ext/1528743604/wdrv_winc_socket.o
 .text.WDRV_WINC_IPDNSServerAddressSet
                0x00000000       0x32 build/sam_a5d27_som1_winc1500/production/_ext/1528743604/wdrv_winc_socket.o
 .text.WDRV_WINC_IPDefaultGatewaySet
                0x00000000       0x32 build/sam_a5d27_som1_winc1500/production/_ext/1528743604/wdrv_winc_socket.o
 .text.WDRV_WINC_IPUseDHCPGet
                0x00000000       0x2a build/sam_a5d27_som1_winc1500/production/_ext/1528743604/wdrv_winc_socket.o
 .text.WDRV_WINC_IPLinkActive
                0x00000000       0x1a build/sam_a5d27_som1_winc1500/production/_ext/1528743604/wdrv_winc_socket.o
 .text.WDRV_WINC_ICMPEchoRequest
                0x00000000       0x4a build/sam_a5d27_som1_winc1500/production/_ext/1528743604/wdrv_winc_socket.o
 .text.WDRV_WINC_OTAUpdateFromURL
                0x00000000       0x48 build/sam_a5d27_som1_winc1500/production/_ext/1528743604/wdrv_winc_socket.o
 .text.WDRV_WINC_OTAUpdateAbort
                0x00000000       0x36 build/sam_a5d27_som1_winc1500/production/_ext/1528743604/wdrv_winc_socket.o
 .text.WDRV_WINC_OTASSLServerAuthModeSet
                0x00000000       0x48 build/sam_a5d27_som1_winc1500/production/_ext/1528743604/wdrv_winc_socket.o
 .text.WDRV_WINC_OTASSLServerAuthModeIsEnabled
                0x00000000       0x3e build/sam_a5d27_som1_winc1500/production/_ext/1528743604/wdrv_winc_socket.o
 .text.WDRV_WINC_OTASSLSNISet
                0x00000000       0x70 build/sam_a5d27_som1_winc1500/production/_ext/1528743604/wdrv_winc_socket.o
 .text.WDRV_WINC_OTASSLSNIIsEnabled
                0x00000000       0x3e build/sam_a5d27_som1_winc1500/production/_ext/1528743604/wdrv_winc_socket.o
 .text.WDRV_WINC_RollbackActiveFirmwareImage
                0x00000000       0x34 build/sam_a5d27_som1_winc1500/production/_ext/1528743604/wdrv_winc_socket.o
 .text.WDRV_WINC_SwitchActiveFirmwareImage
                0x00000000       0x34 build/sam_a5d27_som1_winc1500/production/_ext/1528743604/wdrv_winc_socket.o
 .text.WDRV_WINC_SocketRegisterResolverCallback
                0x00000000       0x16 build/sam_a5d27_som1_winc1500/production/_ext/1528743604/wdrv_winc_socket.o
 .rodata        0x00000000       0x34 build/sam_a5d27_som1_winc1500/production/_ext/1528743604/wdrv_winc_socket.o
 .bss.optSNINameBlank.12565
                0x00000000        0x1 build/sam_a5d27_som1_winc1500/production/_ext/1528743604/wdrv_winc_socket.o
 .text          0x00000000        0x0 build/sam_a5d27_som1_winc1500/production/_ext/1528743604/wdrv_winc_bssctx.o
 .data          0x00000000        0x0 build/sam_a5d27_som1_winc1500/production/_ext/1528743604/wdrv_winc_bssctx.o
 .bss           0x00000000        0x0 build/sam_a5d27_som1_winc1500/production/_ext/1528743604/wdrv_winc_bssctx.o
 .text.WDRV_WINC_BSSCtxSetBSSID
                0x00000000       0x40 build/sam_a5d27_som1_winc1500/production/_ext/1528743604/wdrv_winc_bssctx.o
 .text.WDRV_WINC_BSSCtxSetSSIDVisibility
                0x00000000       0x20 build/sam_a5d27_som1_winc1500/production/_ext/1528743604/wdrv_winc_bssctx.o
 .text          0x00000000        0x0 build/sam_a5d27_som1_winc1500/production/_ext/1528743604/wdrv_winc_nvm.o
 .data          0x00000000        0x0 build/sam_a5d27_som1_winc1500/production/_ext/1528743604/wdrv_winc_nvm.o
 .bss           0x00000000        0x0 build/sam_a5d27_som1_winc1500/production/_ext/1528743604/wdrv_winc_nvm.o
 .text._WDRV_WINC_NVMCRC7
                0x00000000       0x42 build/sam_a5d27_som1_winc1500/production/_ext/1528743604/wdrv_winc_nvm.o
 .text._WDRV_WINC_NVMFindSection
                0x00000000      0x10c build/sam_a5d27_som1_winc1500/production/_ext/1528743604/wdrv_winc_nvm.o
 .text.WDRV_WINC_NVMEraseSector
                0x00000000       0x96 build/sam_a5d27_som1_winc1500/production/_ext/1528743604/wdrv_winc_nvm.o
 .text.WDRV_WINC_NVMWrite
                0x00000000       0x96 build/sam_a5d27_som1_winc1500/production/_ext/1528743604/wdrv_winc_nvm.o
 .text.WDRV_WINC_NVMRead
                0x00000000       0x8e build/sam_a5d27_som1_winc1500/production/_ext/1528743604/wdrv_winc_nvm.o
 .rodata        0x00000000       0x20 build/sam_a5d27_som1_winc1500/production/_ext/1528743604/wdrv_winc_nvm.o
 .rodata.flashLocationIDMap
                0x00000000       0x18 build/sam_a5d27_som1_winc1500/production/_ext/1528743604/wdrv_winc_nvm.o
 .debug_info    0x00000000     0x3904 build/sam_a5d27_som1_winc1500/production/_ext/1528743604/wdrv_winc_nvm.o
 .debug_abbrev  0x00000000      0x39a build/sam_a5d27_som1_winc1500/production/_ext/1528743604/wdrv_winc_nvm.o
 .debug_loc     0x00000000      0xbde build/sam_a5d27_som1_winc1500/production/_ext/1528743604/wdrv_winc_nvm.o
 .debug_aranges
                0x00000000       0x40 build/sam_a5d27_som1_winc1500/production/_ext/1528743604/wdrv_winc_nvm.o
 .debug_ranges  0x00000000       0x30 build/sam_a5d27_som1_winc1500/production/_ext/1528743604/wdrv_winc_nvm.o
 .debug_line    0x00000000      0x845 build/sam_a5d27_som1_winc1500/production/_ext/1528743604/wdrv_winc_nvm.o
 .debug_str     0x00000000      0x157 build/sam_a5d27_som1_winc1500/production/_ext/1528743604/wdrv_winc_nvm.o
 .comment       0x00000000       0x54 build/sam_a5d27_som1_winc1500/production/_ext/1528743604/wdrv_winc_nvm.o
 .debug_frame   0x00000000       0xd8 build/sam_a5d27_som1_winc1500/production/_ext/1528743604/wdrv_winc_nvm.o
 .ARM.attributes
                0x00000000       0x39 build/sam_a5d27_som1_winc1500/production/_ext/1528743604/wdrv_winc_nvm.o
 .text          0x00000000        0x0 build/sam_a5d27_som1_winc1500/production/_ext/1528743604/wdrv_winc_custie.o
 .data          0x00000000        0x0 build/sam_a5d27_som1_winc1500/production/_ext/1528743604/wdrv_winc_custie.o
 .bss           0x00000000        0x0 build/sam_a5d27_som1_winc1500/production/_ext/1528743604/wdrv_winc_custie.o
 .text.WDRV_WINC_CustIEStoreCtxSetStorage
                0x00000000       0x2e build/sam_a5d27_som1_winc1500/production/_ext/1528743604/wdrv_winc_custie.o
 .text.WDRV_WINC_CustIEStoreCtxAddIE
                0x00000000       0x5c build/sam_a5d27_som1_winc1500/production/_ext/1528743604/wdrv_winc_custie.o
 .text.WDRV_WINC_CustIEStoreCtxRemoveIE
                0x00000000       0x72 build/sam_a5d27_som1_winc1500/production/_ext/1528743604/wdrv_winc_custie.o
 .debug_info    0x00000000      0xabe build/sam_a5d27_som1_winc1500/production/_ext/1528743604/wdrv_winc_custie.o
 .debug_abbrev  0x00000000      0x163 build/sam_a5d27_som1_winc1500/production/_ext/1528743604/wdrv_winc_custie.o
 .debug_loc     0x00000000      0x3d2 build/sam_a5d27_som1_winc1500/production/_ext/1528743604/wdrv_winc_custie.o
 .debug_aranges
                0x00000000       0x30 build/sam_a5d27_som1_winc1500/production/_ext/1528743604/wdrv_winc_custie.o
 .debug_ranges  0x00000000       0x20 build/sam_a5d27_som1_winc1500/production/_ext/1528743604/wdrv_winc_custie.o
 .debug_line    0x00000000      0x3d8 build/sam_a5d27_som1_winc1500/production/_ext/1528743604/wdrv_winc_custie.o
 .debug_str     0x00000000       0x16 build/sam_a5d27_som1_winc1500/production/_ext/1528743604/wdrv_winc_custie.o
 .comment       0x00000000       0x54 build/sam_a5d27_som1_winc1500/production/_ext/1528743604/wdrv_winc_custie.o
 .debug_frame   0x00000000       0xa4 build/sam_a5d27_som1_winc1500/production/_ext/1528743604/wdrv_winc_custie.o
 .ARM.attributes
                0x00000000       0x39 build/sam_a5d27_som1_winc1500/production/_ext/1528743604/wdrv_winc_custie.o
 .text          0x00000000        0x0 build/sam_a5d27_som1_winc1500/production/_ext/1528743604/wdrv_winc_httpprovctx.o
 .data          0x00000000        0x0 build/sam_a5d27_som1_winc1500/production/_ext/1528743604/wdrv_winc_httpprovctx.o
 .bss           0x00000000        0x0 build/sam_a5d27_som1_winc1500/production/_ext/1528743604/wdrv_winc_httpprovctx.o
 .text.WDRV_WINC_HTTPProvCtxSetDefaults
                0x00000000       0x14 build/sam_a5d27_som1_winc1500/production/_ext/1528743604/wdrv_winc_httpprovctx.o
 .text.WDRV_WINC_HTTPProvCtxSetDomainName
                0x00000000       0x36 build/sam_a5d27_som1_winc1500/production/_ext/1528743604/wdrv_winc_httpprovctx.o
 .text.WDRV_WINC_HTTPProvCtxSetURLWildcard
                0x00000000        0xc build/sam_a5d27_som1_winc1500/production/_ext/1528743604/wdrv_winc_httpprovctx.o
 .text.WDRV_WINC_HTTPProvCtxSetConnectCallback
                0x00000000        0xc build/sam_a5d27_som1_winc1500/production/_ext/1528743604/wdrv_winc_httpprovctx.o
 .debug_info    0x00000000      0xe59 build/sam_a5d27_som1_winc1500/production/_ext/1528743604/wdrv_winc_httpprovctx.o
 .debug_abbrev  0x00000000      0x211 build/sam_a5d27_som1_winc1500/production/_ext/1528743604/wdrv_winc_httpprovctx.o
 .debug_loc     0x00000000      0x1db build/sam_a5d27_som1_winc1500/production/_ext/1528743604/wdrv_winc_httpprovctx.o
 .debug_aranges
                0x00000000       0x38 build/sam_a5d27_som1_winc1500/production/_ext/1528743604/wdrv_winc_httpprovctx.o
 .debug_ranges  0x00000000       0x28 build/sam_a5d27_som1_winc1500/production/_ext/1528743604/wdrv_winc_httpprovctx.o
 .debug_line    0x00000000      0x390 build/sam_a5d27_som1_winc1500/production/_ext/1528743604/wdrv_winc_httpprovctx.o
 .debug_str     0x00000000       0x5a build/sam_a5d27_som1_winc1500/production/_ext/1528743604/wdrv_winc_httpprovctx.o
 .comment       0x00000000       0x54 build/sam_a5d27_som1_winc1500/production/_ext/1528743604/wdrv_winc_httpprovctx.o
 .debug_frame   0x00000000       0x70 build/sam_a5d27_som1_winc1500/production/_ext/1528743604/wdrv_winc_httpprovctx.o
 .ARM.attributes
                0x00000000       0x39 build/sam_a5d27_som1_winc1500/production/_ext/1528743604/wdrv_winc_httpprovctx.o
 .text          0x00000000        0x0 build/sam_a5d27_som1_winc1500/production/_ext/1528743604/wdrv_winc_enterprise.o
 .data          0x00000000        0x0 build/sam_a5d27_som1_winc1500/production/_ext/1528743604/wdrv_winc_enterprise.o
 .bss           0x00000000        0x0 build/sam_a5d27_som1_winc1500/production/_ext/1528743604/wdrv_winc_enterprise.o
 .text.WDRV_WINC_EntSec802_1XServerAuthSet
                0x00000000       0x38 build/sam_a5d27_som1_winc1500/production/_ext/1528743604/wdrv_winc_enterprise.o
 .text.WDRV_WINC_EntSec802_1XServerAuthGet
                0x00000000       0x3a build/sam_a5d27_som1_winc1500/production/_ext/1528743604/wdrv_winc_enterprise.o
 .text.WDRV_WINC_EntSec802_1XRootCertHashSet
                0x00000000       0x2e build/sam_a5d27_som1_winc1500/production/_ext/1528743604/wdrv_winc_enterprise.o
 .text.WDRV_WINC_EntSec802_1XRootCertHashGet
                0x00000000       0x40 build/sam_a5d27_som1_winc1500/production/_ext/1528743604/wdrv_winc_enterprise.o
 .text.WDRV_WINC_EntSec802_1XCertExpCheckSet
                0x00000000       0x58 build/sam_a5d27_som1_winc1500/production/_ext/1528743604/wdrv_winc_enterprise.o
 .text.WDRV_WINC_EntSec802_1XCertExpCheckGet
                0x00000000       0x50 build/sam_a5d27_som1_winc1500/production/_ext/1528743604/wdrv_winc_enterprise.o
 .text.WDRV_WINC_EntSec802_1XSessionCacheSet
                0x00000000       0x34 build/sam_a5d27_som1_winc1500/production/_ext/1528743604/wdrv_winc_enterprise.o
 .text.WDRV_WINC_EntSec802_1XSessionCache
                0x00000000       0x3a build/sam_a5d27_som1_winc1500/production/_ext/1528743604/wdrv_winc_enterprise.o
 .debug_info    0x00000000     0x2bc6 build/sam_a5d27_som1_winc1500/production/_ext/1528743604/wdrv_winc_enterprise.o
 .debug_abbrev  0x00000000      0x2d2 build/sam_a5d27_som1_winc1500/production/_ext/1528743604/wdrv_winc_enterprise.o
 .debug_loc     0x00000000      0x9e9 build/sam_a5d27_som1_winc1500/production/_ext/1528743604/wdrv_winc_enterprise.o
 .debug_aranges
                0x00000000       0x58 build/sam_a5d27_som1_winc1500/production/_ext/1528743604/wdrv_winc_enterprise.o
 .debug_ranges  0x00000000       0x48 build/sam_a5d27_som1_winc1500/production/_ext/1528743604/wdrv_winc_enterprise.o
 .debug_line    0x00000000      0x6c5 build/sam_a5d27_som1_winc1500/production/_ext/1528743604/wdrv_winc_enterprise.o
 .debug_str     0x00000000       0x9e build/sam_a5d27_som1_winc1500/production/_ext/1528743604/wdrv_winc_enterprise.o
 .comment       0x00000000       0x54 build/sam_a5d27_som1_winc1500/production/_ext/1528743604/wdrv_winc_enterprise.o
 .debug_frame   0x00000000      0x118 build/sam_a5d27_som1_winc1500/production/_ext/1528743604/wdrv_winc_enterprise.o
 .ARM.attributes
                0x00000000       0x39 build/sam_a5d27_som1_winc1500/production/_ext/1528743604/wdrv_winc_enterprise.o
 .text          0x00000000        0x0 build/sam_a5d27_som1_winc1500/production/_ext/1528743604/wdrv_winc_powersave.o
 .data          0x00000000        0x0 build/sam_a5d27_som1_winc1500/production/_ext/1528743604/wdrv_winc_powersave.o
 .bss           0x00000000        0x0 build/sam_a5d27_som1_winc1500/production/_ext/1528743604/wdrv_winc_powersave.o
 .text.WDRV_WINC_PowerSaveSetMode
                0x00000000       0x3a build/sam_a5d27_som1_winc1500/production/_ext/1528743604/wdrv_winc_powersave.o
 .text.WDRV_WINC_PowerSaveGetMode
                0x00000000       0x22 build/sam_a5d27_som1_winc1500/production/_ext/1528743604/wdrv_winc_powersave.o
 .text.WDRV_WINC_PowerSaveSetBeaconInterval
                0x00000000       0x70 build/sam_a5d27_som1_winc1500/production/_ext/1528743604/wdrv_winc_powersave.o
 .text.WDRV_WINC_PowerSaveManualSleep
                0x00000000       0x26 build/sam_a5d27_som1_winc1500/production/_ext/1528743604/wdrv_winc_powersave.o
 .debug_info    0x00000000     0x27fa build/sam_a5d27_som1_winc1500/production/_ext/1528743604/wdrv_winc_powersave.o
 .debug_abbrev  0x00000000      0x260 build/sam_a5d27_som1_winc1500/production/_ext/1528743604/wdrv_winc_powersave.o
 .debug_loc     0x00000000      0x542 build/sam_a5d27_som1_winc1500/production/_ext/1528743604/wdrv_winc_powersave.o
 .debug_aranges
                0x00000000       0x38 build/sam_a5d27_som1_winc1500/production/_ext/1528743604/wdrv_winc_powersave.o
 .debug_ranges  0x00000000       0x28 build/sam_a5d27_som1_winc1500/production/_ext/1528743604/wdrv_winc_powersave.o
 .debug_line    0x00000000      0x559 build/sam_a5d27_som1_winc1500/production/_ext/1528743604/wdrv_winc_powersave.o
 .debug_str     0x00000000       0xa9 build/sam_a5d27_som1_winc1500/production/_ext/1528743604/wdrv_winc_powersave.o
 .comment       0x00000000       0x54 build/sam_a5d27_som1_winc1500/production/_ext/1528743604/wdrv_winc_powersave.o
 .debug_frame   0x00000000       0x88 build/sam_a5d27_som1_winc1500/production/_ext/1528743604/wdrv_winc_powersave.o
 .ARM.attributes
                0x00000000       0x39 build/sam_a5d27_som1_winc1500/production/_ext/1528743604/wdrv_winc_powersave.o
 .text          0x00000000        0x0 build/sam_a5d27_som1_winc1500/production/_ext/1528743604/wdrv_winc.o
 .data          0x00000000        0x0 build/sam_a5d27_som1_winc1500/production/_ext/1528743604/wdrv_winc.o
 .bss           0x00000000        0x0 build/sam_a5d27_som1_winc1500/production/_ext/1528743604/wdrv_winc.o
 .text.WDRV_WINC_Deinitialize
                0x00000000       0x64 build/sam_a5d27_som1_winc1500/production/_ext/1528743604/wdrv_winc.o
 .text.WDRV_WINC_Reinitialize
                0x00000000        0x2 build/sam_a5d27_som1_winc1500/production/_ext/1528743604/wdrv_winc.o
 .text.WDRV_WINC_StatusExt
                0x00000000       0x26 build/sam_a5d27_som1_winc1500/production/_ext/1528743604/wdrv_winc.o
 .text.WDRV_WINC_Close
                0x00000000       0x24 build/sam_a5d27_som1_winc1500/production/_ext/1528743604/wdrv_winc.o
 .text.WDRV_WINC_MulticastMACFilterAdd
                0x00000000       0x26 build/sam_a5d27_som1_winc1500/production/_ext/1528743604/wdrv_winc.o
 .text.WDRV_WINC_MulticastMACFilterRemove
                0x00000000       0x26 build/sam_a5d27_som1_winc1500/production/_ext/1528743604/wdrv_winc.o
 .text.WDRV_WINC_EthernetAddressGet
                0x00000000       0x28 build/sam_a5d27_som1_winc1500/production/_ext/1528743604/wdrv_winc.o
 .text.WDRV_WINC_OperatingModeGet
                0x00000000       0x28 build/sam_a5d27_som1_winc1500/production/_ext/1528743604/wdrv_winc.o
 .text.WDRV_WINC_UserHandleSet
                0x00000000       0x22 build/sam_a5d27_som1_winc1500/production/_ext/1528743604/wdrv_winc.o
 .text.WDRV_WINC_UserHandleGet
                0x00000000       0x20 build/sam_a5d27_som1_winc1500/production/_ext/1528743604/wdrv_winc.o
 .text.WDRV_WINC_InfoDriverVersionGet
                0x00000000       0x2e build/sam_a5d27_som1_winc1500/production/_ext/1528743604/wdrv_winc.o
 .text.WDRV_WINC_InfoDeviceFirmwareVersionGet
                0x00000000       0x90 build/sam_a5d27_som1_winc1500/production/_ext/1528743604/wdrv_winc.o
 .text.WDRV_WINC_InfoDeviceIDGet
                0x00000000       0x1c build/sam_a5d27_som1_winc1500/production/_ext/1528743604/wdrv_winc.o
 .text.WDRV_WINC_InfoDeviceMACAddressGet
                0x00000000       0x48 build/sam_a5d27_som1_winc1500/production/_ext/1528743604/wdrv_winc.o
 .text.WDRV_WINC_InfoDeviceNameSet
                0x00000000       0x36 build/sam_a5d27_som1_winc1500/production/_ext/1528743604/wdrv_winc.o
 .text.WDRV_WINC_GainTableIndexSet
                0x00000000       0x26 build/sam_a5d27_som1_winc1500/production/_ext/1528743604/wdrv_winc.o
 .text.WDRV_WINC_AutoRateSelectTransmitRate
                0x00000000       0x82 build/sam_a5d27_som1_winc1500/production/_ext/1528743604/wdrv_winc.o
 .rodata.arRateTranslateTable
                0x00000000       0x18 build/sam_a5d27_som1_winc1500/production/_ext/1528743604/wdrv_winc.o
 .text          0x00000000        0x0 build/sam_a5d27_som1_winc1500/production/_ext/1528743604/wdrv_winc_assoc.o
 .data          0x00000000        0x0 build/sam_a5d27_som1_winc1500/production/_ext/1528743604/wdrv_winc_assoc.o
 .bss           0x00000000        0x0 build/sam_a5d27_som1_winc1500/production/_ext/1528743604/wdrv_winc_assoc.o
 .text.WDRV_WINC_AssocSSIDGet
                0x00000000       0x68 build/sam_a5d27_som1_winc1500/production/_ext/1528743604/wdrv_winc_assoc.o
 .text.WDRV_WINC_AssocPeerAddressGet
                0x00000000       0x54 build/sam_a5d27_som1_winc1500/production/_ext/1528743604/wdrv_winc_assoc.o
 .text.WDRV_WINC_AssocAuthTypeGet
                0x00000000       0x4c build/sam_a5d27_som1_winc1500/production/_ext/1528743604/wdrv_winc_assoc.o
 .text.WDRV_WINC_AssocRSSIGet
                0x00000000       0x52 build/sam_a5d27_som1_winc1500/production/_ext/1528743604/wdrv_winc_assoc.o
 .text.WDRV_WINC_AssocDisconnect
                0x00000000       0x24 build/sam_a5d27_som1_winc1500/production/_ext/1528743604/wdrv_winc_assoc.o
 .debug_info    0x00000000     0x273c build/sam_a5d27_som1_winc1500/production/_ext/1528743604/wdrv_winc_assoc.o
 .debug_abbrev  0x00000000      0x299 build/sam_a5d27_som1_winc1500/production/_ext/1528743604/wdrv_winc_assoc.o
 .debug_loc     0x00000000      0x980 build/sam_a5d27_som1_winc1500/production/_ext/1528743604/wdrv_winc_assoc.o
 .debug_aranges
                0x00000000       0x40 build/sam_a5d27_som1_winc1500/production/_ext/1528743604/wdrv_winc_assoc.o
 .debug_ranges  0x00000000       0x30 build/sam_a5d27_som1_winc1500/production/_ext/1528743604/wdrv_winc_assoc.o
 .debug_line    0x00000000      0x646 build/sam_a5d27_som1_winc1500/production/_ext/1528743604/wdrv_winc_assoc.o
 .debug_str     0x00000000       0xc6 build/sam_a5d27_som1_winc1500/production/_ext/1528743604/wdrv_winc_assoc.o
 .comment       0x00000000       0x54 build/sam_a5d27_som1_winc1500/production/_ext/1528743604/wdrv_winc_assoc.o
 .debug_frame   0x00000000       0xc4 build/sam_a5d27_som1_winc1500/production/_ext/1528743604/wdrv_winc_assoc.o
 .ARM.attributes
                0x00000000       0x39 build/sam_a5d27_som1_winc1500/production/_ext/1528743604/wdrv_winc_assoc.o
 .text          0x00000000        0x0 build/sam_a5d27_som1_winc1500/production/_ext/192068182/plib_aic.o
 .data          0x00000000        0x0 build/sam_a5d27_som1_winc1500/production/_ext/192068182/plib_aic.o
 .bss           0x00000000        0x0 build/sam_a5d27_som1_winc1500/production/_ext/192068182/plib_aic.o
 .text.AIC_INT_IrqEnable
                0x00000000        0x8 build/sam_a5d27_som1_winc1500/production/_ext/192068182/plib_aic.o
 .text          0x00000000        0x0 build/sam_a5d27_som1_winc1500/production/_ext/192066159/plib_clk.o
 .data          0x00000000        0x0 build/sam_a5d27_som1_winc1500/production/_ext/192066159/plib_clk.o
 .bss           0x00000000        0x0 build/sam_a5d27_som1_winc1500/production/_ext/192066159/plib_clk.o
 .text          0x00000000        0x0 build/sam_a5d27_som1_winc1500/production/_ext/1834821283/plib_flexcom4_spi_master.o
 .data          0x00000000        0x0 build/sam_a5d27_som1_winc1500/production/_ext/1834821283/plib_flexcom4_spi_master.o
 .bss           0x00000000        0x0 build/sam_a5d27_som1_winc1500/production/_ext/1834821283/plib_flexcom4_spi_master.o
 .text.FLEXCOM4_SPI_Write
                0x00000000        0xc build/sam_a5d27_som1_winc1500/production/_ext/1834821283/plib_flexcom4_spi_master.o
 .text.FLEXCOM4_SPI_Read
                0x00000000       0x10 build/sam_a5d27_som1_winc1500/production/_ext/1834821283/plib_flexcom4_spi_master.o
 .text.FLEXCOM4_SPI_IsBusy
                0x00000000       0x26 build/sam_a5d27_som1_winc1500/production/_ext/1834821283/plib_flexcom4_spi_master.o
 .text          0x00000000        0x0 build/sam_a5d27_som1_winc1500/production/_ext/669990670/plib_matrix.o
 .data          0x00000000        0x0 build/sam_a5d27_som1_winc1500/production/_ext/669990670/plib_matrix.o
 .bss           0x00000000        0x0 build/sam_a5d27_som1_winc1500/production/_ext/669990670/plib_matrix.o
 .text          0x00000000        0x0 build/sam_a5d27_som1_winc1500/production/_ext/192056508/plib_mmu.o
 .data          0x00000000        0x0 build/sam_a5d27_som1_winc1500/production/_ext/192056508/plib_mmu.o
 .bss           0x00000000        0x0 build/sam_a5d27_som1_winc1500/production/_ext/192056508/plib_mmu.o
 .text.icache_InvalidateAll
                0x00000000       0x10 build/sam_a5d27_som1_winc1500/production/_ext/192056508/plib_mmu.o
 .text.icache_Disable
                0x00000000       0x22 build/sam_a5d27_som1_winc1500/production/_ext/192056508/plib_mmu.o
 .text          0x00000000        0x0 build/sam_a5d27_som1_winc1500/production/_ext/192053755/plib_pio.o
 .data          0x00000000        0x0 build/sam_a5d27_som1_winc1500/production/_ext/192053755/plib_pio.o
 .bss           0x00000000        0x0 build/sam_a5d27_som1_winc1500/production/_ext/192053755/plib_pio.o
 .text.PIO_PortRead
                0x00000000        0xe build/sam_a5d27_som1_winc1500/production/_ext/192053755/plib_pio.o
 .text.PIO_PortWrite
                0x00000000       0x18 build/sam_a5d27_som1_winc1500/production/_ext/192053755/plib_pio.o
 .text.PIO_PortLatchRead
                0x00000000        0xe build/sam_a5d27_som1_winc1500/production/_ext/192053755/plib_pio.o
 .text.PIO_PortToggle
                0x00000000       0x1c build/sam_a5d27_som1_winc1500/production/_ext/192053755/plib_pio.o
 .text.PIO_PortInputEnable
                0x00000000       0x16 build/sam_a5d27_som1_winc1500/production/_ext/192053755/plib_pio.o
 .text.PIO_PortOutputEnable
                0x00000000       0x16 build/sam_a5d27_som1_winc1500/production/_ext/192053755/plib_pio.o
 .text          0x00000000        0x0 build/sam_a5d27_som1_winc1500/production/_ext/6195168/plib_tc0.o
 .data          0x00000000        0x0 build/sam_a5d27_som1_winc1500/production/_ext/6195168/plib_tc0.o
 .bss           0x00000000        0x0 build/sam_a5d27_som1_winc1500/production/_ext/6195168/plib_tc0.o
 .text.TC0_CH0_TimerPeriodGet
                0x00000000        0xc build/sam_a5d27_som1_winc1500/production/_ext/6195168/plib_tc0.o
 .text          0x00000000        0x0 build/sam_a5d27_som1_winc1500/production/_ext/1658557633/plib_uart1.o
 .data          0x00000000        0x0 build/sam_a5d27_som1_winc1500/production/_ext/1658557633/plib_uart1.o
 .bss           0x00000000        0x0 build/sam_a5d27_som1_winc1500/production/_ext/1658557633/plib_uart1.o
 .text.UART1_SerialSetup
                0x00000000       0x46 build/sam_a5d27_som1_winc1500/production/_ext/1658557633/plib_uart1.o
 .text.UART1_ErrorGet
                0x00000000       0x36 build/sam_a5d27_som1_winc1500/production/_ext/1658557633/plib_uart1.o
 .text.UART1_ReadBufferSizeGet
                0x00000000        0x4 build/sam_a5d27_som1_winc1500/production/_ext/1658557633/plib_uart1.o
 .text.UART1_ReadNotificationEnable
                0x00000000       0x18 build/sam_a5d27_som1_winc1500/production/_ext/1658557633/plib_uart1.o
 .text.UART1_ReadThresholdSet
                0x00000000        0xe build/sam_a5d27_som1_winc1500/production/_ext/1658557633/plib_uart1.o
 .text.UART1_ReadCallbackRegister
                0x00000000        0xe build/sam_a5d27_som1_winc1500/production/_ext/1658557633/plib_uart1.o
 .text.UART1_WriteBufferSizeGet
                0x00000000        0x6 build/sam_a5d27_som1_winc1500/production/_ext/1658557633/plib_uart1.o
 .text.UART1_TransmitComplete
                0x00000000        0xe build/sam_a5d27_som1_winc1500/production/_ext/1658557633/plib_uart1.o
 .text.UART1_WriteNotificationEnable
                0x00000000       0x12 build/sam_a5d27_som1_winc1500/production/_ext/1658557633/plib_uart1.o
 .text.UART1_WriteThresholdSet
                0x00000000        0xe build/sam_a5d27_som1_winc1500/production/_ext/1658557633/plib_uart1.o
 .text.UART1_WriteCallbackRegister
                0x00000000        0xe build/sam_a5d27_som1_winc1500/production/_ext/1658557633/plib_uart1.o
 .text          0x00000000        0x0 build/sam_a5d27_som1_winc1500/production/_ext/127175570/plib_xdmac0.o
 .data          0x00000000        0x0 build/sam_a5d27_som1_winc1500/production/_ext/127175570/plib_xdmac0.o
 .bss           0x00000000        0x0 build/sam_a5d27_som1_winc1500/production/_ext/127175570/plib_xdmac0.o
 .text.XDMAC0_ChannelIsBusy
                0x00000000       0x28 build/sam_a5d27_som1_winc1500/production/_ext/127175570/plib_xdmac0.o
 .text.XDMAC0_ChannelTransferStatusGet
                0x00000000       0x1a build/sam_a5d27_som1_winc1500/production/_ext/127175570/plib_xdmac0.o
 .text.XDMAC0_ChannelDisable
                0x00000000       0x1e build/sam_a5d27_som1_winc1500/production/_ext/127175570/plib_xdmac0.o
 .text.XDMAC0_ChannelBlockLengthSet
                0x00000000       0x14 build/sam_a5d27_som1_winc1500/production/_ext/127175570/plib_xdmac0.o
 .text.XDMAC0_ChannelSuspend
                0x00000000       0x10 build/sam_a5d27_som1_winc1500/production/_ext/127175570/plib_xdmac0.o
 .text.XDMAC0_ChannelResume
                0x00000000       0x10 build/sam_a5d27_som1_winc1500/production/_ext/127175570/plib_xdmac0.o
 .text          0x00000000        0x0 build/sam_a5d27_som1_winc1500/production/_ext/149286087/xc32_monitor.o
 .data          0x00000000        0x0 build/sam_a5d27_som1_winc1500/production/_ext/149286087/xc32_monitor.o
 .bss           0x00000000        0x0 build/sam_a5d27_som1_winc1500/production/_ext/149286087/xc32_monitor.o
 .text.read     0x00000000        0x6 build/sam_a5d27_som1_winc1500/production/_ext/149286087/xc32_monitor.o
 .text.write    0x00000000        0x6 build/sam_a5d27_som1_winc1500/production/_ext/149286087/xc32_monitor.o
 .debug_info    0x00000000      0x36d build/sam_a5d27_som1_winc1500/production/_ext/149286087/xc32_monitor.o
 .debug_abbrev  0x00000000       0x96 build/sam_a5d27_som1_winc1500/production/_ext/149286087/xc32_monitor.o
 .debug_loc     0x00000000       0x4a build/sam_a5d27_som1_winc1500/production/_ext/149286087/xc32_monitor.o
 .debug_aranges
                0x00000000       0x28 build/sam_a5d27_som1_winc1500/production/_ext/149286087/xc32_monitor.o
 .debug_ranges  0x00000000       0x18 build/sam_a5d27_som1_winc1500/production/_ext/149286087/xc32_monitor.o
 .debug_line    0x00000000       0xda build/sam_a5d27_som1_winc1500/production/_ext/149286087/xc32_monitor.o
 .debug_str     0x00000000        0x0 build/sam_a5d27_som1_winc1500/production/_ext/149286087/xc32_monitor.o
 .comment       0x00000000       0x54 build/sam_a5d27_som1_winc1500/production/_ext/149286087/xc32_monitor.o
 .debug_frame   0x00000000       0x30 build/sam_a5d27_som1_winc1500/production/_ext/149286087/xc32_monitor.o
 .ARM.attributes
                0x00000000       0x39 build/sam_a5d27_som1_winc1500/production/_ext/149286087/xc32_monitor.o
 .text          0x00000000        0x0 build/sam_a5d27_som1_winc1500/production/_ext/710391900/sys_cache.o
 .data          0x00000000        0x0 build/sam_a5d27_som1_winc1500/production/_ext/710391900/sys_cache.o
 .bss           0x00000000        0x0 build/sam_a5d27_som1_winc1500/production/_ext/710391900/sys_cache.o
 .text.SYS_CACHE_EnableCaches
                0x00000000        0x8 build/sam_a5d27_som1_winc1500/production/_ext/710391900/sys_cache.o
 .text.SYS_CACHE_DisableCaches
                0x00000000        0x8 build/sam_a5d27_som1_winc1500/production/_ext/710391900/sys_cache.o
 .text.SYS_CACHE_EnableICache
                0x00000000        0x8 build/sam_a5d27_som1_winc1500/production/_ext/710391900/sys_cache.o
 .text.SYS_CACHE_DisableICache
                0x00000000        0x8 build/sam_a5d27_som1_winc1500/production/_ext/710391900/sys_cache.o
 .text.SYS_CACHE_InvalidateICache
                0x00000000       0x10 build/sam_a5d27_som1_winc1500/production/_ext/710391900/sys_cache.o
 .text.SYS_CACHE_EnableDCache
                0x00000000        0x2 build/sam_a5d27_som1_winc1500/production/_ext/710391900/sys_cache.o
 .text.SYS_CACHE_DisableDCache
                0x00000000        0x2 build/sam_a5d27_som1_winc1500/production/_ext/710391900/sys_cache.o
 .text.SYS_CACHE_InvalidateDCache
                0x00000000        0x2 build/sam_a5d27_som1_winc1500/production/_ext/710391900/sys_cache.o
 .text.SYS_CACHE_CleanDCache
                0x00000000        0x2 build/sam_a5d27_som1_winc1500/production/_ext/710391900/sys_cache.o
 .text.SYS_CACHE_CleanInvalidateDCache
                0x00000000        0x2 build/sam_a5d27_som1_winc1500/production/_ext/710391900/sys_cache.o
 .text.SYS_CACHE_InvalidateDCache_by_Addr
                0x00000000        0x2 build/sam_a5d27_som1_winc1500/production/_ext/710391900/sys_cache.o
 .text.SYS_CACHE_CleanDCache_by_Addr
                0x00000000        0x2 build/sam_a5d27_som1_winc1500/production/_ext/710391900/sys_cache.o
 .text.SYS_CACHE_CleanInvalidateDCache_by_Addr
                0x00000000        0x2 build/sam_a5d27_som1_winc1500/production/_ext/710391900/sys_cache.o
 .debug_info    0x00000000      0x73d build/sam_a5d27_som1_winc1500/production/_ext/710391900/sys_cache.o
 .debug_abbrev  0x00000000      0x14b build/sam_a5d27_som1_winc1500/production/_ext/710391900/sys_cache.o
 .debug_loc     0x00000000       0x96 build/sam_a5d27_som1_winc1500/production/_ext/710391900/sys_cache.o
 .debug_aranges
                0x00000000       0x80 build/sam_a5d27_som1_winc1500/production/_ext/710391900/sys_cache.o
 .debug_ranges  0x00000000       0x98 build/sam_a5d27_som1_winc1500/production/_ext/710391900/sys_cache.o
 .debug_line    0x00000000      0x2cd build/sam_a5d27_som1_winc1500/production/_ext/710391900/sys_cache.o
 .debug_str     0x00000000       0x1d build/sam_a5d27_som1_winc1500/production/_ext/710391900/sys_cache.o
 .comment       0x00000000       0x54 build/sam_a5d27_som1_winc1500/production/_ext/710391900/sys_cache.o
 .debug_frame   0x00000000      0x100 build/sam_a5d27_som1_winc1500/production/_ext/710391900/sys_cache.o
 .ARM.attributes
                0x00000000       0x39 build/sam_a5d27_som1_winc1500/production/_ext/710391900/sys_cache.o
 .text          0x00000000        0x0 build/sam_a5d27_som1_winc1500/production/_ext/1238961202/sys_console.o
 .data          0x00000000        0x0 build/sam_a5d27_som1_winc1500/production/_ext/1238961202/sys_console.o
 .bss           0x00000000        0x0 build/sam_a5d27_som1_winc1500/production/_ext/1238961202/sys_console.o
 .text.SYS_CONSOLE_Status
                0x00000000       0x54 build/sam_a5d27_som1_winc1500/production/_ext/1238961202/sys_console.o
 .text.SYS_CONSOLE_DeviceGet
                0x00000000       0x1a build/sam_a5d27_som1_winc1500/production/_ext/1238961202/sys_console.o
 .text.SYS_CONSOLE_Tasks
                0x00000000       0x2c build/sam_a5d27_som1_winc1500/production/_ext/1238961202/sys_console.o
 .text.SYS_CONSOLE_Read
                0x00000000       0x40 build/sam_a5d27_som1_winc1500/production/_ext/1238961202/sys_console.o
 .text.SYS_CONSOLE_ReadFreeBufferCountGet
                0x00000000       0x40 build/sam_a5d27_som1_winc1500/production/_ext/1238961202/sys_console.o
 .text.SYS_CONSOLE_ReadCountGet
                0x00000000       0x40 build/sam_a5d27_som1_winc1500/production/_ext/1238961202/sys_console.o
 .text.SYS_CONSOLE_Write
                0x00000000       0x40 build/sam_a5d27_som1_winc1500/production/_ext/1238961202/sys_console.o
 .text.SYS_CONSOLE_WriteFreeBufferCountGet
                0x00000000       0x40 build/sam_a5d27_som1_winc1500/production/_ext/1238961202/sys_console.o
 .text.SYS_CONSOLE_WriteCountGet
                0x00000000       0x40 build/sam_a5d27_som1_winc1500/production/_ext/1238961202/sys_console.o
 .text.SYS_CONSOLE_Flush
                0x00000000       0x3a build/sam_a5d27_som1_winc1500/production/_ext/1238961202/sys_console.o
 .text          0x00000000        0x0 build/sam_a5d27_som1_winc1500/production/_ext/1238961202/sys_console_uart.o
 .data          0x00000000        0x0 build/sam_a5d27_som1_winc1500/production/_ext/1238961202/sys_console_uart.o
 .bss           0x00000000        0x0 build/sam_a5d27_som1_winc1500/production/_ext/1238961202/sys_console_uart.o
 .text          0x00000000        0x0 build/sam_a5d27_som1_winc1500/production/_ext/931592374/sys_debug.o
 .data          0x00000000        0x0 build/sam_a5d27_som1_winc1500/production/_ext/931592374/sys_debug.o
 .bss           0x00000000        0x0 build/sam_a5d27_som1_winc1500/production/_ext/931592374/sys_debug.o
 .text.SYS_DEBUG_Status
                0x00000000        0xe build/sam_a5d27_som1_winc1500/production/_ext/931592374/sys_debug.o
 .text.SYS_DEBUG_ErrorLevelSet
                0x00000000        0xc build/sam_a5d27_som1_winc1500/production/_ext/931592374/sys_debug.o
 .text.SYS_DEBUG_Redirect
                0x00000000       0x16 build/sam_a5d27_som1_winc1500/production/_ext/931592374/sys_debug.o
 .text          0x00000000        0x0 build/sam_a5d27_som1_winc1500/production/_ext/737894/sys_dma.o
 .data          0x00000000        0x0 build/sam_a5d27_som1_winc1500/production/_ext/737894/sys_dma.o
 .bss           0x00000000        0x0 build/sam_a5d27_som1_winc1500/production/_ext/737894/sys_dma.o
 .text          0x00000000        0x0 build/sam_a5d27_som1_winc1500/production/_ext/1629436774/sys_int.o
 .data          0x00000000        0x0 build/sam_a5d27_som1_winc1500/production/_ext/1629436774/sys_int.o
 .bss           0x00000000        0x0 build/sam_a5d27_som1_winc1500/production/_ext/1629436774/sys_int.o
 .text.SYS_INT_IsEnabled
                0x00000000        0xe build/sam_a5d27_som1_winc1500/production/_ext/1629436774/sys_int.o
 .text.SYS_INT_Enable
                0x00000000        0x8 build/sam_a5d27_som1_winc1500/production/_ext/1629436774/sys_int.o
 .text.SYS_INT_SourceStatusGet
                0x00000000       0x5c build/sam_a5d27_som1_winc1500/production/_ext/1629436774/sys_int.o
 .text.SYS_INT_SourceStatusSet
                0x00000000       0x1e build/sam_a5d27_som1_winc1500/production/_ext/1629436774/sys_int.o
 .text.SYS_INT_SourceStatusClear
                0x00000000       0x1e build/sam_a5d27_som1_winc1500/production/_ext/1629436774/sys_int.o
 .text          0x00000000        0x0 build/sam_a5d27_som1_winc1500/production/_ext/668867648/sys_time.o
 .data          0x00000000        0x0 build/sam_a5d27_som1_winc1500/production/_ext/668867648/sys_time.o
 .bss           0x00000000        0x0 build/sam_a5d27_som1_winc1500/production/_ext/668867648/sys_time.o
 .text.SYS_TIME_Deinitialize
                0x00000000       0x46 build/sam_a5d27_som1_winc1500/production/_ext/668867648/sys_time.o
 .text.SYS_TIME_Status
                0x00000000       0x1e build/sam_a5d27_som1_winc1500/production/_ext/668867648/sys_time.o
 .text.SYS_TIME_FrequencyGet
                0x00000000        0xc build/sam_a5d27_som1_winc1500/production/_ext/668867648/sys_time.o
 .text.SYS_TIME_Counter64Get
                0x00000000       0x40 build/sam_a5d27_som1_winc1500/production/_ext/668867648/sys_time.o
 .text.SYS_TIME_CounterGet
                0x00000000        0x8 build/sam_a5d27_som1_winc1500/production/_ext/668867648/sys_time.o
 .text.SYS_TIME_CounterSet
                0x00000000       0x20 build/sam_a5d27_som1_winc1500/production/_ext/668867648/sys_time.o
 .text.SYS_TIME_CountToUS
                0x00000000       0x20 build/sam_a5d27_som1_winc1500/production/_ext/668867648/sys_time.o
 .text.SYS_TIME_CountToMS
                0x00000000       0x4e build/sam_a5d27_som1_winc1500/production/_ext/668867648/sys_time.o
 .text.SYS_TIME_USToCount
                0x00000000       0x20 build/sam_a5d27_som1_winc1500/production/_ext/668867648/sys_time.o
 .text.SYS_TIME_MSToCount
                0x00000000       0x1c build/sam_a5d27_som1_winc1500/production/_ext/668867648/sys_time.o
 .text.SYS_TIME_TimerCreate
                0x00000000       0x1c build/sam_a5d27_som1_winc1500/production/_ext/668867648/sys_time.o
 .text.SYS_TIME_TimerReload
                0x00000000       0x88 build/sam_a5d27_som1_winc1500/production/_ext/668867648/sys_time.o
 .text.SYS_TIME_TimerStop
                0x00000000       0x3c build/sam_a5d27_som1_winc1500/production/_ext/668867648/sys_time.o
 .text.SYS_TIME_TimerCounterGet
                0x00000000       0x8c build/sam_a5d27_som1_winc1500/production/_ext/668867648/sys_time.o
 .text.SYS_TIME_DelayUS
                0x00000000       0x54 build/sam_a5d27_som1_winc1500/production/_ext/668867648/sys_time.o
 .text.SYS_TIME_CallbackRegisterUS
                0x00000000       0x5a build/sam_a5d27_som1_winc1500/production/_ext/668867648/sys_time.o
 .text.SYS_TIME_CallbackRegisterMS
                0x00000000       0x56 build/sam_a5d27_som1_winc1500/production/_ext/668867648/sys_time.o
 .text          0x00000000        0x0 build/sam_a5d27_som1_winc1500/production/_ext/1420715725/interrupts.o
 .data          0x00000000        0x0 build/sam_a5d27_som1_winc1500/production/_ext/1420715725/interrupts.o
 .bss           0x00000000        0x0 build/sam_a5d27_som1_winc1500/production/_ext/1420715725/interrupts.o
 .text.DefaultInterruptHandler
                0x00000000        0x2 build/sam_a5d27_som1_winc1500/production/_ext/1420715725/interrupts.o
 .text.SYSC_SharedHandler
                0x00000000        0x2 build/sam_a5d27_som1_winc1500/production/_ext/1420715725/interrupts.o
 .text          0x00000000        0x0 build/sam_a5d27_som1_winc1500/production/_ext/1420715725/fault_handlers.o
 .data          0x00000000        0x0 build/sam_a5d27_som1_winc1500/production/_ext/1420715725/fault_handlers.o
 .bss           0x00000000        0x0 build/sam_a5d27_som1_winc1500/production/_ext/1420715725/fault_handlers.o
 .data          0x00000000        0x0 build/sam_a5d27_som1_winc1500/production/_ext/1420715725/cstartup.o
 .bss           0x00000000        0x0 build/sam_a5d27_som1_winc1500/production/_ext/1420715725/cstartup.o
 .text          0x00000000        0x0 build/sam_a5d27_som1_winc1500/production/_ext/1420715725/tasks.o
 .data          0x00000000        0x0 build/sam_a5d27_som1_winc1500/production/_ext/1420715725/tasks.o
 .bss           0x00000000        0x0 build/sam_a5d27_som1_winc1500/production/_ext/1420715725/tasks.o
 .text          0x00000000        0x0 build/sam_a5d27_som1_winc1500/production/_ext/1420715725/initialization.o
 .data          0x00000000        0x0 build/sam_a5d27_som1_winc1500/production/_ext/1420715725/initialization.o
 .bss           0x00000000        0x0 build/sam_a5d27_som1_winc1500/production/_ext/1420715725/initialization.o
 .text          0x00000000        0x0 build/sam_a5d27_som1_winc1500/production/_ext/1360937237/main.o
 .data          0x00000000        0x0 build/sam_a5d27_som1_winc1500/production/_ext/1360937237/main.o
 .bss           0x00000000        0x0 build/sam_a5d27_som1_winc1500/production/_ext/1360937237/main.o
 .text          0x00000000        0x0 build/sam_a5d27_som1_winc1500/production/_ext/1360937237/app.o
 .data          0x00000000        0x0 build/sam_a5d27_som1_winc1500/production/_ext/1360937237/app.o
 .bss           0x00000000        0x0 build/sam_a5d27_som1_winc1500/production/_ext/1360937237/app.o
 .text          0x00000000        0x0 build/sam_a5d27_som1_winc1500/production/_ext/1360937237/example.o
 .data          0x00000000        0x0 build/sam_a5d27_som1_winc1500/production/_ext/1360937237/example.o
 .bss           0x00000000        0x0 build/sam_a5d27_som1_winc1500/production/_ext/1360937237/example.o
 .data          0x00000000        0x0 c:/program files/microchip/xc32/v4.00/bin/bin/../../lib/gcc/pic32c/8.3.1/thumb/v7-a+simd/hard\libgcc.a(_udivsi3.o)
 .bss           0x00000000        0x0 c:/program files/microchip/xc32/v4.00/bin/bin/../../lib/gcc/pic32c/8.3.1/thumb/v7-a+simd/hard\libgcc.a(_udivsi3.o)
 .xc_stack_usage.hdr
                0x00000000        0xe c:/program files/microchip/xc32/v4.00/bin/bin/../../lib/gcc/pic32c/8.3.1/thumb/v7-a+simd/hard\libgcc.a(_udivsi3.o)
 .xc_stack_usage
                0x00000000       0x35 c:/program files/microchip/xc32/v4.00/bin/bin/../../lib/gcc/pic32c/8.3.1/thumb/v7-a+simd/hard\libgcc.a(_udivsi3.o)
 .data          0x00000000        0x0 c:/program files/microchip/xc32/v4.00/bin/bin/../../lib/gcc/pic32c/8.3.1/thumb/v7-a+simd/hard\libgcc.a(_divsi3.o)
 .bss           0x00000000        0x0 c:/program files/microchip/xc32/v4.00/bin/bin/../../lib/gcc/pic32c/8.3.1/thumb/v7-a+simd/hard\libgcc.a(_divsi3.o)
 .xc_stack_usage.hdr
                0x00000000        0xe c:/program files/microchip/xc32/v4.00/bin/bin/../../lib/gcc/pic32c/8.3.1/thumb/v7-a+simd/hard\libgcc.a(_divsi3.o)
 .xc_stack_usage
                0x00000000       0x33 c:/program files/microchip/xc32/v4.00/bin/bin/../../lib/gcc/pic32c/8.3.1/thumb/v7-a+simd/hard\libgcc.a(_divsi3.o)
 .data          0x00000000        0x0 c:/program files/microchip/xc32/v4.00/bin/bin/../../lib/gcc/pic32c/8.3.1/thumb/v7-a+simd/hard\libgcc.a(_dvmd_tls.o)
 .bss           0x00000000        0x0 c:/program files/microchip/xc32/v4.00/bin/bin/../../lib/gcc/pic32c/8.3.1/thumb/v7-a+simd/hard\libgcc.a(_dvmd_tls.o)
 .xc_stack_usage.hdr
                0x00000000        0xe c:/program files/microchip/xc32/v4.00/bin/bin/../../lib/gcc/pic32c/8.3.1/thumb/v7-a+simd/hard\libgcc.a(_dvmd_tls.o)
 .xc_stack_usage
                0x00000000       0x36 c:/program files/microchip/xc32/v4.00/bin/bin/../../lib/gcc/pic32c/8.3.1/thumb/v7-a+simd/hard\libgcc.a(_dvmd_tls.o)
 .data          0x00000000        0x0 c:/program files/microchip/xc32/v4.00/bin/bin/../../lib/gcc/pic32c/8.3.1/thumb/v7-a+simd/hard\libgcc.a(_aeabi_uldivmod.o)
 .bss           0x00000000        0x0 c:/program files/microchip/xc32/v4.00/bin/bin/../../lib/gcc/pic32c/8.3.1/thumb/v7-a+simd/hard\libgcc.a(_aeabi_uldivmod.o)
 .xc_stack_usage.hdr
                0x00000000        0xe c:/program files/microchip/xc32/v4.00/bin/bin/../../lib/gcc/pic32c/8.3.1/thumb/v7-a+simd/hard\libgcc.a(_aeabi_uldivmod.o)
 .xc_stack_usage
                0x00000000       0x1e c:/program files/microchip/xc32/v4.00/bin/bin/../../lib/gcc/pic32c/8.3.1/thumb/v7-a+simd/hard\libgcc.a(_aeabi_uldivmod.o)
 .data          0x00000000        0x0 c:/program files/microchip/xc32/v4.00/bin/bin/../../lib/gcc/pic32c/8.3.1/thumb/v7-a+simd/hard\libgcc.a(_udivmoddi4.o)
 .bss           0x00000000        0x0 c:/program files/microchip/xc32/v4.00/bin/bin/../../lib/gcc/pic32c/8.3.1/thumb/v7-a+simd/hard\libgcc.a(_udivmoddi4.o)
 .xc_stack_usage
                0x00000000       0x1a c:/program files/microchip/xc32/v4.00/bin/bin/../../lib/gcc/pic32c/8.3.1/thumb/v7-a+simd/hard\libgcc.a(_udivmoddi4.o)
 .ARM.extab     0x00000000        0x0 c:/program files/microchip/xc32/v4.00/bin/bin/../../lib/gcc/pic32c/8.3.1/thumb/v7-a+simd/hard\libgcc.a(_udivmoddi4.o)
 .xc_stack_usage.hdr
                0x00000000        0xe c:/program files/microchip/xc32/v4.00/bin/bin/../../lib/gcc/pic32c/8.3.1/thumb/v7-a+simd/hard\libgcc.a(_udivmoddi4.o)
 .text          0x00000000        0x0 c:/program files/microchip/xc32/v4.00/bin/bin/../../lib/gcc/pic32c/8.3.1/../../../../pic32c/lib/thumb/v7-a+simd/hard\libc-musl.a(__libc_start_main.o)
 .data          0x00000000        0x0 c:/program files/microchip/xc32/v4.00/bin/bin/../../lib/gcc/pic32c/8.3.1/../../../../pic32c/lib/thumb/v7-a+simd/hard\libc-musl.a(__libc_start_main.o)
 .bss           0x00000000        0x0 c:/program files/microchip/xc32/v4.00/bin/bin/../../lib/gcc/pic32c/8.3.1/../../../../pic32c/lib/thumb/v7-a+simd/hard\libc-musl.a(__libc_start_main.o)
 .xc_stack_usage
                0x00000000       0x34 c:/program files/microchip/xc32/v4.00/bin/bin/../../lib/gcc/pic32c/8.3.1/../../../../pic32c/lib/thumb/v7-a+simd/hard\libc-musl.a(__libc_start_main.o)
 .xc_stack_usage.hdr
                0x00000000        0xe c:/program files/microchip/xc32/v4.00/bin/bin/../../lib/gcc/pic32c/8.3.1/../../../../pic32c/lib/thumb/v7-a+simd/hard\libc-musl.a(__libc_start_main.o)
 .text          0x00000000        0x0 c:/program files/microchip/xc32/v4.00/bin/bin/../../lib/gcc/pic32c/8.3.1/../../../../pic32c/lib/thumb/v7-a+simd/hard\libc-musl.a(libc.o)
 .data          0x00000000        0x0 c:/program files/microchip/xc32/v4.00/bin/bin/../../lib/gcc/pic32c/8.3.1/../../../../pic32c/lib/thumb/v7-a+simd/hard\libc-musl.a(libc.o)
 .xc_stack_usage.hdr
                0x00000000        0xe c:/program files/microchip/xc32/v4.00/bin/bin/../../lib/gcc/pic32c/8.3.1/../../../../pic32c/lib/thumb/v7-a+simd/hard\libc-musl.a(libc.o)
 .text          0x00000000        0x0 c:/program files/microchip/xc32/v4.00/bin/bin/../../lib/gcc/pic32c/8.3.1/../../../../pic32c/lib/thumb/v7-a+simd/hard\libc-musl.a(malloc.o)
 .data          0x00000000        0x0 c:/program files/microchip/xc32/v4.00/bin/bin/../../lib/gcc/pic32c/8.3.1/../../../../pic32c/lib/thumb/v7-a+simd/hard\libc-musl.a(malloc.o)
 .xc_stack_usage
                0x00000000       0xeb c:/program files/microchip/xc32/v4.00/bin/bin/../../lib/gcc/pic32c/8.3.1/../../../../pic32c/lib/thumb/v7-a+simd/hard\libc-musl.a(malloc.o)
 .text.__malloc0
                0x00000000       0x26 c:/program files/microchip/xc32/v4.00/bin/bin/../../lib/gcc/pic32c/8.3.1/../../../../pic32c/lib/thumb/v7-a+simd/hard\libc-musl.a(malloc.o)
 .text.realloc  0x00000000       0x90 c:/program files/microchip/xc32/v4.00/bin/bin/../../lib/gcc/pic32c/8.3.1/../../../../pic32c/lib/thumb/v7-a+simd/hard\libc-musl.a(malloc.o)
 .xc_stack_usage.hdr
                0x00000000        0xe c:/program files/microchip/xc32/v4.00/bin/bin/../../lib/gcc/pic32c/8.3.1/../../../../pic32c/lib/thumb/v7-a+simd/hard\libc-musl.a(malloc.o)
 .text          0x00000000        0x0 c:/program files/microchip/xc32/v4.00/bin/bin/../../lib/gcc/pic32c/8.3.1/../../../../pic32c/lib/thumb/v7-a+simd/hard\libc-musl.a(expand_heap.o)
 .data          0x00000000        0x0 c:/program files/microchip/xc32/v4.00/bin/bin/../../lib/gcc/pic32c/8.3.1/../../../../pic32c/lib/thumb/v7-a+simd/hard\libc-musl.a(expand_heap.o)
 .bss           0x00000000        0x0 c:/program files/microchip/xc32/v4.00/bin/bin/../../lib/gcc/pic32c/8.3.1/../../../../pic32c/lib/thumb/v7-a+simd/hard\libc-musl.a(expand_heap.o)
 .xc_stack_usage
                0x00000000       0x1b c:/program files/microchip/xc32/v4.00/bin/bin/../../lib/gcc/pic32c/8.3.1/../../../../pic32c/lib/thumb/v7-a+simd/hard\libc-musl.a(expand_heap.o)
 .xc_stack_usage.hdr
                0x00000000        0xe c:/program files/microchip/xc32/v4.00/bin/bin/../../lib/gcc/pic32c/8.3.1/../../../../pic32c/lib/thumb/v7-a+simd/hard\libc-musl.a(expand_heap.o)
 .text          0x00000000        0x0 c:/program files/microchip/xc32/v4.00/bin/bin/../../lib/gcc/pic32c/8.3.1/../../../../pic32c/lib/thumb/v7-a+simd/hard\libc-musl.a(vsnprintf.o)
 .data          0x00000000        0x0 c:/program files/microchip/xc32/v4.00/bin/bin/../../lib/gcc/pic32c/8.3.1/../../../../pic32c/lib/thumb/v7-a+simd/hard\libc-musl.a(vsnprintf.o)
 .bss           0x00000000        0x0 c:/program files/microchip/xc32/v4.00/bin/bin/../../lib/gcc/pic32c/8.3.1/../../../../pic32c/lib/thumb/v7-a+simd/hard\libc-musl.a(vsnprintf.o)
 .xc_stack_usage
                0x00000000       0x17 c:/program files/microchip/xc32/v4.00/bin/bin/../../lib/gcc/pic32c/8.3.1/../../../../pic32c/lib/thumb/v7-a+simd/hard\libc-musl.a(vsnprintf.o)
 .xc_stack_usage.hdr
                0x00000000        0xe c:/program files/microchip/xc32/v4.00/bin/bin/../../lib/gcc/pic32c/8.3.1/../../../../pic32c/lib/thumb/v7-a+simd/hard\libc-musl.a(vsnprintf.o)
 .text          0x00000000        0x0 c:/program files/microchip/xc32/v4.00/bin/bin/../../lib/gcc/pic32c/8.3.1/../../../../pic32c/lib/thumb/v7-a+simd/hard\libc-musl.a(sprintf.o)
 .data          0x00000000        0x0 c:/program files/microchip/xc32/v4.00/bin/bin/../../lib/gcc/pic32c/8.3.1/../../../../pic32c/lib/thumb/v7-a+simd/hard\libc-musl.a(sprintf.o)
 .bss           0x00000000        0x0 c:/program files/microchip/xc32/v4.00/bin/bin/../../lib/gcc/pic32c/8.3.1/../../../../pic32c/lib/thumb/v7-a+simd/hard\libc-musl.a(sprintf.o)
 .xc_stack_usage
                0x00000000       0x15 c:/program files/microchip/xc32/v4.00/bin/bin/../../lib/gcc/pic32c/8.3.1/../../../../pic32c/lib/thumb/v7-a+simd/hard\libc-musl.a(sprintf.o)
 .text.sprintf  0x00000000       0x1a c:/program files/microchip/xc32/v4.00/bin/bin/../../lib/gcc/pic32c/8.3.1/../../../../pic32c/lib/thumb/v7-a+simd/hard\libc-musl.a(sprintf.o)
 .xc_stack_usage.hdr
                0x00000000        0xe c:/program files/microchip/xc32/v4.00/bin/bin/../../lib/gcc/pic32c/8.3.1/../../../../pic32c/lib/thumb/v7-a+simd/hard\libc-musl.a(sprintf.o)
 .debug_info    0x00000000      0x3b5 c:/program files/microchip/xc32/v4.00/bin/bin/../../lib/gcc/pic32c/8.3.1/../../../../pic32c/lib/thumb/v7-a+simd/hard\libc-musl.a(sprintf.o)
 .debug_abbrev  0x00000000      0x126 c:/program files/microchip/xc32/v4.00/bin/bin/../../lib/gcc/pic32c/8.3.1/../../../../pic32c/lib/thumb/v7-a+simd/hard\libc-musl.a(sprintf.o)
 .debug_loc     0x00000000       0x8a c:/program files/microchip/xc32/v4.00/bin/bin/../../lib/gcc/pic32c/8.3.1/../../../../pic32c/lib/thumb/v7-a+simd/hard\libc-musl.a(sprintf.o)
 .debug_aranges
                0x00000000       0x20 c:/program files/microchip/xc32/v4.00/bin/bin/../../lib/gcc/pic32c/8.3.1/../../../../pic32c/lib/thumb/v7-a+simd/hard\libc-musl.a(sprintf.o)
 .debug_ranges  0x00000000       0x10 c:/program files/microchip/xc32/v4.00/bin/bin/../../lib/gcc/pic32c/8.3.1/../../../../pic32c/lib/thumb/v7-a+simd/hard\libc-musl.a(sprintf.o)
 .debug_line    0x00000000      0x161 c:/program files/microchip/xc32/v4.00/bin/bin/../../lib/gcc/pic32c/8.3.1/../../../../pic32c/lib/thumb/v7-a+simd/hard\libc-musl.a(sprintf.o)
 .debug_str     0x00000000        0x9 c:/program files/microchip/xc32/v4.00/bin/bin/../../lib/gcc/pic32c/8.3.1/../../../../pic32c/lib/thumb/v7-a+simd/hard\libc-musl.a(sprintf.o)
 .comment       0x00000000       0x54 c:/program files/microchip/xc32/v4.00/bin/bin/../../lib/gcc/pic32c/8.3.1/../../../../pic32c/lib/thumb/v7-a+simd/hard\libc-musl.a(sprintf.o)
 .note.GNU-stack
                0x00000000        0x0 c:/program files/microchip/xc32/v4.00/bin/bin/../../lib/gcc/pic32c/8.3.1/../../../../pic32c/lib/thumb/v7-a+simd/hard\libc-musl.a(sprintf.o)
 .debug_frame   0x00000000       0x3c c:/program files/microchip/xc32/v4.00/bin/bin/../../lib/gcc/pic32c/8.3.1/../../../../pic32c/lib/thumb/v7-a+simd/hard\libc-musl.a(sprintf.o)
 .ARM.attributes
                0x00000000       0x37 c:/program files/microchip/xc32/v4.00/bin/bin/../../lib/gcc/pic32c/8.3.1/../../../../pic32c/lib/thumb/v7-a+simd/hard\libc-musl.a(sprintf.o)
 .text          0x00000000        0x0 c:/program files/microchip/xc32/v4.00/bin/bin/../../lib/gcc/pic32c/8.3.1/../../../../pic32c/lib/thumb/v7-a+simd/hard\libc-musl.a(vsprintf.o)
 .data          0x00000000        0x0 c:/program files/microchip/xc32/v4.00/bin/bin/../../lib/gcc/pic32c/8.3.1/../../../../pic32c/lib/thumb/v7-a+simd/hard\libc-musl.a(vsprintf.o)
 .bss           0x00000000        0x0 c:/program files/microchip/xc32/v4.00/bin/bin/../../lib/gcc/pic32c/8.3.1/../../../../pic32c/lib/thumb/v7-a+simd/hard\libc-musl.a(vsprintf.o)
 .xc_stack_usage
                0x00000000       0x16 c:/program files/microchip/xc32/v4.00/bin/bin/../../lib/gcc/pic32c/8.3.1/../../../../pic32c/lib/thumb/v7-a+simd/hard\libc-musl.a(vsprintf.o)
 .text.vsprintf
                0x00000000        0xc c:/program files/microchip/xc32/v4.00/bin/bin/../../lib/gcc/pic32c/8.3.1/../../../../pic32c/lib/thumb/v7-a+simd/hard\libc-musl.a(vsprintf.o)
 .xc_stack_usage.hdr
                0x00000000        0xe c:/program files/microchip/xc32/v4.00/bin/bin/../../lib/gcc/pic32c/8.3.1/../../../../pic32c/lib/thumb/v7-a+simd/hard\libc-musl.a(vsprintf.o)
 .debug_info    0x00000000      0x3af c:/program files/microchip/xc32/v4.00/bin/bin/../../lib/gcc/pic32c/8.3.1/../../../../pic32c/lib/thumb/v7-a+simd/hard\libc-musl.a(vsprintf.o)
 .debug_abbrev  0x00000000       0xee c:/program files/microchip/xc32/v4.00/bin/bin/../../lib/gcc/pic32c/8.3.1/../../../../pic32c/lib/thumb/v7-a+simd/hard\libc-musl.a(vsprintf.o)
 .debug_loc     0x00000000       0x6c c:/program files/microchip/xc32/v4.00/bin/bin/../../lib/gcc/pic32c/8.3.1/../../../../pic32c/lib/thumb/v7-a+simd/hard\libc-musl.a(vsprintf.o)
 .debug_aranges
                0x00000000       0x20 c:/program files/microchip/xc32/v4.00/bin/bin/../../lib/gcc/pic32c/8.3.1/../../../../pic32c/lib/thumb/v7-a+simd/hard\libc-musl.a(vsprintf.o)
 .debug_ranges  0x00000000       0x10 c:/program files/microchip/xc32/v4.00/bin/bin/../../lib/gcc/pic32c/8.3.1/../../../../pic32c/lib/thumb/v7-a+simd/hard\libc-musl.a(vsprintf.o)
 .debug_line    0x00000000      0x150 c:/program files/microchip/xc32/v4.00/bin/bin/../../lib/gcc/pic32c/8.3.1/../../../../pic32c/lib/thumb/v7-a+simd/hard\libc-musl.a(vsprintf.o)
 .debug_str     0x00000000        0xa c:/program files/microchip/xc32/v4.00/bin/bin/../../lib/gcc/pic32c/8.3.1/../../../../pic32c/lib/thumb/v7-a+simd/hard\libc-musl.a(vsprintf.o)
 .comment       0x00000000       0x54 c:/program files/microchip/xc32/v4.00/bin/bin/../../lib/gcc/pic32c/8.3.1/../../../../pic32c/lib/thumb/v7-a+simd/hard\libc-musl.a(vsprintf.o)
 .note.GNU-stack
                0x00000000        0x0 c:/program files/microchip/xc32/v4.00/bin/bin/../../lib/gcc/pic32c/8.3.1/../../../../pic32c/lib/thumb/v7-a+simd/hard\libc-musl.a(vsprintf.o)
 .debug_frame   0x00000000       0x20 c:/program files/microchip/xc32/v4.00/bin/bin/../../lib/gcc/pic32c/8.3.1/../../../../pic32c/lib/thumb/v7-a+simd/hard\libc-musl.a(vsprintf.o)
 .ARM.attributes
                0x00000000       0x37 c:/program files/microchip/xc32/v4.00/bin/bin/../../lib/gcc/pic32c/8.3.1/../../../../pic32c/lib/thumb/v7-a+simd/hard\libc-musl.a(vsprintf.o)
 .text          0x00000000        0x0 c:/program files/microchip/xc32/v4.00/bin/bin/../../lib/gcc/pic32c/8.3.1/../../../../pic32c/lib/thumb/v7-a+simd/hard\libc-musl.a(atoi.o)
 .data          0x00000000        0x0 c:/program files/microchip/xc32/v4.00/bin/bin/../../lib/gcc/pic32c/8.3.1/../../../../pic32c/lib/thumb/v7-a+simd/hard\libc-musl.a(atoi.o)
 .bss           0x00000000        0x0 c:/program files/microchip/xc32/v4.00/bin/bin/../../lib/gcc/pic32c/8.3.1/../../../../pic32c/lib/thumb/v7-a+simd/hard\libc-musl.a(atoi.o)
 .xc_stack_usage
                0x00000000       0x12 c:/program files/microchip/xc32/v4.00/bin/bin/../../lib/gcc/pic32c/8.3.1/../../../../pic32c/lib/thumb/v7-a+simd/hard\libc-musl.a(atoi.o)
 .xc_stack_usage.hdr
                0x00000000        0xe c:/program files/microchip/xc32/v4.00/bin/bin/../../lib/gcc/pic32c/8.3.1/../../../../pic32c/lib/thumb/v7-a+simd/hard\libc-musl.a(atoi.o)
 .text          0x00000000        0x0 c:/program files/microchip/xc32/v4.00/bin/bin/../../lib/gcc/pic32c/8.3.1/../../../../pic32c/lib/thumb/v7-a+simd/hard\libc-musl.a(memcpy.o)
 .data          0x00000000        0x0 c:/program files/microchip/xc32/v4.00/bin/bin/../../lib/gcc/pic32c/8.3.1/../../../../pic32c/lib/thumb/v7-a+simd/hard\libc-musl.a(memcpy.o)
 .bss           0x00000000        0x0 c:/program files/microchip/xc32/v4.00/bin/bin/../../lib/gcc/pic32c/8.3.1/../../../../pic32c/lib/thumb/v7-a+simd/hard\libc-musl.a(memcpy.o)
 .xc_stack_usage
                0x00000000       0x14 c:/program files/microchip/xc32/v4.00/bin/bin/../../lib/gcc/pic32c/8.3.1/../../../../pic32c/lib/thumb/v7-a+simd/hard\libc-musl.a(memcpy.o)
 .xc_stack_usage.hdr
                0x00000000        0xe c:/program files/microchip/xc32/v4.00/bin/bin/../../lib/gcc/pic32c/8.3.1/../../../../pic32c/lib/thumb/v7-a+simd/hard\libc-musl.a(memcpy.o)
 .text          0x00000000        0x0 c:/program files/microchip/xc32/v4.00/bin/bin/../../lib/gcc/pic32c/8.3.1/../../../../pic32c/lib/thumb/v7-a+simd/hard\libc-musl.a(memset.o)
 .data          0x00000000        0x0 c:/program files/microchip/xc32/v4.00/bin/bin/../../lib/gcc/pic32c/8.3.1/../../../../pic32c/lib/thumb/v7-a+simd/hard\libc-musl.a(memset.o)
 .bss           0x00000000        0x0 c:/program files/microchip/xc32/v4.00/bin/bin/../../lib/gcc/pic32c/8.3.1/../../../../pic32c/lib/thumb/v7-a+simd/hard\libc-musl.a(memset.o)
 .xc_stack_usage
                0x00000000       0x14 c:/program files/microchip/xc32/v4.00/bin/bin/../../lib/gcc/pic32c/8.3.1/../../../../pic32c/lib/thumb/v7-a+simd/hard\libc-musl.a(memset.o)
 .xc_stack_usage.hdr
                0x00000000        0xe c:/program files/microchip/xc32/v4.00/bin/bin/../../lib/gcc/pic32c/8.3.1/../../../../pic32c/lib/thumb/v7-a+simd/hard\libc-musl.a(memset.o)
 .text          0x00000000        0x0 c:/program files/microchip/xc32/v4.00/bin/bin/../../lib/gcc/pic32c/8.3.1/../../../../pic32c/lib/thumb/v7-a+simd/hard\libc-musl.a(strlen.o)
 .data          0x00000000        0x0 c:/program files/microchip/xc32/v4.00/bin/bin/../../lib/gcc/pic32c/8.3.1/../../../../pic32c/lib/thumb/v7-a+simd/hard\libc-musl.a(strlen.o)
 .bss           0x00000000        0x0 c:/program files/microchip/xc32/v4.00/bin/bin/../../lib/gcc/pic32c/8.3.1/../../../../pic32c/lib/thumb/v7-a+simd/hard\libc-musl.a(strlen.o)
 .xc_stack_usage
                0x00000000       0x14 c:/program files/microchip/xc32/v4.00/bin/bin/../../lib/gcc/pic32c/8.3.1/../../../../pic32c/lib/thumb/v7-a+simd/hard\libc-musl.a(strlen.o)
 .xc_stack_usage.hdr
                0x00000000        0xe c:/program files/microchip/xc32/v4.00/bin/bin/../../lib/gcc/pic32c/8.3.1/../../../../pic32c/lib/thumb/v7-a+simd/hard\libc-musl.a(strlen.o)
 .text          0x00000000        0x0 c:/program files/microchip/xc32/v4.00/bin/bin/../../lib/gcc/pic32c/8.3.1/../../../../pic32c/lib/thumb/v7-a+simd/hard\libc-musl.a(strchr.o)
 .data          0x00000000        0x0 c:/program files/microchip/xc32/v4.00/bin/bin/../../lib/gcc/pic32c/8.3.1/../../../../pic32c/lib/thumb/v7-a+simd/hard\libc-musl.a(strchr.o)
 .bss           0x00000000        0x0 c:/program files/microchip/xc32/v4.00/bin/bin/../../lib/gcc/pic32c/8.3.1/../../../../pic32c/lib/thumb/v7-a+simd/hard\libc-musl.a(strchr.o)
 .xc_stack_usage
                0x00000000       0x14 c:/program files/microchip/xc32/v4.00/bin/bin/../../lib/gcc/pic32c/8.3.1/../../../../pic32c/lib/thumb/v7-a+simd/hard\libc-musl.a(strchr.o)
 .xc_stack_usage.hdr
                0x00000000        0xe c:/program files/microchip/xc32/v4.00/bin/bin/../../lib/gcc/pic32c/8.3.1/../../../../pic32c/lib/thumb/v7-a+simd/hard\libc-musl.a(strchr.o)
 .text          0x00000000        0x0 c:/program files/microchip/xc32/v4.00/bin/bin/../../lib/gcc/pic32c/8.3.1/../../../../pic32c/lib/thumb/v7-a+simd/hard\libc-musl.a(strchrnul.o)
 .data          0x00000000        0x0 c:/program files/microchip/xc32/v4.00/bin/bin/../../lib/gcc/pic32c/8.3.1/../../../../pic32c/lib/thumb/v7-a+simd/hard\libc-musl.a(strchrnul.o)
 .bss           0x00000000        0x0 c:/program files/microchip/xc32/v4.00/bin/bin/../../lib/gcc/pic32c/8.3.1/../../../../pic32c/lib/thumb/v7-a+simd/hard\libc-musl.a(strchrnul.o)
 .xc_stack_usage
                0x00000000       0x19 c:/program files/microchip/xc32/v4.00/bin/bin/../../lib/gcc/pic32c/8.3.1/../../../../pic32c/lib/thumb/v7-a+simd/hard\libc-musl.a(strchrnul.o)
 .xc_stack_usage.hdr
                0x00000000        0xe c:/program files/microchip/xc32/v4.00/bin/bin/../../lib/gcc/pic32c/8.3.1/../../../../pic32c/lib/thumb/v7-a+simd/hard\libc-musl.a(strchrnul.o)
 .text          0x00000000        0x0 c:/program files/microchip/xc32/v4.00/bin/bin/../../lib/gcc/pic32c/8.3.1/../../../../pic32c/lib/thumb/v7-a+simd/hard\libc-musl.a(strcpy.o)
 .data          0x00000000        0x0 c:/program files/microchip/xc32/v4.00/bin/bin/../../lib/gcc/pic32c/8.3.1/../../../../pic32c/lib/thumb/v7-a+simd/hard\libc-musl.a(strcpy.o)
 .bss           0x00000000        0x0 c:/program files/microchip/xc32/v4.00/bin/bin/../../lib/gcc/pic32c/8.3.1/../../../../pic32c/lib/thumb/v7-a+simd/hard\libc-musl.a(strcpy.o)
 .xc_stack_usage
                0x00000000       0x14 c:/program files/microchip/xc32/v4.00/bin/bin/../../lib/gcc/pic32c/8.3.1/../../../../pic32c/lib/thumb/v7-a+simd/hard\libc-musl.a(strcpy.o)
 .xc_stack_usage.hdr
                0x00000000        0xe c:/program files/microchip/xc32/v4.00/bin/bin/../../lib/gcc/pic32c/8.3.1/../../../../pic32c/lib/thumb/v7-a+simd/hard\libc-musl.a(strcpy.o)
 .text          0x00000000        0x0 c:/program files/microchip/xc32/v4.00/bin/bin/../../lib/gcc/pic32c/8.3.1/../../../../pic32c/lib/thumb/v7-a+simd/hard\libc-musl.a(strncmp.o)
 .data          0x00000000        0x0 c:/program files/microchip/xc32/v4.00/bin/bin/../../lib/gcc/pic32c/8.3.1/../../../../pic32c/lib/thumb/v7-a+simd/hard\libc-musl.a(strncmp.o)
 .bss           0x00000000        0x0 c:/program files/microchip/xc32/v4.00/bin/bin/../../lib/gcc/pic32c/8.3.1/../../../../pic32c/lib/thumb/v7-a+simd/hard\libc-musl.a(strncmp.o)
 .xc_stack_usage
                0x00000000       0x15 c:/program files/microchip/xc32/v4.00/bin/bin/../../lib/gcc/pic32c/8.3.1/../../../../pic32c/lib/thumb/v7-a+simd/hard\libc-musl.a(strncmp.o)
 .xc_stack_usage.hdr
                0x00000000        0xe c:/program files/microchip/xc32/v4.00/bin/bin/../../lib/gcc/pic32c/8.3.1/../../../../pic32c/lib/thumb/v7-a+simd/hard\libc-musl.a(strncmp.o)
 .text          0x00000000        0x0 c:/program files/microchip/xc32/v4.00/bin/bin/../../lib/gcc/pic32c/8.3.1/../../../../pic32c/lib/thumb/v7-a+simd/hard\libc-musl.a(strtok.o)
 .data          0x00000000        0x0 c:/program files/microchip/xc32/v4.00/bin/bin/../../lib/gcc/pic32c/8.3.1/../../../../pic32c/lib/thumb/v7-a+simd/hard\libc-musl.a(strtok.o)
 .xc_stack_usage
                0x00000000       0x14 c:/program files/microchip/xc32/v4.00/bin/bin/../../lib/gcc/pic32c/8.3.1/../../../../pic32c/lib/thumb/v7-a+simd/hard\libc-musl.a(strtok.o)
 .xc_stack_usage.hdr
                0x00000000        0xe c:/program files/microchip/xc32/v4.00/bin/bin/../../lib/gcc/pic32c/8.3.1/../../../../pic32c/lib/thumb/v7-a+simd/hard\libc-musl.a(strtok.o)
 .text          0x00000000        0x0 c:/program files/microchip/xc32/v4.00/bin/bin/../../lib/gcc/pic32c/8.3.1/../../../../pic32c/lib/thumb/v7-a+simd/hard\libc-musl.a(gmtime.o)
 .data          0x00000000        0x0 c:/program files/microchip/xc32/v4.00/bin/bin/../../lib/gcc/pic32c/8.3.1/../../../../pic32c/lib/thumb/v7-a+simd/hard\libc-musl.a(gmtime.o)
 .bss           0x00000000       0x2c c:/program files/microchip/xc32/v4.00/bin/bin/../../lib/gcc/pic32c/8.3.1/../../../../pic32c/lib/thumb/v7-a+simd/hard\libc-musl.a(gmtime.o)
 .xc_stack_usage
                0x00000000       0x14 c:/program files/microchip/xc32/v4.00/bin/bin/../../lib/gcc/pic32c/8.3.1/../../../../pic32c/lib/thumb/v7-a+simd/hard\libc-musl.a(gmtime.o)
 .text.gmtime   0x00000000        0xc c:/program files/microchip/xc32/v4.00/bin/bin/../../lib/gcc/pic32c/8.3.1/../../../../pic32c/lib/thumb/v7-a+simd/hard\libc-musl.a(gmtime.o)
 .xc_stack_usage.hdr
                0x00000000        0xe c:/program files/microchip/xc32/v4.00/bin/bin/../../lib/gcc/pic32c/8.3.1/../../../../pic32c/lib/thumb/v7-a+simd/hard\libc-musl.a(gmtime.o)
 .debug_info    0x00000000      0x476 c:/program files/microchip/xc32/v4.00/bin/bin/../../lib/gcc/pic32c/8.3.1/../../../../pic32c/lib/thumb/v7-a+simd/hard\libc-musl.a(gmtime.o)
 .debug_abbrev  0x00000000       0xf8 c:/program files/microchip/xc32/v4.00/bin/bin/../../lib/gcc/pic32c/8.3.1/../../../../pic32c/lib/thumb/v7-a+simd/hard\libc-musl.a(gmtime.o)
 .debug_loc     0x00000000       0x25 c:/program files/microchip/xc32/v4.00/bin/bin/../../lib/gcc/pic32c/8.3.1/../../../../pic32c/lib/thumb/v7-a+simd/hard\libc-musl.a(gmtime.o)
 .debug_aranges
                0x00000000       0x20 c:/program files/microchip/xc32/v4.00/bin/bin/../../lib/gcc/pic32c/8.3.1/../../../../pic32c/lib/thumb/v7-a+simd/hard\libc-musl.a(gmtime.o)
 .debug_ranges  0x00000000       0x10 c:/program files/microchip/xc32/v4.00/bin/bin/../../lib/gcc/pic32c/8.3.1/../../../../pic32c/lib/thumb/v7-a+simd/hard\libc-musl.a(gmtime.o)
 .debug_line    0x00000000      0x1b0 c:/program files/microchip/xc32/v4.00/bin/bin/../../lib/gcc/pic32c/8.3.1/../../../../pic32c/lib/thumb/v7-a+simd/hard\libc-musl.a(gmtime.o)
 .debug_str     0x00000000        0xb c:/program files/microchip/xc32/v4.00/bin/bin/../../lib/gcc/pic32c/8.3.1/../../../../pic32c/lib/thumb/v7-a+simd/hard\libc-musl.a(gmtime.o)
 .comment       0x00000000       0x54 c:/program files/microchip/xc32/v4.00/bin/bin/../../lib/gcc/pic32c/8.3.1/../../../../pic32c/lib/thumb/v7-a+simd/hard\libc-musl.a(gmtime.o)
 .note.GNU-stack
                0x00000000        0x0 c:/program files/microchip/xc32/v4.00/bin/bin/../../lib/gcc/pic32c/8.3.1/../../../../pic32c/lib/thumb/v7-a+simd/hard\libc-musl.a(gmtime.o)
 .debug_frame   0x00000000       0x20 c:/program files/microchip/xc32/v4.00/bin/bin/../../lib/gcc/pic32c/8.3.1/../../../../pic32c/lib/thumb/v7-a+simd/hard\libc-musl.a(gmtime.o)
 .ARM.attributes
                0x00000000       0x37 c:/program files/microchip/xc32/v4.00/bin/bin/../../lib/gcc/pic32c/8.3.1/../../../../pic32c/lib/thumb/v7-a+simd/hard\libc-musl.a(gmtime.o)
 .text          0x00000000        0x0 c:/program files/microchip/xc32/v4.00/bin/bin/../../lib/gcc/pic32c/8.3.1/../../../../pic32c/lib/thumb/v7-a+simd/hard\libc-musl.a(gmtime_r.o)
 .data          0x00000000        0x0 c:/program files/microchip/xc32/v4.00/bin/bin/../../lib/gcc/pic32c/8.3.1/../../../../pic32c/lib/thumb/v7-a+simd/hard\libc-musl.a(gmtime_r.o)
 .bss           0x00000000        0x0 c:/program files/microchip/xc32/v4.00/bin/bin/../../lib/gcc/pic32c/8.3.1/../../../../pic32c/lib/thumb/v7-a+simd/hard\libc-musl.a(gmtime_r.o)
 .xc_stack_usage
                0x00000000       0x18 c:/program files/microchip/xc32/v4.00/bin/bin/../../lib/gcc/pic32c/8.3.1/../../../../pic32c/lib/thumb/v7-a+simd/hard\libc-musl.a(gmtime_r.o)
 .text.__gmtime_r
                0x00000000       0x34 c:/program files/microchip/xc32/v4.00/bin/bin/../../lib/gcc/pic32c/8.3.1/../../../../pic32c/lib/thumb/v7-a+simd/hard\libc-musl.a(gmtime_r.o)
 .xc_stack_usage.hdr
                0x00000000        0xe c:/program files/microchip/xc32/v4.00/bin/bin/../../lib/gcc/pic32c/8.3.1/../../../../pic32c/lib/thumb/v7-a+simd/hard\libc-musl.a(gmtime_r.o)
 .debug_info    0x00000000      0x77f c:/program files/microchip/xc32/v4.00/bin/bin/../../lib/gcc/pic32c/8.3.1/../../../../pic32c/lib/thumb/v7-a+simd/hard\libc-musl.a(gmtime_r.o)
 .debug_abbrev  0x00000000      0x10f c:/program files/microchip/xc32/v4.00/bin/bin/../../lib/gcc/pic32c/8.3.1/../../../../pic32c/lib/thumb/v7-a+simd/hard\libc-musl.a(gmtime_r.o)
 .debug_loc     0x00000000       0x84 c:/program files/microchip/xc32/v4.00/bin/bin/../../lib/gcc/pic32c/8.3.1/../../../../pic32c/lib/thumb/v7-a+simd/hard\libc-musl.a(gmtime_r.o)
 .debug_aranges
                0x00000000       0x20 c:/program files/microchip/xc32/v4.00/bin/bin/../../lib/gcc/pic32c/8.3.1/../../../../pic32c/lib/thumb/v7-a+simd/hard\libc-musl.a(gmtime_r.o)
 .debug_ranges  0x00000000       0x10 c:/program files/microchip/xc32/v4.00/bin/bin/../../lib/gcc/pic32c/8.3.1/../../../../pic32c/lib/thumb/v7-a+simd/hard\libc-musl.a(gmtime_r.o)
 .debug_line    0x00000000      0x27f c:/program files/microchip/xc32/v4.00/bin/bin/../../lib/gcc/pic32c/8.3.1/../../../../pic32c/lib/thumb/v7-a+simd/hard\libc-musl.a(gmtime_r.o)
 .debug_str     0x00000000        0xd c:/program files/microchip/xc32/v4.00/bin/bin/../../lib/gcc/pic32c/8.3.1/../../../../pic32c/lib/thumb/v7-a+simd/hard\libc-musl.a(gmtime_r.o)
 .comment       0x00000000       0x54 c:/program files/microchip/xc32/v4.00/bin/bin/../../lib/gcc/pic32c/8.3.1/../../../../pic32c/lib/thumb/v7-a+simd/hard\libc-musl.a(gmtime_r.o)
 .note.GNU-stack
                0x00000000        0x0 c:/program files/microchip/xc32/v4.00/bin/bin/../../lib/gcc/pic32c/8.3.1/../../../../pic32c/lib/thumb/v7-a+simd/hard\libc-musl.a(gmtime_r.o)
 .debug_frame   0x00000000       0x2c c:/program files/microchip/xc32/v4.00/bin/bin/../../lib/gcc/pic32c/8.3.1/../../../../pic32c/lib/thumb/v7-a+simd/hard\libc-musl.a(gmtime_r.o)
 .ARM.attributes
                0x00000000       0x37 c:/program files/microchip/xc32/v4.00/bin/bin/../../lib/gcc/pic32c/8.3.1/../../../../pic32c/lib/thumb/v7-a+simd/hard\libc-musl.a(gmtime_r.o)
 .text          0x00000000        0x0 c:/program files/microchip/xc32/v4.00/bin/bin/../../lib/gcc/pic32c/8.3.1/../../../../pic32c/lib/thumb/v7-a+simd/hard\libc-musl.a(__tz.o)
 .xc_stack_usage
                0x00000000       0xcf c:/program files/microchip/xc32/v4.00/bin/bin/../../lib/gcc/pic32c/8.3.1/../../../../pic32c/lib/thumb/v7-a+simd/hard\libc-musl.a(__tz.o)
 .text.__tzset  0x00000000        0x4 c:/program files/microchip/xc32/v4.00/bin/bin/../../lib/gcc/pic32c/8.3.1/../../../../pic32c/lib/thumb/v7-a+simd/hard\libc-musl.a(__tz.o)
 .text.__tm_to_tzname
                0x00000000        0xc c:/program files/microchip/xc32/v4.00/bin/bin/../../lib/gcc/pic32c/8.3.1/../../../../pic32c/lib/thumb/v7-a+simd/hard\libc-musl.a(__tz.o)
 .xc_stack_usage.hdr
                0x00000000        0xe c:/program files/microchip/xc32/v4.00/bin/bin/../../lib/gcc/pic32c/8.3.1/../../../../pic32c/lib/thumb/v7-a+simd/hard\libc-musl.a(__tz.o)
 .text          0x00000000        0x0 c:/program files/microchip/xc32/v4.00/bin/bin/../../lib/gcc/pic32c/8.3.1/../../../../pic32c/lib/thumb/v7-a+simd/hard\libc-musl.a(mktime.o)
 .data          0x00000000        0x0 c:/program files/microchip/xc32/v4.00/bin/bin/../../lib/gcc/pic32c/8.3.1/../../../../pic32c/lib/thumb/v7-a+simd/hard\libc-musl.a(mktime.o)
 .bss           0x00000000        0x0 c:/program files/microchip/xc32/v4.00/bin/bin/../../lib/gcc/pic32c/8.3.1/../../../../pic32c/lib/thumb/v7-a+simd/hard\libc-musl.a(mktime.o)
 .xc_stack_usage
                0x00000000       0x14 c:/program files/microchip/xc32/v4.00/bin/bin/../../lib/gcc/pic32c/8.3.1/../../../../pic32c/lib/thumb/v7-a+simd/hard\libc-musl.a(mktime.o)
 .xc_stack_usage.hdr
                0x00000000        0xe c:/program files/microchip/xc32/v4.00/bin/bin/../../lib/gcc/pic32c/8.3.1/../../../../pic32c/lib/thumb/v7-a+simd/hard\libc-musl.a(mktime.o)
 .text          0x00000000        0x0 c:/program files/microchip/xc32/v4.00/bin/bin/../../lib/gcc/pic32c/8.3.1/../../../../pic32c/lib/thumb/v7-a+simd/hard\libc-musl.a(__environ.o)
 .data          0x00000000        0x0 c:/program files/microchip/xc32/v4.00/bin/bin/../../lib/gcc/pic32c/8.3.1/../../../../pic32c/lib/thumb/v7-a+simd/hard\libc-musl.a(__environ.o)
 .xc_stack_usage.hdr
                0x00000000        0xe c:/program files/microchip/xc32/v4.00/bin/bin/../../lib/gcc/pic32c/8.3.1/../../../../pic32c/lib/thumb/v7-a+simd/hard\libc-musl.a(__environ.o)
 .text          0x00000000        0x0 c:/program files/microchip/xc32/v4.00/bin/bin/../../lib/gcc/pic32c/8.3.1/../../../../pic32c/lib/thumb/v7-a+simd/hard\libc-musl.a(__errno_location.o)
 .data          0x00000000        0x0 c:/program files/microchip/xc32/v4.00/bin/bin/../../lib/gcc/pic32c/8.3.1/../../../../pic32c/lib/thumb/v7-a+simd/hard\libc-musl.a(__errno_location.o)
 .xc_stack_usage.hdr
                0x00000000        0xe c:/program files/microchip/xc32/v4.00/bin/bin/../../lib/gcc/pic32c/8.3.1/../../../../pic32c/lib/thumb/v7-a+simd/hard\libc-musl.a(__errno_location.o)
 .text          0x00000000        0x0 c:/program files/microchip/xc32/v4.00/bin/bin/../../lib/gcc/pic32c/8.3.1/../../../../pic32c/lib/thumb/v7-a+simd/hard\libc-musl.a(vfprintf.o)
 .data          0x00000000        0x0 c:/program files/microchip/xc32/v4.00/bin/bin/../../lib/gcc/pic32c/8.3.1/../../../../pic32c/lib/thumb/v7-a+simd/hard\libc-musl.a(vfprintf.o)
 .bss           0x00000000        0x0 c:/program files/microchip/xc32/v4.00/bin/bin/../../lib/gcc/pic32c/8.3.1/../../../../pic32c/lib/thumb/v7-a+simd/hard\libc-musl.a(vfprintf.o)
 .xc_stack_usage
                0x00000000       0x38 c:/program files/microchip/xc32/v4.00/bin/bin/../../lib/gcc/pic32c/8.3.1/../../../../pic32c/lib/thumb/v7-a+simd/hard\libc-musl.a(vfprintf.o)
 .xc_stack_usage.hdr
                0x00000000        0xe c:/program files/microchip/xc32/v4.00/bin/bin/../../lib/gcc/pic32c/8.3.1/../../../../pic32c/lib/thumb/v7-a+simd/hard\libc-musl.a(vfprintf.o)
 .text          0x00000000        0x0 c:/program files/microchip/xc32/v4.00/bin/bin/../../lib/gcc/pic32c/8.3.1/../../../../pic32c/lib/thumb/v7-a+simd/hard\libc-musl.a(stpcpy.o)
 .data          0x00000000        0x0 c:/program files/microchip/xc32/v4.00/bin/bin/../../lib/gcc/pic32c/8.3.1/../../../../pic32c/lib/thumb/v7-a+simd/hard\libc-musl.a(stpcpy.o)
 .bss           0x00000000        0x0 c:/program files/microchip/xc32/v4.00/bin/bin/../../lib/gcc/pic32c/8.3.1/../../../../pic32c/lib/thumb/v7-a+simd/hard\libc-musl.a(stpcpy.o)
 .xc_stack_usage
                0x00000000       0x14 c:/program files/microchip/xc32/v4.00/bin/bin/../../lib/gcc/pic32c/8.3.1/../../../../pic32c/lib/thumb/v7-a+simd/hard\libc-musl.a(stpcpy.o)
 .xc_stack_usage.hdr
                0x00000000        0xe c:/program files/microchip/xc32/v4.00/bin/bin/../../lib/gcc/pic32c/8.3.1/../../../../pic32c/lib/thumb/v7-a+simd/hard\libc-musl.a(stpcpy.o)
 .text          0x00000000        0x0 c:/program files/microchip/xc32/v4.00/bin/bin/../../lib/gcc/pic32c/8.3.1/../../../../pic32c/lib/thumb/v7-a+simd/hard\libc-musl.a(strcspn.o)
 .data          0x00000000        0x0 c:/program files/microchip/xc32/v4.00/bin/bin/../../lib/gcc/pic32c/8.3.1/../../../../pic32c/lib/thumb/v7-a+simd/hard\libc-musl.a(strcspn.o)
 .bss           0x00000000        0x0 c:/program files/microchip/xc32/v4.00/bin/bin/../../lib/gcc/pic32c/8.3.1/../../../../pic32c/lib/thumb/v7-a+simd/hard\libc-musl.a(strcspn.o)
 .xc_stack_usage
                0x00000000       0x15 c:/program files/microchip/xc32/v4.00/bin/bin/../../lib/gcc/pic32c/8.3.1/../../../../pic32c/lib/thumb/v7-a+simd/hard\libc-musl.a(strcspn.o)
 .xc_stack_usage.hdr
                0x00000000        0xe c:/program files/microchip/xc32/v4.00/bin/bin/../../lib/gcc/pic32c/8.3.1/../../../../pic32c/lib/thumb/v7-a+simd/hard\libc-musl.a(strcspn.o)
 .text          0x00000000        0x0 c:/program files/microchip/xc32/v4.00/bin/bin/../../lib/gcc/pic32c/8.3.1/../../../../pic32c/lib/thumb/v7-a+simd/hard\libc-musl.a(strspn.o)
 .data          0x00000000        0x0 c:/program files/microchip/xc32/v4.00/bin/bin/../../lib/gcc/pic32c/8.3.1/../../../../pic32c/lib/thumb/v7-a+simd/hard\libc-musl.a(strspn.o)
 .bss           0x00000000        0x0 c:/program files/microchip/xc32/v4.00/bin/bin/../../lib/gcc/pic32c/8.3.1/../../../../pic32c/lib/thumb/v7-a+simd/hard\libc-musl.a(strspn.o)
 .xc_stack_usage
                0x00000000       0x14 c:/program files/microchip/xc32/v4.00/bin/bin/../../lib/gcc/pic32c/8.3.1/../../../../pic32c/lib/thumb/v7-a+simd/hard\libc-musl.a(strspn.o)
 .xc_stack_usage.hdr
                0x00000000        0xe c:/program files/microchip/xc32/v4.00/bin/bin/../../lib/gcc/pic32c/8.3.1/../../../../pic32c/lib/thumb/v7-a+simd/hard\libc-musl.a(strspn.o)
 .text          0x00000000        0x0 c:/program files/microchip/xc32/v4.00/bin/bin/../../lib/gcc/pic32c/8.3.1/../../../../pic32c/lib/thumb/v7-a+simd/hard\libc-musl.a(__month_to_secs.o)
 .data          0x00000000        0x0 c:/program files/microchip/xc32/v4.00/bin/bin/../../lib/gcc/pic32c/8.3.1/../../../../pic32c/lib/thumb/v7-a+simd/hard\libc-musl.a(__month_to_secs.o)
 .bss           0x00000000        0x0 c:/program files/microchip/xc32/v4.00/bin/bin/../../lib/gcc/pic32c/8.3.1/../../../../pic32c/lib/thumb/v7-a+simd/hard\libc-musl.a(__month_to_secs.o)
 .xc_stack_usage
                0x00000000       0x1d c:/program files/microchip/xc32/v4.00/bin/bin/../../lib/gcc/pic32c/8.3.1/../../../../pic32c/lib/thumb/v7-a+simd/hard\libc-musl.a(__month_to_secs.o)
 .xc_stack_usage.hdr
                0x00000000        0xe c:/program files/microchip/xc32/v4.00/bin/bin/../../lib/gcc/pic32c/8.3.1/../../../../pic32c/lib/thumb/v7-a+simd/hard\libc-musl.a(__month_to_secs.o)
 .text          0x00000000        0x0 c:/program files/microchip/xc32/v4.00/bin/bin/../../lib/gcc/pic32c/8.3.1/../../../../pic32c/lib/thumb/v7-a+simd/hard\libc-musl.a(__secs_to_tm.o)
 .data          0x00000000        0x0 c:/program files/microchip/xc32/v4.00/bin/bin/../../lib/gcc/pic32c/8.3.1/../../../../pic32c/lib/thumb/v7-a+simd/hard\libc-musl.a(__secs_to_tm.o)
 .bss           0x00000000        0x0 c:/program files/microchip/xc32/v4.00/bin/bin/../../lib/gcc/pic32c/8.3.1/../../../../pic32c/lib/thumb/v7-a+simd/hard\libc-musl.a(__secs_to_tm.o)
 .xc_stack_usage
                0x00000000       0x1a c:/program files/microchip/xc32/v4.00/bin/bin/../../lib/gcc/pic32c/8.3.1/../../../../pic32c/lib/thumb/v7-a+simd/hard\libc-musl.a(__secs_to_tm.o)
 .xc_stack_usage.hdr
                0x00000000        0xe c:/program files/microchip/xc32/v4.00/bin/bin/../../lib/gcc/pic32c/8.3.1/../../../../pic32c/lib/thumb/v7-a+simd/hard\libc-musl.a(__secs_to_tm.o)
 .text          0x00000000        0x0 c:/program files/microchip/xc32/v4.00/bin/bin/../../lib/gcc/pic32c/8.3.1/../../../../pic32c/lib/thumb/v7-a+simd/hard\libc-musl.a(__tm_to_secs.o)
 .data          0x00000000        0x0 c:/program files/microchip/xc32/v4.00/bin/bin/../../lib/gcc/pic32c/8.3.1/../../../../pic32c/lib/thumb/v7-a+simd/hard\libc-musl.a(__tm_to_secs.o)
 .bss           0x00000000        0x0 c:/program files/microchip/xc32/v4.00/bin/bin/../../lib/gcc/pic32c/8.3.1/../../../../pic32c/lib/thumb/v7-a+simd/hard\libc-musl.a(__tm_to_secs.o)
 .xc_stack_usage
                0x00000000       0x1a c:/program files/microchip/xc32/v4.00/bin/bin/../../lib/gcc/pic32c/8.3.1/../../../../pic32c/lib/thumb/v7-a+simd/hard\libc-musl.a(__tm_to_secs.o)
 .xc_stack_usage.hdr
                0x00000000        0xe c:/program files/microchip/xc32/v4.00/bin/bin/../../lib/gcc/pic32c/8.3.1/../../../../pic32c/lib/thumb/v7-a+simd/hard\libc-musl.a(__tm_to_secs.o)
 .text          0x00000000        0x0 c:/program files/microchip/xc32/v4.00/bin/bin/../../lib/gcc/pic32c/8.3.1/../../../../pic32c/lib/thumb/v7-a+simd/hard\libc-musl.a(__year_to_secs.o)
 .data          0x00000000        0x0 c:/program files/microchip/xc32/v4.00/bin/bin/../../lib/gcc/pic32c/8.3.1/../../../../pic32c/lib/thumb/v7-a+simd/hard\libc-musl.a(__year_to_secs.o)
 .bss           0x00000000        0x0 c:/program files/microchip/xc32/v4.00/bin/bin/../../lib/gcc/pic32c/8.3.1/../../../../pic32c/lib/thumb/v7-a+simd/hard\libc-musl.a(__year_to_secs.o)
 .xc_stack_usage
                0x00000000       0x1c c:/program files/microchip/xc32/v4.00/bin/bin/../../lib/gcc/pic32c/8.3.1/../../../../pic32c/lib/thumb/v7-a+simd/hard\libc-musl.a(__year_to_secs.o)
 .xc_stack_usage.hdr
                0x00000000        0xe c:/program files/microchip/xc32/v4.00/bin/bin/../../lib/gcc/pic32c/8.3.1/../../../../pic32c/lib/thumb/v7-a+simd/hard\libc-musl.a(__year_to_secs.o)
 .text          0x00000000        0x0 c:/program files/microchip/xc32/v4.00/bin/bin/../../lib/gcc/pic32c/8.3.1/../../../../pic32c/lib/thumb/v7-a+simd/hard\libc-musl.a(__io_fmt_needed.o)
 .data          0x00000000        0x0 c:/program files/microchip/xc32/v4.00/bin/bin/../../lib/gcc/pic32c/8.3.1/../../../../pic32c/lib/thumb/v7-a+simd/hard\libc-musl.a(__io_fmt_needed.o)
 .bss           0x00000000        0x0 c:/program files/microchip/xc32/v4.00/bin/bin/../../lib/gcc/pic32c/8.3.1/../../../../pic32c/lib/thumb/v7-a+simd/hard\libc-musl.a(__io_fmt_needed.o)
 .xc_stack_usage
                0x00000000       0x1d c:/program files/microchip/xc32/v4.00/bin/bin/../../lib/gcc/pic32c/8.3.1/../../../../pic32c/lib/thumb/v7-a+simd/hard\libc-musl.a(__io_fmt_needed.o)
 .xc_stack_usage.hdr
                0x00000000        0xe c:/program files/microchip/xc32/v4.00/bin/bin/../../lib/gcc/pic32c/8.3.1/../../../../pic32c/lib/thumb/v7-a+simd/hard\libc-musl.a(__io_fmt_needed.o)
 .debug_info    0x00000000      0x8fe c:/program files/microchip/xc32/v4.00/bin/bin/../../lib/gcc/pic32c/8.3.1/../../../../pic32c/lib/thumb/v7-a+simd/hard\libc-musl.a(__io_fmt_needed.o)
 .debug_abbrev  0x00000000      0x108 c:/program files/microchip/xc32/v4.00/bin/bin/../../lib/gcc/pic32c/8.3.1/../../../../pic32c/lib/thumb/v7-a+simd/hard\libc-musl.a(__io_fmt_needed.o)
 .debug_loc     0x00000000       0x2c c:/program files/microchip/xc32/v4.00/bin/bin/../../lib/gcc/pic32c/8.3.1/../../../../pic32c/lib/thumb/v7-a+simd/hard\libc-musl.a(__io_fmt_needed.o)
 .debug_aranges
                0x00000000       0x20 c:/program files/microchip/xc32/v4.00/bin/bin/../../lib/gcc/pic32c/8.3.1/../../../../pic32c/lib/thumb/v7-a+simd/hard\libc-musl.a(__io_fmt_needed.o)
 .debug_ranges  0x00000000       0x10 c:/program files/microchip/xc32/v4.00/bin/bin/../../lib/gcc/pic32c/8.3.1/../../../../pic32c/lib/thumb/v7-a+simd/hard\libc-musl.a(__io_fmt_needed.o)
 .debug_line    0x00000000      0x1e5 c:/program files/microchip/xc32/v4.00/bin/bin/../../lib/gcc/pic32c/8.3.1/../../../../pic32c/lib/thumb/v7-a+simd/hard\libc-musl.a(__io_fmt_needed.o)
 .debug_str     0x00000000       0x69 c:/program files/microchip/xc32/v4.00/bin/bin/../../lib/gcc/pic32c/8.3.1/../../../../pic32c/lib/thumb/v7-a+simd/hard\libc-musl.a(__io_fmt_needed.o)
 .comment       0x00000000       0x54 c:/program files/microchip/xc32/v4.00/bin/bin/../../lib/gcc/pic32c/8.3.1/../../../../pic32c/lib/thumb/v7-a+simd/hard\libc-musl.a(__io_fmt_needed.o)
 .note.GNU-stack
                0x00000000        0x0 c:/program files/microchip/xc32/v4.00/bin/bin/../../lib/gcc/pic32c/8.3.1/../../../../pic32c/lib/thumb/v7-a+simd/hard\libc-musl.a(__io_fmt_needed.o)
 .debug_frame   0x00000000       0x2c c:/program files/microchip/xc32/v4.00/bin/bin/../../lib/gcc/pic32c/8.3.1/../../../../pic32c/lib/thumb/v7-a+simd/hard\libc-musl.a(__io_fmt_needed.o)
 .ARM.attributes
                0x00000000       0x37 c:/program files/microchip/xc32/v4.00/bin/bin/../../lib/gcc/pic32c/8.3.1/../../../../pic32c/lib/thumb/v7-a+simd/hard\libc-musl.a(__io_fmt_needed.o)
 .text          0x00000000        0x0 c:/program files/microchip/xc32/v4.00/bin/bin/../../lib/gcc/pic32c/8.3.1/../../../../pic32c/lib/thumb/v7-a+simd/hard\libc-musl.a(__printf_core.o)
 .data          0x00000000        0x0 c:/program files/microchip/xc32/v4.00/bin/bin/../../lib/gcc/pic32c/8.3.1/../../../../pic32c/lib/thumb/v7-a+simd/hard\libc-musl.a(__printf_core.o)
 .bss           0x00000000        0x0 c:/program files/microchip/xc32/v4.00/bin/bin/../../lib/gcc/pic32c/8.3.1/../../../../pic32c/lib/thumb/v7-a+simd/hard\libc-musl.a(__printf_core.o)
 .xc_stack_usage
                0x00000000       0xaf c:/program files/microchip/xc32/v4.00/bin/bin/../../lib/gcc/pic32c/8.3.1/../../../../pic32c/lib/thumb/v7-a+simd/hard\libc-musl.a(__printf_core.o)
 .text.__dummy_fmt3
                0x00000000        0x4 c:/program files/microchip/xc32/v4.00/bin/bin/../../lib/gcc/pic32c/8.3.1/../../../../pic32c/lib/thumb/v7-a+simd/hard\libc-musl.a(__printf_core.o)
 .text.__dummy_fmt4
                0x00000000        0x4 c:/program files/microchip/xc32/v4.00/bin/bin/../../lib/gcc/pic32c/8.3.1/../../../../pic32c/lib/thumb/v7-a+simd/hard\libc-musl.a(__printf_core.o)
 .text.__dummy_fmts
                0x00000000        0x4 c:/program files/microchip/xc32/v4.00/bin/bin/../../lib/gcc/pic32c/8.3.1/../../../../pic32c/lib/thumb/v7-a+simd/hard\libc-musl.a(__printf_core.o)
 .xc_stack_usage.hdr
                0x00000000        0xe c:/program files/microchip/xc32/v4.00/bin/bin/../../lib/gcc/pic32c/8.3.1/../../../../pic32c/lib/thumb/v7-a+simd/hard\libc-musl.a(__printf_core.o)
 .text          0x00000000        0x0 c:/program files/microchip/xc32/v4.00/bin/bin/../../lib/gcc/pic32c/8.3.1/../../../../pic32c/lib/thumb/v7-a+simd/hard\libc-musl.a(tolower.o)
 .data          0x00000000        0x0 c:/program files/microchip/xc32/v4.00/bin/bin/../../lib/gcc/pic32c/8.3.1/../../../../pic32c/lib/thumb/v7-a+simd/hard\libc-musl.a(tolower.o)
 .bss           0x00000000        0x0 c:/program files/microchip/xc32/v4.00/bin/bin/../../lib/gcc/pic32c/8.3.1/../../../../pic32c/lib/thumb/v7-a+simd/hard\libc-musl.a(tolower.o)
 .xc_stack_usage
                0x00000000       0x2e c:/program files/microchip/xc32/v4.00/bin/bin/../../lib/gcc/pic32c/8.3.1/../../../../pic32c/lib/thumb/v7-a+simd/hard\libc-musl.a(tolower.o)
 .text.__tolower_l
                0x00000000        0x4 c:/program files/microchip/xc32/v4.00/bin/bin/../../lib/gcc/pic32c/8.3.1/../../../../pic32c/lib/thumb/v7-a+simd/hard\libc-musl.a(tolower.o)
 .xc_stack_usage.hdr
                0x00000000        0xe c:/program files/microchip/xc32/v4.00/bin/bin/../../lib/gcc/pic32c/8.3.1/../../../../pic32c/lib/thumb/v7-a+simd/hard\libc-musl.a(tolower.o)
 .text          0x00000000        0x0 c:/program files/microchip/xc32/v4.00/bin/bin/../../lib/gcc/pic32c/8.3.1/../../../../pic32c/lib/thumb/v7-a+simd/hard\libc-musl.a(__fmt_a.o)
 .data          0x00000000        0x0 c:/program files/microchip/xc32/v4.00/bin/bin/../../lib/gcc/pic32c/8.3.1/../../../../pic32c/lib/thumb/v7-a+simd/hard\libc-musl.a(__fmt_a.o)
 .bss           0x00000000        0x0 c:/program files/microchip/xc32/v4.00/bin/bin/../../lib/gcc/pic32c/8.3.1/../../../../pic32c/lib/thumb/v7-a+simd/hard\libc-musl.a(__fmt_a.o)
 .xc_stack_usage
                0x00000000       0x15 c:/program files/microchip/xc32/v4.00/bin/bin/../../lib/gcc/pic32c/8.3.1/../../../../pic32c/lib/thumb/v7-a+simd/hard\libc-musl.a(__fmt_a.o)
 .xc_stack_usage.hdr
                0x00000000        0xe c:/program files/microchip/xc32/v4.00/bin/bin/../../lib/gcc/pic32c/8.3.1/../../../../pic32c/lib/thumb/v7-a+simd/hard\libc-musl.a(__fmt_a.o)
 .text          0x00000000        0x0 c:/program files/microchip/xc32/v4.00/bin/bin/../../lib/gcc/pic32c/8.3.1/../../../../pic32c/lib/thumb/v7-a+simd/hard\libc-musl.a(__fmt_d.o)
 .data          0x00000000        0x0 c:/program files/microchip/xc32/v4.00/bin/bin/../../lib/gcc/pic32c/8.3.1/../../../../pic32c/lib/thumb/v7-a+simd/hard\libc-musl.a(__fmt_d.o)
 .bss           0x00000000        0x0 c:/program files/microchip/xc32/v4.00/bin/bin/../../lib/gcc/pic32c/8.3.1/../../../../pic32c/lib/thumb/v7-a+simd/hard\libc-musl.a(__fmt_d.o)
 .xc_stack_usage
                0x00000000       0x15 c:/program files/microchip/xc32/v4.00/bin/bin/../../lib/gcc/pic32c/8.3.1/../../../../pic32c/lib/thumb/v7-a+simd/hard\libc-musl.a(__fmt_d.o)
 .xc_stack_usage.hdr
                0x00000000        0xe c:/program files/microchip/xc32/v4.00/bin/bin/../../lib/gcc/pic32c/8.3.1/../../../../pic32c/lib/thumb/v7-a+simd/hard\libc-musl.a(__fmt_d.o)
 .text          0x00000000        0x0 c:/program files/microchip/xc32/v4.00/bin/bin/../../lib/gcc/pic32c/8.3.1/../../../../pic32c/lib/thumb/v7-a+simd/hard\libc-musl.a(__fmt_fp.o)
 .data          0x00000000        0x0 c:/program files/microchip/xc32/v4.00/bin/bin/../../lib/gcc/pic32c/8.3.1/../../../../pic32c/lib/thumb/v7-a+simd/hard\libc-musl.a(__fmt_fp.o)
 .bss           0x00000000        0x0 c:/program files/microchip/xc32/v4.00/bin/bin/../../lib/gcc/pic32c/8.3.1/../../../../pic32c/lib/thumb/v7-a+simd/hard\libc-musl.a(__fmt_fp.o)
 .xc_stack_usage
                0x00000000       0x16 c:/program files/microchip/xc32/v4.00/bin/bin/../../lib/gcc/pic32c/8.3.1/../../../../pic32c/lib/thumb/v7-a+simd/hard\libc-musl.a(__fmt_fp.o)
 .xc_stack_usage.hdr
                0x00000000        0xe c:/program files/microchip/xc32/v4.00/bin/bin/../../lib/gcc/pic32c/8.3.1/../../../../pic32c/lib/thumb/v7-a+simd/hard\libc-musl.a(__fmt_fp.o)
 .text          0x00000000        0x0 c:/program files/microchip/xc32/v4.00/bin/bin/../../lib/gcc/pic32c/8.3.1/../../../../pic32c/lib/thumb/v7-a+simd/hard\libc-musl.a(__fmt_o.o)
 .data          0x00000000        0x0 c:/program files/microchip/xc32/v4.00/bin/bin/../../lib/gcc/pic32c/8.3.1/../../../../pic32c/lib/thumb/v7-a+simd/hard\libc-musl.a(__fmt_o.o)
 .bss           0x00000000        0x0 c:/program files/microchip/xc32/v4.00/bin/bin/../../lib/gcc/pic32c/8.3.1/../../../../pic32c/lib/thumb/v7-a+simd/hard\libc-musl.a(__fmt_o.o)
 .xc_stack_usage
                0x00000000       0x15 c:/program files/microchip/xc32/v4.00/bin/bin/../../lib/gcc/pic32c/8.3.1/../../../../pic32c/lib/thumb/v7-a+simd/hard\libc-musl.a(__fmt_o.o)
 .xc_stack_usage.hdr
                0x00000000        0xe c:/program files/microchip/xc32/v4.00/bin/bin/../../lib/gcc/pic32c/8.3.1/../../../../pic32c/lib/thumb/v7-a+simd/hard\libc-musl.a(__fmt_o.o)
 .text          0x00000000        0x0 c:/program files/microchip/xc32/v4.00/bin/bin/../../lib/gcc/pic32c/8.3.1/../../../../pic32c/lib/thumb/v7-a+simd/hard\libc-musl.a(__fmt_s.o)
 .data          0x00000000        0x0 c:/program files/microchip/xc32/v4.00/bin/bin/../../lib/gcc/pic32c/8.3.1/../../../../pic32c/lib/thumb/v7-a+simd/hard\libc-musl.a(__fmt_s.o)
 .bss           0x00000000        0x0 c:/program files/microchip/xc32/v4.00/bin/bin/../../lib/gcc/pic32c/8.3.1/../../../../pic32c/lib/thumb/v7-a+simd/hard\libc-musl.a(__fmt_s.o)
 .xc_stack_usage
                0x00000000       0x15 c:/program files/microchip/xc32/v4.00/bin/bin/../../lib/gcc/pic32c/8.3.1/../../../../pic32c/lib/thumb/v7-a+simd/hard\libc-musl.a(__fmt_s.o)
 .xc_stack_usage.hdr
                0x00000000        0xe c:/program files/microchip/xc32/v4.00/bin/bin/../../lib/gcc/pic32c/8.3.1/../../../../pic32c/lib/thumb/v7-a+simd/hard\libc-musl.a(__fmt_s.o)
 .text          0x00000000        0x0 c:/program files/microchip/xc32/v4.00/bin/bin/../../lib/gcc/pic32c/8.3.1/../../../../pic32c/lib/thumb/v7-a+simd/hard\libc-musl.a(__fmt_u.o)
 .data          0x00000000        0x0 c:/program files/microchip/xc32/v4.00/bin/bin/../../lib/gcc/pic32c/8.3.1/../../../../pic32c/lib/thumb/v7-a+simd/hard\libc-musl.a(__fmt_u.o)
 .bss           0x00000000        0x0 c:/program files/microchip/xc32/v4.00/bin/bin/../../lib/gcc/pic32c/8.3.1/../../../../pic32c/lib/thumb/v7-a+simd/hard\libc-musl.a(__fmt_u.o)
 .xc_stack_usage
                0x00000000       0x2a c:/program files/microchip/xc32/v4.00/bin/bin/../../lib/gcc/pic32c/8.3.1/../../../../pic32c/lib/thumb/v7-a+simd/hard\libc-musl.a(__fmt_u.o)
 .xc_stack_usage.hdr
                0x00000000        0xe c:/program files/microchip/xc32/v4.00/bin/bin/../../lib/gcc/pic32c/8.3.1/../../../../pic32c/lib/thumb/v7-a+simd/hard\libc-musl.a(__fmt_u.o)
 .text          0x00000000        0x0 c:/program files/microchip/xc32/v4.00/bin/bin/../../lib/gcc/pic32c/8.3.1/../../../../pic32c/lib/thumb/v7-a+simd/hard\libc-musl.a(__fmt_x.o)
 .data          0x00000000        0x0 c:/program files/microchip/xc32/v4.00/bin/bin/../../lib/gcc/pic32c/8.3.1/../../../../pic32c/lib/thumb/v7-a+simd/hard\libc-musl.a(__fmt_x.o)
 .bss           0x00000000        0x0 c:/program files/microchip/xc32/v4.00/bin/bin/../../lib/gcc/pic32c/8.3.1/../../../../pic32c/lib/thumb/v7-a+simd/hard\libc-musl.a(__fmt_x.o)
 .xc_stack_usage
                0x00000000       0x15 c:/program files/microchip/xc32/v4.00/bin/bin/../../lib/gcc/pic32c/8.3.1/../../../../pic32c/lib/thumb/v7-a+simd/hard\libc-musl.a(__fmt_x.o)
 .xc_stack_usage.hdr
                0x00000000        0xe c:/program files/microchip/xc32/v4.00/bin/bin/../../lib/gcc/pic32c/8.3.1/../../../../pic32c/lib/thumb/v7-a+simd/hard\libc-musl.a(__fmt_x.o)
 .text          0x00000000        0x0 c:/program files/microchip/xc32/v4.00/bin/bin/../../lib/gcc/pic32c/8.3.1/../../../../pic32c/lib/thumb/v7-a+simd/hard\libc-musl.a(__pop_float.o)
 .data          0x00000000        0x0 c:/program files/microchip/xc32/v4.00/bin/bin/../../lib/gcc/pic32c/8.3.1/../../../../pic32c/lib/thumb/v7-a+simd/hard\libc-musl.a(__pop_float.o)
 .bss           0x00000000        0x0 c:/program files/microchip/xc32/v4.00/bin/bin/../../lib/gcc/pic32c/8.3.1/../../../../pic32c/lib/thumb/v7-a+simd/hard\libc-musl.a(__pop_float.o)
 .xc_stack_usage
                0x00000000       0x19 c:/program files/microchip/xc32/v4.00/bin/bin/../../lib/gcc/pic32c/8.3.1/../../../../pic32c/lib/thumb/v7-a+simd/hard\libc-musl.a(__pop_float.o)
 .xc_stack_usage.hdr
                0x00000000        0xe c:/program files/microchip/xc32/v4.00/bin/bin/../../lib/gcc/pic32c/8.3.1/../../../../pic32c/lib/thumb/v7-a+simd/hard\libc-musl.a(__pop_float.o)
 .text          0x00000000        0x0 c:/program files/microchip/xc32/v4.00/bin/bin/../../lib/gcc/pic32c/8.3.1/../../../../pic32c/lib/thumb/v7-a+simd/hard\libc-musl.a(__pop_int.o)
 .data          0x00000000        0x0 c:/program files/microchip/xc32/v4.00/bin/bin/../../lib/gcc/pic32c/8.3.1/../../../../pic32c/lib/thumb/v7-a+simd/hard\libc-musl.a(__pop_int.o)
 .bss           0x00000000        0x0 c:/program files/microchip/xc32/v4.00/bin/bin/../../lib/gcc/pic32c/8.3.1/../../../../pic32c/lib/thumb/v7-a+simd/hard\libc-musl.a(__pop_int.o)
 .xc_stack_usage
                0x00000000       0x17 c:/program files/microchip/xc32/v4.00/bin/bin/../../lib/gcc/pic32c/8.3.1/../../../../pic32c/lib/thumb/v7-a+simd/hard\libc-musl.a(__pop_int.o)
 .xc_stack_usage.hdr
                0x00000000        0xe c:/program files/microchip/xc32/v4.00/bin/bin/../../lib/gcc/pic32c/8.3.1/../../../../pic32c/lib/thumb/v7-a+simd/hard\libc-musl.a(__pop_int.o)
 .text          0x00000000        0x0 c:/program files/microchip/xc32/v4.00/bin/bin/../../lib/gcc/pic32c/8.3.1/../../../../pic32c/lib/thumb/v7-a+simd/hard\libc-musl.a(__pop_ptr.o)
 .data          0x00000000        0x0 c:/program files/microchip/xc32/v4.00/bin/bin/../../lib/gcc/pic32c/8.3.1/../../../../pic32c/lib/thumb/v7-a+simd/hard\libc-musl.a(__pop_ptr.o)
 .bss           0x00000000        0x0 c:/program files/microchip/xc32/v4.00/bin/bin/../../lib/gcc/pic32c/8.3.1/../../../../pic32c/lib/thumb/v7-a+simd/hard\libc-musl.a(__pop_ptr.o)
 .xc_stack_usage
                0x00000000       0x17 c:/program files/microchip/xc32/v4.00/bin/bin/../../lib/gcc/pic32c/8.3.1/../../../../pic32c/lib/thumb/v7-a+simd/hard\libc-musl.a(__pop_ptr.o)
 .xc_stack_usage.hdr
                0x00000000        0xe c:/program files/microchip/xc32/v4.00/bin/bin/../../lib/gcc/pic32c/8.3.1/../../../../pic32c/lib/thumb/v7-a+simd/hard\libc-musl.a(__pop_ptr.o)
 .text          0x00000000        0x0 c:/program files/microchip/xc32/v4.00/bin/bin/../../lib/gcc/pic32c/8.3.1/../../../../pic32c/lib/thumb/v7-a+simd/hard\libc-musl.a(toupper.o)
 .data          0x00000000        0x0 c:/program files/microchip/xc32/v4.00/bin/bin/../../lib/gcc/pic32c/8.3.1/../../../../pic32c/lib/thumb/v7-a+simd/hard\libc-musl.a(toupper.o)
 .bss           0x00000000        0x0 c:/program files/microchip/xc32/v4.00/bin/bin/../../lib/gcc/pic32c/8.3.1/../../../../pic32c/lib/thumb/v7-a+simd/hard\libc-musl.a(toupper.o)
 .xc_stack_usage
                0x00000000       0x2e c:/program files/microchip/xc32/v4.00/bin/bin/../../lib/gcc/pic32c/8.3.1/../../../../pic32c/lib/thumb/v7-a+simd/hard\libc-musl.a(toupper.o)
 .text.__toupper_l
                0x00000000        0x4 c:/program files/microchip/xc32/v4.00/bin/bin/../../lib/gcc/pic32c/8.3.1/../../../../pic32c/lib/thumb/v7-a+simd/hard\libc-musl.a(toupper.o)
 .xc_stack_usage.hdr
                0x00000000        0xe c:/program files/microchip/xc32/v4.00/bin/bin/../../lib/gcc/pic32c/8.3.1/../../../../pic32c/lib/thumb/v7-a+simd/hard\libc-musl.a(toupper.o)
 .text          0x00000000        0x0 c:/program files/microchip/xc32/v4.00/bin/bin/../../lib/gcc/pic32c/8.3.1/../../../../pic32c/lib/thumb/v7-a+simd/hard\libm-musl.a(floor.o)
 .data          0x00000000        0x0 c:/program files/microchip/xc32/v4.00/bin/bin/../../lib/gcc/pic32c/8.3.1/../../../../pic32c/lib/thumb/v7-a+simd/hard\libm-musl.a(floor.o)
 .bss           0x00000000        0x0 c:/program files/microchip/xc32/v4.00/bin/bin/../../lib/gcc/pic32c/8.3.1/../../../../pic32c/lib/thumb/v7-a+simd/hard\libm-musl.a(floor.o)
 .xc_stack_usage
                0x00000000       0x13 c:/program files/microchip/xc32/v4.00/bin/bin/../../lib/gcc/pic32c/8.3.1/../../../../pic32c/lib/thumb/v7-a+simd/hard\libm-musl.a(floor.o)
 .xc_stack_usage.hdr
                0x00000000        0xe c:/program files/microchip/xc32/v4.00/bin/bin/../../lib/gcc/pic32c/8.3.1/../../../../pic32c/lib/thumb/v7-a+simd/hard\libm-musl.a(floor.o)
 .text          0x00000000        0x0 c:/program files/microchip/xc32/v4.00/bin/bin/../../lib/gcc/pic32c/8.3.1/../../../../pic32c/lib/thumb/v7-a+simd/hard\libm-musl.a(fma.o)
 .data          0x00000000        0x0 c:/program files/microchip/xc32/v4.00/bin/bin/../../lib/gcc/pic32c/8.3.1/../../../../pic32c/lib/thumb/v7-a+simd/hard\libm-musl.a(fma.o)
 .bss           0x00000000        0x0 c:/program files/microchip/xc32/v4.00/bin/bin/../../lib/gcc/pic32c/8.3.1/../../../../pic32c/lib/thumb/v7-a+simd/hard\libm-musl.a(fma.o)
 .xc_stack_usage
                0x00000000       0x28 c:/program files/microchip/xc32/v4.00/bin/bin/../../lib/gcc/pic32c/8.3.1/../../../../pic32c/lib/thumb/v7-a+simd/hard\libm-musl.a(fma.o)
 .xc_stack_usage.hdr
                0x00000000        0xe c:/program files/microchip/xc32/v4.00/bin/bin/../../lib/gcc/pic32c/8.3.1/../../../../pic32c/lib/thumb/v7-a+simd/hard\libm-musl.a(fma.o)
 .text          0x00000000        0x0 c:/program files/microchip/xc32/v4.00/bin/bin/../../lib/gcc/pic32c/8.3.1/../../../../pic32c/lib/thumb/v7-a+simd/hard\libm-musl.a(scalbn.o)
 .data          0x00000000        0x0 c:/program files/microchip/xc32/v4.00/bin/bin/../../lib/gcc/pic32c/8.3.1/../../../../pic32c/lib/thumb/v7-a+simd/hard\libm-musl.a(scalbn.o)
 .bss           0x00000000        0x0 c:/program files/microchip/xc32/v4.00/bin/bin/../../lib/gcc/pic32c/8.3.1/../../../../pic32c/lib/thumb/v7-a+simd/hard\libm-musl.a(scalbn.o)
 .xc_stack_usage
                0x00000000       0x14 c:/program files/microchip/xc32/v4.00/bin/bin/../../lib/gcc/pic32c/8.3.1/../../../../pic32c/lib/thumb/v7-a+simd/hard\libm-musl.a(scalbn.o)
 .xc_stack_usage.hdr
                0x00000000        0xe c:/program files/microchip/xc32/v4.00/bin/bin/../../lib/gcc/pic32c/8.3.1/../../../../pic32c/lib/thumb/v7-a+simd/hard\libm-musl.a(scalbn.o)
 .text          0x00000000        0x0 c:/program files/microchip/xc32/v4.00/bin/bin/../../lib/gcc/pic32c/8.3.1/../../../../pic32c/lib/thumb/v7-a+simd/hard\libpic32c.a(sbrk.o)
 .data          0x00000000        0x0 c:/program files/microchip/xc32/v4.00/bin/bin/../../lib/gcc/pic32c/8.3.1/../../../../pic32c/lib/thumb/v7-a+simd/hard\libpic32c.a(sbrk.o)
 .xc_stack_usage
                0x00000000       0x13 c:/program files/microchip/xc32/v4.00/bin/bin/../../lib/gcc/pic32c/8.3.1/../../../../pic32c/lib/thumb/v7-a+simd/hard\libpic32c.a(sbrk.o)
 .xc_stack_usage.hdr
                0x00000000        0xe c:/program files/microchip/xc32/v4.00/bin/bin/../../lib/gcc/pic32c/8.3.1/../../../../pic32c/lib/thumb/v7-a+simd/hard\libpic32c.a(sbrk.o)
 .data          0x00000000        0x0 c:/program files/microchip/xc32/v4.00/bin/bin/../../lib/gcc/pic32c/8.3.1/thumb/v7-a+simd/hard\libgcc.a(_arm_addsubdf3.o)
 .bss           0x00000000        0x0 c:/program files/microchip/xc32/v4.00/bin/bin/../../lib/gcc/pic32c/8.3.1/thumb/v7-a+simd/hard\libgcc.a(_arm_addsubdf3.o)
 .xc_stack_usage.hdr
                0x00000000        0xe c:/program files/microchip/xc32/v4.00/bin/bin/../../lib/gcc/pic32c/8.3.1/thumb/v7-a+simd/hard\libgcc.a(_arm_addsubdf3.o)
 .xc_stack_usage
                0x00000000       0xca c:/program files/microchip/xc32/v4.00/bin/bin/../../lib/gcc/pic32c/8.3.1/thumb/v7-a+simd/hard\libgcc.a(_arm_addsubdf3.o)
 .data          0x00000000        0x0 c:/program files/microchip/xc32/v4.00/bin/bin/../../lib/gcc/pic32c/8.3.1/thumb/v7-a+simd/hard\libgcc.a(_aeabi_ldivmod.o)
 .bss           0x00000000        0x0 c:/program files/microchip/xc32/v4.00/bin/bin/../../lib/gcc/pic32c/8.3.1/thumb/v7-a+simd/hard\libgcc.a(_aeabi_ldivmod.o)
 .xc_stack_usage.hdr
                0x00000000        0xe c:/program files/microchip/xc32/v4.00/bin/bin/../../lib/gcc/pic32c/8.3.1/thumb/v7-a+simd/hard\libgcc.a(_aeabi_ldivmod.o)
 .xc_stack_usage
                0x00000000       0x1d c:/program files/microchip/xc32/v4.00/bin/bin/../../lib/gcc/pic32c/8.3.1/thumb/v7-a+simd/hard\libgcc.a(_aeabi_ldivmod.o)
 .text          0x00000000        0x0 c:/program files/microchip/xc32/v4.00/bin/bin/../../lib/gcc/pic32c/8.3.1/thumb/v7-a+simd/hard/crtend.o
 .data          0x00000000        0x0 c:/program files/microchip/xc32/v4.00/bin/bin/../../lib/gcc/pic32c/8.3.1/thumb/v7-a+simd/hard/crtend.o
 .bss           0x00000000        0x0 c:/program files/microchip/xc32/v4.00/bin/bin/../../lib/gcc/pic32c/8.3.1/thumb/v7-a+simd/hard/crtend.o
 .eh_frame      0x00000000        0x4 c:/program files/microchip/xc32/v4.00/bin/bin/../../lib/gcc/pic32c/8.3.1/thumb/v7-a+simd/hard/crtend.o
 .xc_stack_usage.hdr
                0x00000000        0xe c:/program files/microchip/xc32/v4.00/bin/bin/../../lib/gcc/pic32c/8.3.1/thumb/v7-a+simd/hard/crtend.o
 .comment       0x00000000       0x54 c:/program files/microchip/xc32/v4.00/bin/bin/../../lib/gcc/pic32c/8.3.1/thumb/v7-a+simd/hard/crtend.o
 .ARM.attributes
                0x00000000       0x31 c:/program files/microchip/xc32/v4.00/bin/bin/../../lib/gcc/pic32c/8.3.1/thumb/v7-a+simd/hard/crtend.o
 .text          0x00000000        0x0 c:/program files/microchip/xc32/v4.00/bin/bin/../../lib/gcc/pic32c/8.3.1/thumb/v7-a+simd/hard/crtn.o
 .data          0x00000000        0x0 c:/program files/microchip/xc32/v4.00/bin/bin/../../lib/gcc/pic32c/8.3.1/thumb/v7-a+simd/hard/crtn.o
 .bss           0x00000000        0x0 c:/program files/microchip/xc32/v4.00/bin/bin/../../lib/gcc/pic32c/8.3.1/thumb/v7-a+simd/hard/crtn.o
 .xc_stack_usage.hdr
                0x00000000        0xe c:/program files/microchip/xc32/v4.00/bin/bin/../../lib/gcc/pic32c/8.3.1/thumb/v7-a+simd/hard/crtn.o

Memory Configuration

Name             Origin             Length             Attributes
sram             0x00200000         0x00020000         !xrw
ram              0x21000000         0x07000000         xrw
ram_nocache      0x20000000         0x01000000         !xrw
rom              0x00000000         0x00000000         xrl
*default*        0x00000000         0xffffffff

Linker script and memory map

LOAD c:/program files/microchip/xc32/v4.00/bin/bin/../../lib/gcc/pic32c/8.3.1/thumb/v7-a+simd/hard/crti.o
LOAD c:/program files/microchip/xc32/v4.00/bin/bin/../../lib/gcc/pic32c/8.3.1/thumb/v7-a+simd/hard/crtbegin.o
LOAD build/sam_a5d27_som1_winc1500/production/_ext/1971804060/drv_spi.o
LOAD build/sam_a5d27_som1_winc1500/production/_ext/1615170836/wdrv_winc_eint.o
LOAD build/sam_a5d27_som1_winc1500/production/_ext/1615170836/wdrv_winc_gpio.o
LOAD build/sam_a5d27_som1_winc1500/production/_ext/467732753/wdrv_winc_spi.o
LOAD build/sam_a5d27_som1_winc1500/production/_ext/461596885/nm_common.o
LOAD build/sam_a5d27_som1_winc1500/production/_ext/492885778/m2m_hif.o
LOAD build/sam_a5d27_som1_winc1500/production/_ext/492885778/nmbus.o
LOAD build/sam_a5d27_som1_winc1500/production/_ext/492885778/nmdrv.o
LOAD build/sam_a5d27_som1_winc1500/production/_ext/492885778/m2m_wifi.o
LOAD build/sam_a5d27_som1_winc1500/production/_ext/492885778/m2m_ssl.o
LOAD build/sam_a5d27_som1_winc1500/production/_ext/492885778/nmasic.o
LOAD build/sam_a5d27_som1_winc1500/production/_ext/492885778/nmspi.o
LOAD build/sam_a5d27_som1_winc1500/production/_ext/492885778/m2m_periph.o
LOAD build/sam_a5d27_som1_winc1500/production/_ext/492885778/m2m_ota.o
LOAD build/sam_a5d27_som1_winc1500/production/_ext/919363165/inet_addr.o
LOAD build/sam_a5d27_som1_winc1500/production/_ext/919363165/inet_ntop.o
LOAD build/sam_a5d27_som1_winc1500/production/_ext/919363165/socket.o
LOAD build/sam_a5d27_som1_winc1500/production/_ext/2123267981/flexible_flash.o
LOAD build/sam_a5d27_som1_winc1500/production/_ext/2123267981/spi_flash.o
LOAD build/sam_a5d27_som1_winc1500/production/_ext/141899762/wdrv_winc_osal.o
LOAD build/sam_a5d27_som1_winc1500/production/_ext/1528743604/wdrv_winc_sta.o
LOAD build/sam_a5d27_som1_winc1500/production/_ext/1528743604/wdrv_winc_wps.o
LOAD build/sam_a5d27_som1_winc1500/production/_ext/1528743604/wdrv_winc_authctx.o
LOAD build/sam_a5d27_som1_winc1500/production/_ext/1528743604/wdrv_winc_bssfind.o
LOAD build/sam_a5d27_som1_winc1500/production/_ext/1528743604/wdrv_winc_host_file.o
LOAD build/sam_a5d27_som1_winc1500/production/_ext/1528743604/wdrv_winc_softap.o
LOAD build/sam_a5d27_som1_winc1500/production/_ext/1528743604/wdrv_winc_ssl.o
LOAD build/sam_a5d27_som1_winc1500/production/_ext/1528743604/wdrv_winc_systime.o
LOAD build/sam_a5d27_som1_winc1500/production/_ext/1528743604/wdrv_winc_socket.o
LOAD build/sam_a5d27_som1_winc1500/production/_ext/1528743604/wdrv_winc_bssctx.o
LOAD build/sam_a5d27_som1_winc1500/production/_ext/1528743604/wdrv_winc_nvm.o
LOAD build/sam_a5d27_som1_winc1500/production/_ext/1528743604/wdrv_winc_custie.o
LOAD build/sam_a5d27_som1_winc1500/production/_ext/1528743604/wdrv_winc_httpprovctx.o
LOAD build/sam_a5d27_som1_winc1500/production/_ext/1528743604/wdrv_winc_enterprise.o
LOAD build/sam_a5d27_som1_winc1500/production/_ext/1528743604/wdrv_winc_powersave.o
LOAD build/sam_a5d27_som1_winc1500/production/_ext/1528743604/wdrv_winc.o
LOAD build/sam_a5d27_som1_winc1500/production/_ext/1528743604/wdrv_winc_assoc.o
LOAD build/sam_a5d27_som1_winc1500/production/_ext/192068182/plib_aic.o
LOAD build/sam_a5d27_som1_winc1500/production/_ext/192066159/plib_clk.o
LOAD build/sam_a5d27_som1_winc1500/production/_ext/1834821283/plib_flexcom4_spi_master.o
LOAD build/sam_a5d27_som1_winc1500/production/_ext/669990670/plib_matrix.o
LOAD build/sam_a5d27_som1_winc1500/production/_ext/192056508/plib_mmu.o
LOAD build/sam_a5d27_som1_winc1500/production/_ext/192053755/plib_pio.o
LOAD build/sam_a5d27_som1_winc1500/production/_ext/6195168/plib_tc0.o
LOAD build/sam_a5d27_som1_winc1500/production/_ext/1658557633/plib_uart1.o
LOAD build/sam_a5d27_som1_winc1500/production/_ext/127175570/plib_xdmac0.o
LOAD build/sam_a5d27_som1_winc1500/production/_ext/149286087/xc32_monitor.o
LOAD build/sam_a5d27_som1_winc1500/production/_ext/710391900/sys_cache.o
LOAD build/sam_a5d27_som1_winc1500/production/_ext/1238961202/sys_console.o
LOAD build/sam_a5d27_som1_winc1500/production/_ext/1238961202/sys_console_uart.o
LOAD build/sam_a5d27_som1_winc1500/production/_ext/931592374/sys_debug.o
LOAD build/sam_a5d27_som1_winc1500/production/_ext/737894/sys_dma.o
LOAD build/sam_a5d27_som1_winc1500/production/_ext/1629436774/sys_int.o
LOAD build/sam_a5d27_som1_winc1500/production/_ext/668867648/sys_time.o
LOAD build/sam_a5d27_som1_winc1500/production/_ext/1420715725/interrupts.o
LOAD build/sam_a5d27_som1_winc1500/production/_ext/1420715725/fault_handlers.o
LOAD build/sam_a5d27_som1_winc1500/production/_ext/1420715725/cstartup.o
LOAD build/sam_a5d27_som1_winc1500/production/_ext/1420715725/tasks.o
LOAD build/sam_a5d27_som1_winc1500/production/_ext/1420715725/initialization.o
LOAD build/sam_a5d27_som1_winc1500/production/_ext/1360937237/main.o
LOAD build/sam_a5d27_som1_winc1500/production/_ext/1360937237/app.o
LOAD build/sam_a5d27_som1_winc1500/production/_ext/1360937237/example.o
                0x00000001                __MPLAB_BUILD = 0x1
                0x00001000                C_STACK_SIZE = 0x1000
                0x00000060                IRQ_STACK_SIZE = 0x60
                0x00000060                FIQ_STACK_SIZE = 0x60
                0x00001000                SVC_STACK_SIZE = 0x1000
                0x00000040                ABT_STACK_SIZE = 0x40
                0x00000040                UND_STACK_SIZE = 0x40

.text           0x26f00000     0xd350
                0x26f00000                . = ALIGN (0x4)
                0x26f00000                _sfixed = .
 *(.textEntry)
 .textEntry     0x26f00000      0x13c build/sam_a5d27_som1_winc1500/production/_ext/1420715725/cstartup.o
                0x26f00000                entry
 *(.text .text.* .gnu.linkonce.t.*)
 .text          0x26f0013c       0x50 c:/program files/microchip/xc32/v4.00/bin/bin/../../lib/gcc/pic32c/8.3.1/thumb/v7-a+simd/hard/crtbegin.o
 .text._DRV_SPI_DriverHandleValidate
                0x26f0018c       0x50 build/sam_a5d27_som1_winc1500/production/_ext/1971804060/drv_spi.o
 .text._DRV_SPI_RemoveTransferObjFromList
                0x26f001dc       0x12 build/sam_a5d27_som1_winc1500/production/_ext/1971804060/drv_spi.o
 .text._DRV_SPI_TX_DMA_CallbackHandler
                0x26f001ee       0x58 build/sam_a5d27_som1_winc1500/production/_ext/1971804060/drv_spi.o
                0x26f001ee                _DRV_SPI_TX_DMA_CallbackHandler
 .text._DRV_SPI_UpdateTransferSetupAndAssertCS
                0x26f00246       0x90 build/sam_a5d27_som1_winc1500/production/_ext/1971804060/drv_spi.o
 .text._DRV_SPI_StartDMATransfer
                0x26f002d6      0x1ec build/sam_a5d27_som1_winc1500/production/_ext/1971804060/drv_spi.o
 .text._DRV_SPI_ResourceLock
                0x26f004c2       0xca build/sam_a5d27_som1_winc1500/production/_ext/1971804060/drv_spi.o
 .text._DRV_SPI_ResourceUnlock
                0x26f0058c       0xb4 build/sam_a5d27_som1_winc1500/production/_ext/1971804060/drv_spi.o
 .text._DRV_SPI_RX_DMA_CallbackHandler
                0x26f00640      0x158 build/sam_a5d27_som1_winc1500/production/_ext/1971804060/drv_spi.o
                0x26f00640                _DRV_SPI_RX_DMA_CallbackHandler
 .text._DRV_SPI_PlibCallbackHandler
                0x26f00798       0xca build/sam_a5d27_som1_winc1500/production/_ext/1971804060/drv_spi.o
 *fill*         0x26f00862        0x2 
 .text.DRV_SPI_Initialize
                0x26f00864      0x10c build/sam_a5d27_som1_winc1500/production/_ext/1971804060/drv_spi.o
                0x26f00864                DRV_SPI_Initialize
 .text.DRV_SPI_Open
                0x26f00970      0x180 build/sam_a5d27_som1_winc1500/production/_ext/1971804060/drv_spi.o
                0x26f00970                DRV_SPI_Open
 .text.DRV_SPI_TransferEventHandlerSet
                0x26f00af0       0x64 build/sam_a5d27_som1_winc1500/production/_ext/1971804060/drv_spi.o
                0x26f00af0                DRV_SPI_TransferEventHandlerSet
 .text.DRV_SPI_WriteReadTransferAdd
                0x26f00b54      0x224 build/sam_a5d27_som1_winc1500/production/_ext/1971804060/drv_spi.o
                0x26f00b54                DRV_SPI_WriteReadTransferAdd
 .text.DRV_SPI_WriteTransferAdd
                0x26f00d78       0x14 build/sam_a5d27_som1_winc1500/production/_ext/1971804060/drv_spi.o
                0x26f00d78                DRV_SPI_WriteTransferAdd
 .text.WDRV_WINC_INTInitialize
                0x26f00d8c       0x24 build/sam_a5d27_som1_winc1500/production/_ext/1615170836/wdrv_winc_eint.o
                0x26f00d8c                WDRV_WINC_INTInitialize
 .text.WDRV_WINC_INTDeinitialize
                0x26f00db0       0x14 build/sam_a5d27_som1_winc1500/production/_ext/1615170836/wdrv_winc_eint.o
                0x26f00db0                WDRV_WINC_INTDeinitialize
 .text.WDRV_WINC_GPIOResetAssert
                0x26f00dc4        0xe build/sam_a5d27_som1_winc1500/production/_ext/1615170836/wdrv_winc_gpio.o
                0x26f00dc4                WDRV_WINC_GPIOResetAssert
 .text.WDRV_WINC_GPIOResetDeassert
                0x26f00dd2        0xe build/sam_a5d27_som1_winc1500/production/_ext/1615170836/wdrv_winc_gpio.o
                0x26f00dd2                WDRV_WINC_GPIOResetDeassert
 .text.WDRV_WINC_GPIOChipEnableAssert
                0x26f00de0       0x10 build/sam_a5d27_som1_winc1500/production/_ext/1615170836/wdrv_winc_gpio.o
                0x26f00de0                WDRV_WINC_GPIOChipEnableAssert
 .text.WDRV_WINC_GPIOChipEnableDeassert
                0x26f00df0       0x10 build/sam_a5d27_som1_winc1500/production/_ext/1615170836/wdrv_winc_gpio.o
                0x26f00df0                WDRV_WINC_GPIOChipEnableDeassert
 .text._WDRV_WINC_SPITransferEventHandler
                0x26f00e00       0x42 build/sam_a5d27_som1_winc1500/production/_ext/467732753/wdrv_winc_spi.o
 .text.WDRV_WINC_SPISend
                0x26f00e42       0x50 build/sam_a5d27_som1_winc1500/production/_ext/467732753/wdrv_winc_spi.o
                0x26f00e42                WDRV_WINC_SPISend
 .text.WDRV_WINC_SPIReceive
                0x26f00e92       0x60 build/sam_a5d27_som1_winc1500/production/_ext/467732753/wdrv_winc_spi.o
                0x26f00e92                WDRV_WINC_SPIReceive
 .text.WDRV_WINC_SPIOpen
                0x26f00ef2       0x74 build/sam_a5d27_som1_winc1500/production/_ext/467732753/wdrv_winc_spi.o
                0x26f00ef2                WDRV_WINC_SPIOpen
 .text.WDRV_WINC_SPIInitialize
                0x26f00f66       0x16 build/sam_a5d27_som1_winc1500/production/_ext/467732753/wdrv_winc_spi.o
                0x26f00f66                WDRV_WINC_SPIInitialize
 .text.WDRV_WINC_SPIDeinitialize
                0x26f00f7c       0x28 build/sam_a5d27_som1_winc1500/production/_ext/467732753/wdrv_winc_spi.o
                0x26f00f7c                WDRV_WINC_SPIDeinitialize
 .text.nm_sleep
                0x26f00fa4        0x8 build/sam_a5d27_som1_winc1500/production/_ext/461596885/nm_common.o
                0x26f00fa4                nm_sleep
 .text.nm_reset
                0x26f00fac       0x26 build/sam_a5d27_som1_winc1500/production/_ext/461596885/nm_common.o
                0x26f00fac                nm_reset
 .text.m2m_hif_cb
                0x26f00fd2        0x2 build/sam_a5d27_som1_winc1500/production/_ext/492885778/m2m_hif.o
 .text.hif_set_rx_done
                0x26f00fd4       0x3a build/sam_a5d27_som1_winc1500/production/_ext/492885778/m2m_hif.o
 .text.hif_chip_wake
                0x26f0100e       0x4c build/sam_a5d27_som1_winc1500/production/_ext/492885778/m2m_hif.o
                0x26f0100e                hif_chip_wake
 .text.hif_chip_sleep_sc
                0x26f0105a       0x20 build/sam_a5d27_som1_winc1500/production/_ext/492885778/m2m_hif.o
                0x26f0105a                hif_chip_sleep_sc
 .text.hif_chip_sleep
                0x26f0107a       0x44 build/sam_a5d27_som1_winc1500/production/_ext/492885778/m2m_hif.o
                0x26f0107a                hif_chip_sleep
 .text.hif_deinit
                0x26f010be       0x24 build/sam_a5d27_som1_winc1500/production/_ext/492885778/m2m_hif.o
                0x26f010be                hif_deinit
 *fill*         0x26f010e2        0x2 
 .text.hif_send
                0x26f010e4      0x290 build/sam_a5d27_som1_winc1500/production/_ext/492885778/m2m_hif.o
                0x26f010e4                hif_send
 .text.hif_handle_isr
                0x26f01374      0x3c8 build/sam_a5d27_som1_winc1500/production/_ext/492885778/m2m_hif.o
                0x26f01374                hif_handle_isr
 .text.hif_receive
                0x26f0173c       0xe0 build/sam_a5d27_som1_winc1500/production/_ext/492885778/m2m_hif.o
                0x26f0173c                hif_receive
 .text.hif_register_cb
                0x26f0181c       0x9c build/sam_a5d27_som1_winc1500/production/_ext/492885778/m2m_hif.o
                0x26f0181c                hif_register_cb
 .text.hif_init
                0x26f018b8       0x44 build/sam_a5d27_som1_winc1500/production/_ext/492885778/m2m_hif.o
                0x26f018b8                hif_init
 .text.nm_bus_iface_init
                0x26f018fc       0x10 build/sam_a5d27_som1_winc1500/production/_ext/492885778/nmbus.o
                0x26f018fc                nm_bus_iface_init
 .text.nm_bus_iface_deinit
                0x26f0190c        0x4 build/sam_a5d27_som1_winc1500/production/_ext/492885778/nmbus.o
                0x26f0190c                nm_bus_iface_deinit
 .text.nm_bus_reset
                0x26f01910        0x8 build/sam_a5d27_som1_winc1500/production/_ext/492885778/nmbus.o
                0x26f01910                nm_bus_reset
 .text.nm_read_reg
                0x26f01918        0x8 build/sam_a5d27_som1_winc1500/production/_ext/492885778/nmbus.o
                0x26f01918                nm_read_reg
 .text.nm_read_reg_with_ret
                0x26f01920        0x8 build/sam_a5d27_som1_winc1500/production/_ext/492885778/nmbus.o
                0x26f01920                nm_read_reg_with_ret
 .text.nm_write_reg
                0x26f01928        0x8 build/sam_a5d27_som1_winc1500/production/_ext/492885778/nmbus.o
                0x26f01928                nm_write_reg
 .text.nm_read_block
                0x26f01930       0x5a build/sam_a5d27_som1_winc1500/production/_ext/492885778/nmbus.o
                0x26f01930                nm_read_block
 .text.nm_write_block
                0x26f0198a       0x5a build/sam_a5d27_som1_winc1500/production/_ext/492885778/nmbus.o
                0x26f0198a                nm_write_block
 .text.nm_get_firmware_full_info
                0x26f019e4       0xd0 build/sam_a5d27_som1_winc1500/production/_ext/492885778/nmdrv.o
                0x26f019e4                nm_get_firmware_full_info
 .text.nm_drv_init_download_mode
                0x26f01ab4       0x78 build/sam_a5d27_som1_winc1500/production/_ext/492885778/nmdrv.o
                0x26f01ab4                nm_drv_init_download_mode
 .text.nm_drv_init_hold
                0x26f01b2c       0x70 build/sam_a5d27_som1_winc1500/production/_ext/492885778/nmdrv.o
                0x26f01b2c                nm_drv_init_hold
 .text.nm_drv_init_start
                0x26f01b9c       0x60 build/sam_a5d27_som1_winc1500/production/_ext/492885778/nmdrv.o
                0x26f01b9c                nm_drv_init_start
 .text.nm_drv_deinit
                0x26f01bfc       0x70 build/sam_a5d27_som1_winc1500/production/_ext/492885778/nmdrv.o
                0x26f01bfc                nm_drv_deinit
 .text.m2m_wifi_cb
                0x26f01c6c      0x3f4 build/sam_a5d27_som1_winc1500/production/_ext/492885778/m2m_wifi.o
 .text.m2m_wifi_connect_prepare_msg
                0x26f02060       0xca build/sam_a5d27_som1_winc1500/production/_ext/492885778/m2m_wifi.o
 *fill*         0x26f0212a        0x2 
 .text.m2m_validate_ap_parameters
                0x26f0212c      0x114 build/sam_a5d27_som1_winc1500/production/_ext/492885778/m2m_wifi.o
 .text.m2m_wifi_download_mode
                0x26f02240       0x20 build/sam_a5d27_som1_winc1500/production/_ext/492885778/m2m_wifi.o
                0x26f02240                m2m_wifi_download_mode
 .text.m2m_wifi_init_hold
                0x26f02260       0x1a build/sam_a5d27_som1_winc1500/production/_ext/492885778/m2m_wifi.o
                0x26f02260                m2m_wifi_init_hold
 *fill*         0x26f0227a        0x2 
 .text.m2m_wifi_init_start
                0x26f0227c      0x198 build/sam_a5d27_som1_winc1500/production/_ext/492885778/m2m_wifi.o
                0x26f0227c                m2m_wifi_init_start
 .text.m2m_wifi_deinit
                0x26f02414       0x1e build/sam_a5d27_som1_winc1500/production/_ext/492885778/m2m_wifi.o
                0x26f02414                m2m_wifi_deinit
 .text.m2m_wifi_handle_events
                0x26f02432        0x8 build/sam_a5d27_som1_winc1500/production/_ext/492885778/m2m_wifi.o
                0x26f02432                m2m_wifi_handle_events
 .text.m2m_wifi_connect_open
                0x26f0243a       0x36 build/sam_a5d27_som1_winc1500/production/_ext/492885778/m2m_wifi.o
                0x26f0243a                m2m_wifi_connect_open
 .text.m2m_wifi_connect_psk
                0x26f02470      0x108 build/sam_a5d27_som1_winc1500/production/_ext/492885778/m2m_wifi.o
                0x26f02470                m2m_wifi_connect_psk
 .text.m2m_wifi_connect_1x_mschap2
                0x26f02578      0x128 build/sam_a5d27_som1_winc1500/production/_ext/492885778/m2m_wifi.o
                0x26f02578                m2m_wifi_connect_1x_mschap2
 .text.m2m_wifi_connect_1x_tls
                0x26f026a0      0x1bc build/sam_a5d27_som1_winc1500/production/_ext/492885778/m2m_wifi.o
                0x26f026a0                m2m_wifi_connect_1x_tls
 .text.m2m_wifi_set_static_ip
                0x26f0285c       0x1e build/sam_a5d27_som1_winc1500/production/_ext/492885778/m2m_wifi.o
                0x26f0285c                m2m_wifi_set_static_ip
 .text.m2m_wifi_enable_dhcp
                0x26f0287a       0x24 build/sam_a5d27_som1_winc1500/production/_ext/492885778/m2m_wifi.o
                0x26f0287a                m2m_wifi_enable_dhcp
 .text.m2m_wifi_enable_ap_ext
                0x26f0289e       0x2a build/sam_a5d27_som1_winc1500/production/_ext/492885778/m2m_wifi.o
                0x26f0289e                m2m_wifi_enable_ap_ext
 .text.m2m_wifi_disable_ap
                0x26f028c8       0x1c build/sam_a5d27_som1_winc1500/production/_ext/492885778/m2m_wifi.o
                0x26f028c8                m2m_wifi_disable_ap
 .text.m2m_wifi_get_mac_address
                0x26f028e4       0x24 build/sam_a5d27_som1_winc1500/production/_ext/492885778/m2m_wifi.o
                0x26f028e4                m2m_wifi_get_mac_address
 .text.m2m_wifi_req_scan_result
                0x26f02908       0x22 build/sam_a5d27_som1_winc1500/production/_ext/492885778/m2m_wifi.o
                0x26f02908                m2m_wifi_req_scan_result
 .text.m2m_wifi_get_num_ap_found
                0x26f0292a        0xc build/sam_a5d27_som1_winc1500/production/_ext/492885778/m2m_wifi.o
                0x26f0292a                m2m_wifi_get_num_ap_found
 .text.m2m_wifi_get_chipId
                0x26f02936        0x8 build/sam_a5d27_som1_winc1500/production/_ext/492885778/m2m_wifi.o
                0x26f02936                m2m_wifi_get_chipId
 *fill*         0x26f0293e        0x2 
 .text.m2m_wifi_start_provision_mode_ext
                0x26f02940       0xa4 build/sam_a5d27_som1_winc1500/production/_ext/492885778/m2m_wifi.o
                0x26f02940                m2m_wifi_start_provision_mode_ext
 .text.m2m_wifi_stop_provision_mode
                0x26f029e4       0x1c build/sam_a5d27_som1_winc1500/production/_ext/492885778/m2m_wifi.o
                0x26f029e4                m2m_wifi_stop_provision_mode
 .text.m2m_wifi_get_state
                0x26f02a00        0xc build/sam_a5d27_som1_winc1500/production/_ext/492885778/m2m_wifi.o
                0x26f02a00                m2m_wifi_get_state
 .text.m2m_ssl_cb
                0x26f02a0c      0x16c build/sam_a5d27_som1_winc1500/production/_ext/492885778/m2m_ssl.o
 .text.m2m_ssl_init
                0x26f02b78       0x54 build/sam_a5d27_som1_winc1500/production/_ext/492885778/m2m_ssl.o
                0x26f02b78                m2m_ssl_init
 .text.chip_apply_conf
                0x26f02bcc       0x2e build/sam_a5d27_som1_winc1500/production/_ext/492885778/nmasic.o
                0x26f02bcc                chip_apply_conf
 .text.enable_interrupts
                0x26f02bfa       0x58 build/sam_a5d27_som1_winc1500/production/_ext/492885778/nmasic.o
                0x26f02bfa                enable_interrupts
 .text.nmi_get_chipid
                0x26f02c52       0xf4 build/sam_a5d27_som1_winc1500/production/_ext/492885778/nmasic.o
                0x26f02c52                nmi_get_chipid
 .text.chip_sleep
                0x26f02d46       0x68 build/sam_a5d27_som1_winc1500/production/_ext/492885778/nmasic.o
                0x26f02d46                chip_sleep
 *fill*         0x26f02dae        0x2 
 .text.chip_wake
                0x26f02db0       0x98 build/sam_a5d27_som1_winc1500/production/_ext/492885778/nmasic.o
                0x26f02db0                chip_wake
 .text.cpu_halt
                0x26f02e48       0x66 build/sam_a5d27_som1_winc1500/production/_ext/492885778/nmasic.o
                0x26f02e48                cpu_halt
 *fill*         0x26f02eae        0x2 
 .text.wait_for_bootrom
                0x26f02eb0      0x154 build/sam_a5d27_som1_winc1500/production/_ext/492885778/nmasic.o
                0x26f02eb0                wait_for_bootrom
 .text.wait_for_firmware_start
                0x26f03004       0xdc build/sam_a5d27_som1_winc1500/production/_ext/492885778/nmasic.o
                0x26f03004                wait_for_firmware_start
 .text.chip_deinit
                0x26f030e0       0x5c build/sam_a5d27_som1_winc1500/production/_ext/492885778/nmasic.o
                0x26f030e0                chip_deinit
 .text.nmi_get_mac_address
                0x26f0313c       0x58 build/sam_a5d27_som1_winc1500/production/_ext/492885778/nmasic.o
                0x26f0313c                nmi_get_mac_address
 .text.spi_cmd  0x26f03194      0x160 build/sam_a5d27_som1_winc1500/production/_ext/492885778/nmspi.o
 .text.spi_cmd_rsp
                0x26f032f4       0xec build/sam_a5d27_som1_winc1500/production/_ext/492885778/nmspi.o
 .text.spi_data_read
                0x26f033e0      0x120 build/sam_a5d27_som1_winc1500/production/_ext/492885778/nmspi.o
 .text.spi_reset
                0x26f03500       0x2c build/sam_a5d27_som1_winc1500/production/_ext/492885778/nmspi.o
 .text.nm_spi_reset
                0x26f0352c       0x44 build/sam_a5d27_som1_winc1500/production/_ext/492885778/nmspi.o
                0x26f0352c                nm_spi_reset
 .text.nm_spi_lock_init
                0x26f03570        0xe build/sam_a5d27_som1_winc1500/production/_ext/492885778/nmspi.o
                0x26f03570                nm_spi_lock_init
 .text.nm_spi_deinit
                0x26f0357e        0xe build/sam_a5d27_som1_winc1500/production/_ext/492885778/nmspi.o
                0x26f0357e                nm_spi_deinit
 .text.nm_spi_read_reg_with_ret
                0x26f0358c      0x126 build/sam_a5d27_som1_winc1500/production/_ext/492885778/nmspi.o
                0x26f0358c                nm_spi_read_reg_with_ret
 .text.nm_spi_read_reg
                0x26f036b2       0x12 build/sam_a5d27_som1_winc1500/production/_ext/492885778/nmspi.o
                0x26f036b2                nm_spi_read_reg
 .text.nm_spi_write_reg
                0x26f036c4       0xfa build/sam_a5d27_som1_winc1500/production/_ext/492885778/nmspi.o
                0x26f036c4                nm_spi_write_reg
 *fill*         0x26f037be        0x2 
 .text.nm_spi_init
                0x26f037c0      0x128 build/sam_a5d27_som1_winc1500/production/_ext/492885778/nmspi.o
                0x26f037c0                nm_spi_init
 .text.nm_spi_read_block
                0x26f038e8      0x11e build/sam_a5d27_som1_winc1500/production/_ext/492885778/nmspi.o
                0x26f038e8                nm_spi_read_block
 .text.nm_spi_write_block
                0x26f03a06      0x226 build/sam_a5d27_som1_winc1500/production/_ext/492885778/nmspi.o
                0x26f03a06                nm_spi_write_block
 .text.m2m_ota_cb
                0x26f03c2c      0x1ec build/sam_a5d27_som1_winc1500/production/_ext/492885778/m2m_ota.o
 .text.m2m_ota_init
                0x26f03e18       0x48 build/sam_a5d27_som1_winc1500/production/_ext/492885778/m2m_ota.o
                0x26f03e18                m2m_ota_init
 .text.m2m_ota_host_file_read_hif
                0x26f03e60       0x66 build/sam_a5d27_som1_winc1500/production/_ext/492885778/m2m_ota.o
                0x26f03e60                m2m_ota_host_file_read_hif
 *fill*         0x26f03ec6        0x2 
 .text.m2m_ota_host_file_read_spi
                0x26f03ec8       0xfc build/sam_a5d27_som1_winc1500/production/_ext/492885778/m2m_ota.o
                0x26f03ec8                m2m_ota_host_file_read_spi
 .text.inet_addr
                0x26f03fc4       0xbc build/sam_a5d27_som1_winc1500/production/_ext/919363165/inet_addr.o
                0x26f03fc4                inet_addr
 .text.inet_ntop
                0x26f04080       0x9e build/sam_a5d27_som1_winc1500/production/_ext/919363165/inet_ntop.o
                0x26f04080                inet_ntop
 *fill*         0x26f0411e        0x2 
 .text.m2m_ip_cb
                0x26f04120      0x57c build/sam_a5d27_som1_winc1500/production/_ext/919363165/socket.o
 .text.socketInit
                0x26f0469c       0x48 build/sam_a5d27_som1_winc1500/production/_ext/919363165/socket.o
                0x26f0469c                socketInit
 .text.socketDeinit
                0x26f046e4       0x3c build/sam_a5d27_som1_winc1500/production/_ext/919363165/socket.o
                0x26f046e4                socketDeinit
 .text.registerSocketEventCallback
                0x26f04720        0xc build/sam_a5d27_som1_winc1500/production/_ext/919363165/socket.o
                0x26f04720                registerSocketEventCallback
 .text.socket   0x26f0472c      0x1f4 build/sam_a5d27_som1_winc1500/production/_ext/919363165/socket.o
                0x26f0472c                socket
 .text.bind     0x26f04920       0x9a build/sam_a5d27_som1_winc1500/production/_ext/919363165/socket.o
                0x26f04920                bind
 .text.listen   0x26f049ba       0x66 build/sam_a5d27_som1_winc1500/production/_ext/919363165/socket.o
                0x26f049ba                listen
 .text.accept   0x26f04a20       0x28 build/sam_a5d27_som1_winc1500/production/_ext/919363165/socket.o
                0x26f04a20                accept
 .text.recv     0x26f04a48       0xb8 build/sam_a5d27_som1_winc1500/production/_ext/919363165/socket.o
                0x26f04a48                recv
 .text.shutdown
                0x26f04b00       0xa0 build/sam_a5d27_som1_winc1500/production/_ext/919363165/socket.o
                0x26f04b00                shutdown
 .text.spi_flexible_flash_find_section
                0x26f04ba0       0x94 build/sam_a5d27_som1_winc1500/production/_ext/2123267981/flexible_flash.o
                0x26f04ba0                spi_flexible_flash_find_section
 .text.spi_flash_load_to_cortus_mem
                0x26f04c34       0xac build/sam_a5d27_som1_winc1500/production/_ext/2123267981/spi_flash.o
 .text.spi_flash_enable
                0x26f04ce0      0x110 build/sam_a5d27_som1_winc1500/production/_ext/2123267981/spi_flash.o
                0x26f04ce0                spi_flash_enable
 .text.spi_flash_read
                0x26f04df0       0x8c build/sam_a5d27_som1_winc1500/production/_ext/2123267981/spi_flash.o
                0x26f04df0                spi_flash_read
 .text.WDRV_MSDelay
                0x26f04e7c       0x22 build/sam_a5d27_som1_winc1500/production/_ext/141899762/wdrv_winc_osal.o
                0x26f04e7c                WDRV_MSDelay
 .text._WDRV_WINC_ConnNetCfg
                0x26f04e9e       0x66 build/sam_a5d27_som1_winc1500/production/_ext/1528743604/wdrv_winc_sta.o
 .text.WDRV_WINC_BSSConnect
                0x26f04f04      0x238 build/sam_a5d27_som1_winc1500/production/_ext/1528743604/wdrv_winc_sta.o
                0x26f04f04                WDRV_WINC_BSSConnect
 .text.WDRV_WINC_AuthCtxSetOpen
                0x26f0513c        0xe build/sam_a5d27_som1_winc1500/production/_ext/1528743604/wdrv_winc_authctx.o
                0x26f0513c                WDRV_WINC_AuthCtxSetOpen
 .text.WDRV_WINC_AuthCtxSetWPA
                0x26f0514a       0x3e build/sam_a5d27_som1_winc1500/production/_ext/1528743604/wdrv_winc_authctx.o
                0x26f0514a                WDRV_WINC_AuthCtxSetWPA
 .text.WDRV_WINC_HostFileRead
                0x26f05188      0x144 build/sam_a5d27_som1_winc1500/production/_ext/1528743604/wdrv_winc_host_file.o
                0x26f05188                WDRV_WINC_HostFileRead
 .text.WDRV_WINC_APStart
                0x26f052cc      0x196 build/sam_a5d27_som1_winc1500/production/_ext/1528743604/wdrv_winc_softap.o
                0x26f052cc                WDRV_WINC_APStart
 .text.WDRV_WINC_APStop
                0x26f05462       0x60 build/sam_a5d27_som1_winc1500/production/_ext/1528743604/wdrv_winc_softap.o
                0x26f05462                WDRV_WINC_APStop
 .text.WDRV_WINC_LocalTimeToUTC
                0x26f054c2       0x74 build/sam_a5d27_som1_winc1500/production/_ext/1528743604/wdrv_winc_systime.o
                0x26f054c2                WDRV_WINC_LocalTimeToUTC
 .text.WDRV_WINC_IPUseDHCPSet
                0x26f05536       0x34 build/sam_a5d27_som1_winc1500/production/_ext/1528743604/wdrv_winc_socket.o
                0x26f05536                WDRV_WINC_IPUseDHCPSet
 .text.WDRV_WINC_IPDHCPServerConfigure
                0x26f0556a       0x34 build/sam_a5d27_som1_winc1500/production/_ext/1528743604/wdrv_winc_socket.o
                0x26f0556a                WDRV_WINC_IPDHCPServerConfigure
 .text.WDRV_WINC_SocketRegisterEventCallback
                0x26f0559e       0x16 build/sam_a5d27_som1_winc1500/production/_ext/1528743604/wdrv_winc_socket.o
                0x26f0559e                WDRV_WINC_SocketRegisterEventCallback
 .text.WDRV_WINC_BSSCtxIsValid
                0x26f055b4       0x62 build/sam_a5d27_som1_winc1500/production/_ext/1528743604/wdrv_winc_bssctx.o
                0x26f055b4                WDRV_WINC_BSSCtxIsValid
 .text.WDRV_WINC_BSSCtxSetDefaults
                0x26f05616       0x24 build/sam_a5d27_som1_winc1500/production/_ext/1528743604/wdrv_winc_bssctx.o
                0x26f05616                WDRV_WINC_BSSCtxSetDefaults
 .text.WDRV_WINC_BSSCtxSetSSID
                0x26f0563a       0x42 build/sam_a5d27_som1_winc1500/production/_ext/1528743604/wdrv_winc_bssctx.o
                0x26f0563a                WDRV_WINC_BSSCtxSetSSID
 .text.WDRV_WINC_BSSCtxSetChannel
                0x26f0567c       0x2a build/sam_a5d27_som1_winc1500/production/_ext/1528743604/wdrv_winc_bssctx.o
                0x26f0567c                WDRV_WINC_BSSCtxSetChannel
 .text._WDRV_WINC_OTAUpdateCallback
                0x26f056a6       0x62 build/sam_a5d27_som1_winc1500/production/_ext/1528743604/wdrv_winc.o
 .text._WDRV_WINC_SSLCallback
                0x26f05708      0x10e build/sam_a5d27_som1_winc1500/production/_ext/1528743604/wdrv_winc.o
 .text._WDRV_WINC_WifiCallback
                0x26f05816      0x452 build/sam_a5d27_som1_winc1500/production/_ext/1528743604/wdrv_winc.o
 .text._WDRV_WINC_HostFileReadHIFCallback
                0x26f05c68      0x1d6 build/sam_a5d27_som1_winc1500/production/_ext/1528743604/wdrv_winc.o
 .text._WDRV_WINC_HostFileEraseCallback
                0x26f05e3e       0x60 build/sam_a5d27_som1_winc1500/production/_ext/1528743604/wdrv_winc.o
 .text._WDRV_WINC_HostFileGetCallback
                0x26f05e9e       0x90 build/sam_a5d27_som1_winc1500/production/_ext/1528743604/wdrv_winc.o
 .text.WDRV_WINC_Initialize
                0x26f05f2e       0x68 build/sam_a5d27_som1_winc1500/production/_ext/1528743604/wdrv_winc.o
                0x26f05f2e                WDRV_WINC_Initialize
 .text.WDRV_WINC_Status
                0x26f05f96       0x1e build/sam_a5d27_som1_winc1500/production/_ext/1528743604/wdrv_winc.o
                0x26f05f96                WDRV_WINC_Status
 .text.WDRV_WINC_Tasks
                0x26f05fb4      0x2a8 build/sam_a5d27_som1_winc1500/production/_ext/1528743604/wdrv_winc.o
                0x26f05fb4                WDRV_WINC_Tasks
 .text.WDRV_WINC_Open
                0x26f0625c      0x16e build/sam_a5d27_som1_winc1500/production/_ext/1528743604/wdrv_winc.o
                0x26f0625c                WDRV_WINC_Open
 .text.WDRV_WINC_ISR
                0x26f063ca       0x14 build/sam_a5d27_som1_winc1500/production/_ext/1528743604/wdrv_winc.o
                0x26f063ca                WDRV_WINC_ISR
 .text.AIC_INT_Initialize
                0x26f063de       0xd8 build/sam_a5d27_som1_winc1500/production/_ext/192068182/plib_aic.o
                0x26f063de                AIC_INT_Initialize
 .text.AIC_INT_IrqDisable
                0x26f064b6       0x20 build/sam_a5d27_som1_winc1500/production/_ext/192068182/plib_aic.o
                0x26f064b6                AIC_INT_IrqDisable
 .text.AIC_INT_IrqRestore
                0x26f064d6       0x12 build/sam_a5d27_som1_winc1500/production/_ext/192068182/plib_aic.o
                0x26f064d6                AIC_INT_IrqRestore
 .text.CLK_Initialize
                0x26f064e8       0x2c build/sam_a5d27_som1_winc1500/production/_ext/192066159/plib_clk.o
                0x26f064e8                CLK_Initialize
 .text.FLEXCOM4_SPI_Initialize
                0x26f06514       0x3a build/sam_a5d27_som1_winc1500/production/_ext/1834821283/plib_flexcom4_spi_master.o
                0x26f06514                FLEXCOM4_SPI_Initialize
 .text.FLEXCOM4_SPI_WriteRead
                0x26f0654e      0x1d4 build/sam_a5d27_som1_winc1500/production/_ext/1834821283/plib_flexcom4_spi_master.o
                0x26f0654e                FLEXCOM4_SPI_WriteRead
 .text.FLEXCOM4_SPI_TransferSetup
                0x26f06722       0x62 build/sam_a5d27_som1_winc1500/production/_ext/1834821283/plib_flexcom4_spi_master.o
                0x26f06722                FLEXCOM4_SPI_TransferSetup
 .text.FLEXCOM4_SPI_IsTransmitterBusy
                0x26f06784       0x16 build/sam_a5d27_som1_winc1500/production/_ext/1834821283/plib_flexcom4_spi_master.o
                0x26f06784                FLEXCOM4_SPI_IsTransmitterBusy
 .text.FLEXCOM4_SPI_CallbackRegister
                0x26f0679a        0xe build/sam_a5d27_som1_winc1500/production/_ext/1834821283/plib_flexcom4_spi_master.o
                0x26f0679a                FLEXCOM4_SPI_CallbackRegister
 .text.FLEXCOM4_InterruptHandler
                0x26f067a8      0x270 build/sam_a5d27_som1_winc1500/production/_ext/1834821283/plib_flexcom4_spi_master.o
                0x26f067a8                FLEXCOM4_InterruptHandler
 .text.Matrix_Initialize
                0x26f06a18       0x56 build/sam_a5d27_som1_winc1500/production/_ext/669990670/plib_matrix.o
                0x26f06a18                Matrix_Initialize
 .text.icache_Enable
                0x26f06a6e       0x22 build/sam_a5d27_som1_winc1500/production/_ext/192056508/plib_mmu.o
                0x26f06a6e                icache_Enable
 .text.MMU_Initialize
                0x26f06a90      0x2bc build/sam_a5d27_som1_winc1500/production/_ext/192056508/plib_mmu.o
                0x26f06a90                MMU_Initialize
 .text.PIO_Initialize
                0x26f06d4c       0x88 build/sam_a5d27_som1_winc1500/production/_ext/192053755/plib_pio.o
                0x26f06d4c                PIO_Initialize
 .text.PIO_PortSet
                0x26f06dd4        0xe build/sam_a5d27_som1_winc1500/production/_ext/192053755/plib_pio.o
                0x26f06dd4                PIO_PortSet
 .text.PIO_PortClear
                0x26f06de2        0xe build/sam_a5d27_som1_winc1500/production/_ext/192053755/plib_pio.o
                0x26f06de2                PIO_PortClear
 .text.PIO_PortInterruptEnable
                0x26f06df0        0xe build/sam_a5d27_som1_winc1500/production/_ext/192053755/plib_pio.o
                0x26f06df0                PIO_PortInterruptEnable
 .text.PIO_PortInterruptDisable
                0x26f06dfe        0xe build/sam_a5d27_som1_winc1500/production/_ext/192053755/plib_pio.o
                0x26f06dfe                PIO_PortInterruptDisable
 .text.PIO_PinInterruptCallbackRegister
                0x26f06e0c       0x6e build/sam_a5d27_som1_winc1500/production/_ext/192053755/plib_pio.o
                0x26f06e0c                PIO_PinInterruptCallbackRegister
 .text.PIOB_InterruptHandler
                0x26f06e7a       0x40 build/sam_a5d27_som1_winc1500/production/_ext/192053755/plib_pio.o
                0x26f06e7a                PIOB_InterruptHandler
 .text.TC0_CH0_TimerInitialize
                0x26f06eba       0x28 build/sam_a5d27_som1_winc1500/production/_ext/6195168/plib_tc0.o
                0x26f06eba                TC0_CH0_TimerInitialize
 .text.TC0_CH0_TimerStart
                0x26f06ee2        0xe build/sam_a5d27_som1_winc1500/production/_ext/6195168/plib_tc0.o
                0x26f06ee2                TC0_CH0_TimerStart
 .text.TC0_CH0_TimerStop
                0x26f06ef0        0xe build/sam_a5d27_som1_winc1500/production/_ext/6195168/plib_tc0.o
                0x26f06ef0                TC0_CH0_TimerStop
 .text.TC0_CH0_TimerFrequencyGet
                0x26f06efe        0xa build/sam_a5d27_som1_winc1500/production/_ext/6195168/plib_tc0.o
                0x26f06efe                TC0_CH0_TimerFrequencyGet
 .text.TC0_CH0_TimerPeriodSet
                0x26f06f08        0xc build/sam_a5d27_som1_winc1500/production/_ext/6195168/plib_tc0.o
                0x26f06f08                TC0_CH0_TimerPeriodSet
 .text.TC0_CH0_TimerCompareSet
                0x26f06f14        0xc build/sam_a5d27_som1_winc1500/production/_ext/6195168/plib_tc0.o
                0x26f06f14                TC0_CH0_TimerCompareSet
 .text.TC0_CH0_TimerCounterGet
                0x26f06f20        0xc build/sam_a5d27_som1_winc1500/production/_ext/6195168/plib_tc0.o
                0x26f06f20                TC0_CH0_TimerCounterGet
 .text.TC0_CH0_TimerCallbackRegister
                0x26f06f2c        0xe build/sam_a5d27_som1_winc1500/production/_ext/6195168/plib_tc0.o
                0x26f06f2c                TC0_CH0_TimerCallbackRegister
 .text.TC0_CH0_InterruptHandler
                0x26f06f3a       0x2c build/sam_a5d27_som1_winc1500/production/_ext/6195168/plib_tc0.o
                0x26f06f3a                TC0_CH0_InterruptHandler
 .text.TC0_InterruptHandler
                0x26f06f66        0x8 build/sam_a5d27_som1_winc1500/production/_ext/6195168/plib_tc0.o
                0x26f06f66                TC0_InterruptHandler
 .text.UART1_WritePendingBytesGet
                0x26f06f6e       0x18 build/sam_a5d27_som1_winc1500/production/_ext/1658557633/plib_uart1.o
 .text.UART1_Initialize
                0x26f06f86       0x46 build/sam_a5d27_som1_winc1500/production/_ext/1658557633/plib_uart1.o
                0x26f06f86                UART1_Initialize
 .text.UART1_Read
                0x26f06fcc       0x92 build/sam_a5d27_som1_winc1500/production/_ext/1658557633/plib_uart1.o
                0x26f06fcc                UART1_Read
 .text.UART1_ReadCountGet
                0x26f0705e       0x16 build/sam_a5d27_som1_winc1500/production/_ext/1658557633/plib_uart1.o
                0x26f0705e                UART1_ReadCountGet
 .text.UART1_ReadFreeBufferCountGet
                0x26f07074        0xc build/sam_a5d27_som1_winc1500/production/_ext/1658557633/plib_uart1.o
                0x26f07074                UART1_ReadFreeBufferCountGet
 .text.UART1_WriteCountGet
                0x26f07080        0x8 build/sam_a5d27_som1_winc1500/production/_ext/1658557633/plib_uart1.o
                0x26f07080                UART1_WriteCountGet
 .text.UART1_Write
                0x26f07088       0x62 build/sam_a5d27_som1_winc1500/production/_ext/1658557633/plib_uart1.o
                0x26f07088                UART1_Write
 .text.UART1_WriteFreeBufferCountGet
                0x26f070ea        0xe build/sam_a5d27_som1_winc1500/production/_ext/1658557633/plib_uart1.o
                0x26f070ea                UART1_WriteFreeBufferCountGet
 .text.UART1_InterruptHandler
                0x26f070f8      0x15c build/sam_a5d27_som1_winc1500/production/_ext/1658557633/plib_uart1.o
                0x26f070f8                UART1_InterruptHandler
 .text.XDMAC0_InterruptHandler
                0x26f07254       0x80 build/sam_a5d27_som1_winc1500/production/_ext/127175570/plib_xdmac0.o
                0x26f07254                XDMAC0_InterruptHandler
 .text.XDMAC0_Initialize
                0x26f072d4       0x4c build/sam_a5d27_som1_winc1500/production/_ext/127175570/plib_xdmac0.o
                0x26f072d4                XDMAC0_Initialize
 .text.XDMAC0_ChannelCallbackRegister
                0x26f07320       0x12 build/sam_a5d27_som1_winc1500/production/_ext/127175570/plib_xdmac0.o
                0x26f07320                XDMAC0_ChannelCallbackRegister
 .text.XDMAC0_ChannelTransfer
                0x26f07332       0x68 build/sam_a5d27_som1_winc1500/production/_ext/127175570/plib_xdmac0.o
                0x26f07332                XDMAC0_ChannelTransfer
 .text.XDMAC0_ChannelSettingsGet
                0x26f0739a        0xe build/sam_a5d27_som1_winc1500/production/_ext/127175570/plib_xdmac0.o
                0x26f0739a                XDMAC0_ChannelSettingsGet
 .text.XDMAC0_ChannelSettingsSet
                0x26f073a8       0x1e build/sam_a5d27_som1_winc1500/production/_ext/127175570/plib_xdmac0.o
                0x26f073a8                XDMAC0_ChannelSettingsSet
 .text.SYS_CONSOLE_Initialize
                0x26f073c6       0x66 build/sam_a5d27_som1_winc1500/production/_ext/1238961202/sys_console.o
                0x26f073c6                SYS_CONSOLE_Initialize
 .text.SYS_CONSOLE_HandleGet
                0x26f0742c        0xa build/sam_a5d27_som1_winc1500/production/_ext/1238961202/sys_console.o
                0x26f0742c                SYS_CONSOLE_HandleGet
 .text.SYS_CONSOLE_Print
                0x26f07436       0x90 build/sam_a5d27_som1_winc1500/production/_ext/1238961202/sys_console.o
                0x26f07436                SYS_CONSOLE_Print
 .text.SYS_CONSOLE_Message
                0x26f074c6       0x3c build/sam_a5d27_som1_winc1500/production/_ext/1238961202/sys_console.o
                0x26f074c6                SYS_CONSOLE_Message
 .text.Console_UART_Initialize
                0x26f07502       0x16 build/sam_a5d27_som1_winc1500/production/_ext/1238961202/sys_console_uart.o
                0x26f07502                Console_UART_Initialize
 .text.Console_UART_Read
                0x26f07518       0x3c build/sam_a5d27_som1_winc1500/production/_ext/1238961202/sys_console_uart.o
                0x26f07518                Console_UART_Read
 .text.Console_UART_Flush
                0x26f07554        0x4 build/sam_a5d27_som1_winc1500/production/_ext/1238961202/sys_console_uart.o
                0x26f07554                Console_UART_Flush
 .text.Console_UART_Status
                0x26f07558       0x12 build/sam_a5d27_som1_winc1500/production/_ext/1238961202/sys_console_uart.o
                0x26f07558                Console_UART_Status
 .text.Console_UART_Tasks
                0x26f0756a        0x2 build/sam_a5d27_som1_winc1500/production/_ext/1238961202/sys_console_uart.o
                0x26f0756a                Console_UART_Tasks
 .text.Console_UART_WriteCountGet
                0x26f0756c       0x36 build/sam_a5d27_som1_winc1500/production/_ext/1238961202/sys_console_uart.o
                0x26f0756c                Console_UART_WriteCountGet
 .text.Console_UART_WriteFreeBufferCountGet
                0x26f075a2       0x36 build/sam_a5d27_som1_winc1500/production/_ext/1238961202/sys_console_uart.o
                0x26f075a2                Console_UART_WriteFreeBufferCountGet
 .text.Console_UART_Write
                0x26f075d8       0x3c build/sam_a5d27_som1_winc1500/production/_ext/1238961202/sys_console_uart.o
                0x26f075d8                Console_UART_Write
 .text.Console_UART_ReadFreeBufferCountGet
                0x26f07614       0x36 build/sam_a5d27_som1_winc1500/production/_ext/1238961202/sys_console_uart.o
                0x26f07614                Console_UART_ReadFreeBufferCountGet
 .text.Console_UART_ReadCountGet
                0x26f0764a       0x36 build/sam_a5d27_som1_winc1500/production/_ext/1238961202/sys_console_uart.o
                0x26f0764a                Console_UART_ReadCountGet
 .text.SYS_DEBUG_Initialize
                0x26f07680       0x20 build/sam_a5d27_som1_winc1500/production/_ext/931592374/sys_debug.o
                0x26f07680                SYS_DEBUG_Initialize
 .text.SYS_DEBUG_ConsoleInstanceGet
                0x26f076a0        0xc build/sam_a5d27_som1_winc1500/production/_ext/931592374/sys_debug.o
                0x26f076a0                SYS_DEBUG_ConsoleInstanceGet
 .text.SYS_DEBUG_ErrorLevelGet
                0x26f076ac        0xc build/sam_a5d27_som1_winc1500/production/_ext/931592374/sys_debug.o
                0x26f076ac                SYS_DEBUG_ErrorLevelGet
 .text.SYS_DMA_AddressingModeSetup
                0x26f076b8       0x1e build/sam_a5d27_som1_winc1500/production/_ext/737894/sys_dma.o
                0x26f076b8                SYS_DMA_AddressingModeSetup
 .text.SYS_DMA_DataWidthSetup
                0x26f076d6       0x1a build/sam_a5d27_som1_winc1500/production/_ext/737894/sys_dma.o
                0x26f076d6                SYS_DMA_DataWidthSetup
 .text.SYS_INT_Disable
                0x26f076f0        0x8 build/sam_a5d27_som1_winc1500/production/_ext/1629436774/sys_int.o
                0x26f076f0                SYS_INT_Disable
 .text.SYS_INT_Restore
                0x26f076f8        0x8 build/sam_a5d27_som1_winc1500/production/_ext/1629436774/sys_int.o
                0x26f076f8                SYS_INT_Restore
 .text.SYS_INT_SourceIsEnabled
                0x26f07700       0x20 build/sam_a5d27_som1_winc1500/production/_ext/1629436774/sys_int.o
                0x26f07700                SYS_INT_SourceIsEnabled
 .text.SYS_INT_SourceEnable
                0x26f07720       0x1e build/sam_a5d27_som1_winc1500/production/_ext/1629436774/sys_int.o
                0x26f07720                SYS_INT_SourceEnable
 .text.SYS_INT_SourceDisable
                0x26f0773e       0x2e build/sam_a5d27_som1_winc1500/production/_ext/1629436774/sys_int.o
                0x26f0773e                SYS_INT_SourceDisable
 .text.SYS_INT_SourceRestore
                0x26f0776c       0x22 build/sam_a5d27_som1_winc1500/production/_ext/1629436774/sys_int.o
                0x26f0776c                SYS_INT_SourceRestore
 .text.SYS_TIME_GetTimerObject
                0x26f0778e       0x4c build/sam_a5d27_som1_winc1500/production/_ext/668867648/sys_time.o
 .text.SYS_TIME_HwTimerCompareUpdate
                0x26f077da       0xe8 build/sam_a5d27_som1_winc1500/production/_ext/668867648/sys_time.o
 .text.SYS_TIME_Counter64Update
                0x26f078c2       0x24 build/sam_a5d27_som1_winc1500/production/_ext/668867648/sys_time.o
 .text.SYS_TIME_RemoveFromList
                0x26f078e6       0x62 build/sam_a5d27_som1_winc1500/production/_ext/668867648/sys_time.o
 .text.SYS_TIME_AddToList
                0x26f07948       0x9c build/sam_a5d27_som1_winc1500/production/_ext/668867648/sys_time.o
 .text.SYS_TIME_GetElapsedCount
                0x26f079e4       0x18 build/sam_a5d27_som1_winc1500/production/_ext/668867648/sys_time.o
 .text.SYS_TIME_UpdateTimerList
                0x26f079fc       0x38 build/sam_a5d27_som1_winc1500/production/_ext/668867648/sys_time.o
 .text.SYS_TIME_TimerAdd
                0x26f07a34       0x42 build/sam_a5d27_som1_winc1500/production/_ext/668867648/sys_time.o
 .text.SYS_TIME_ResourceLock
                0x26f07a76       0x40 build/sam_a5d27_som1_winc1500/production/_ext/668867648/sys_time.o
 .text.SYS_TIME_ResourceUnlock
                0x26f07ab6       0x1e build/sam_a5d27_som1_winc1500/production/_ext/668867648/sys_time.o
 .text.SYS_TIME_TimerObjectCreate
                0x26f07ad4       0xc0 build/sam_a5d27_som1_winc1500/production/_ext/668867648/sys_time.o
 .text.SYS_TIME_Initialize
                0x26f07b94       0xb0 build/sam_a5d27_som1_winc1500/production/_ext/668867648/sys_time.o
                0x26f07b94                SYS_TIME_Initialize
 .text.SYS_TIME_TimerDestroy
                0x26f07c44       0x3c build/sam_a5d27_som1_winc1500/production/_ext/668867648/sys_time.o
                0x26f07c44                SYS_TIME_TimerDestroy
 .text.SYS_TIME_PLIBCallback
                0x26f07c80       0xec build/sam_a5d27_som1_winc1500/production/_ext/668867648/sys_time.o
 .text.SYS_TIME_TimerStart
                0x26f07d6c       0x5a build/sam_a5d27_som1_winc1500/production/_ext/668867648/sys_time.o
                0x26f07d6c                SYS_TIME_TimerStart
 .text.SYS_TIME_TimerPeriodHasExpired
                0x26f07dc6       0x28 build/sam_a5d27_som1_winc1500/production/_ext/668867648/sys_time.o
                0x26f07dc6                SYS_TIME_TimerPeriodHasExpired
 .text.SYS_TIME_DelayMS
                0x26f07dee       0x50 build/sam_a5d27_som1_winc1500/production/_ext/668867648/sys_time.o
                0x26f07dee                SYS_TIME_DelayMS
 .text.SYS_TIME_DelayIsComplete
                0x26f07e3e       0x18 build/sam_a5d27_som1_winc1500/production/_ext/668867648/sys_time.o
                0x26f07e3e                SYS_TIME_DelayIsComplete
 .text.DefaultInterruptHandlerForSpurious
                0x26f07e56       0x10 build/sam_a5d27_som1_winc1500/production/_ext/1420715725/interrupts.o
                0x26f07e56                DefaultInterruptHandlerForSpurious
 .text.undefined_instruction_irq_handler
                0x26f07e66        0x2 build/sam_a5d27_som1_winc1500/production/_ext/1420715725/fault_handlers.o
                0x26f07e66                undefined_instruction_irq_handler
 .text.software_interrupt_irq_handler
                0x26f07e68        0x2 build/sam_a5d27_som1_winc1500/production/_ext/1420715725/fault_handlers.o
                0x26f07e68                software_interrupt_irq_handler
 .text.data_abort_irq_handler
                0x26f07e6a        0x2 build/sam_a5d27_som1_winc1500/production/_ext/1420715725/fault_handlers.o
                0x26f07e6a                data_abort_irq_handler
 .text.prefetch_abort_irq_handler
                0x26f07e6c        0x2 build/sam_a5d27_som1_winc1500/production/_ext/1420715725/fault_handlers.o
                0x26f07e6c                prefetch_abort_irq_handler
 *fill*         0x26f07e6e        0x2 
 .text          0x26f07e70       0xa4 build/sam_a5d27_som1_winc1500/production/_ext/1420715725/cstartup.o
 .text.SYS_Tasks
                0x26f07f14       0x16 build/sam_a5d27_som1_winc1500/production/_ext/1420715725/tasks.o
                0x26f07f14                SYS_Tasks
 .text.SYS_Initialize
                0x26f07f2a       0x92 build/sam_a5d27_som1_winc1500/production/_ext/1420715725/initialization.o
                0x26f07f2a                SYS_Initialize
 .text.main     0x26f07fbc        0xe build/sam_a5d27_som1_winc1500/production/_ext/1360937237/main.o
                0x26f07fbc                main
 .text.APP_Initialize
                0x26f07fca        0xe build/sam_a5d27_som1_winc1500/production/_ext/1360937237/app.o
                0x26f07fca                APP_Initialize
 .text.APP_Tasks
                0x26f07fd8       0x84 build/sam_a5d27_som1_winc1500/production/_ext/1360937237/app.o
                0x26f07fd8                APP_Tasks
 .text.APP_ExampleSTAConnectNotifyCallback
                0x26f0805c       0x50 build/sam_a5d27_som1_winc1500/production/_ext/1360937237/example.o
 .text.APP_ExampleAPConnectNotifyCallback
                0x26f080ac       0xb0 build/sam_a5d27_som1_winc1500/production/_ext/1360937237/example.o
 .text.APP_ExampleSTAModeDHCPAddressEventCallback
                0x26f0815c       0x30 build/sam_a5d27_som1_winc1500/production/_ext/1360937237/example.o
 .text.APP_ExampleDHCPAddressEventCallback
                0x26f0818c       0x30 build/sam_a5d27_som1_winc1500/production/_ext/1360937237/example.o
 .text.APP_ExampleSocketEventCallback
                0x26f081bc      0x344 build/sam_a5d27_som1_winc1500/production/_ext/1360937237/example.o
 .text.APP_ExampleInitialize
                0x26f08500       0x5e build/sam_a5d27_som1_winc1500/production/_ext/1360937237/example.o
                0x26f08500                APP_ExampleInitialize
 *fill*         0x26f0855e        0x2 
 .text.APP_ExampleTasks
                0x26f08560      0x1e8 build/sam_a5d27_som1_winc1500/production/_ext/1360937237/example.o
                0x26f08560                APP_ExampleTasks
 .text          0x26f08748      0x278 c:/program files/microchip/xc32/v4.00/bin/bin/../../lib/gcc/pic32c/8.3.1/thumb/v7-a+simd/hard\libgcc.a(_udivsi3.o)
                0x26f08748                __aeabi_uidiv
                0x26f08748                __udivsi3
                0x26f089a4                __aeabi_uidivmod
 .text          0x26f089c0      0x2b0 c:/program files/microchip/xc32/v4.00/bin/bin/../../lib/gcc/pic32c/8.3.1/thumb/v7-a+simd/hard\libgcc.a(_divsi3.o)
                0x26f089c0                __divsi3
                0x26f089c0                __aeabi_idiv
                0x26f08c54                __aeabi_idivmod
 .text          0x26f08c70        0x4 c:/program files/microchip/xc32/v4.00/bin/bin/../../lib/gcc/pic32c/8.3.1/thumb/v7-a+simd/hard\libgcc.a(_dvmd_tls.o)
                0x26f08c70                __aeabi_idiv0
                0x26f08c70                __aeabi_ldiv0
 .text          0x26f08c74       0x30 c:/program files/microchip/xc32/v4.00/bin/bin/../../lib/gcc/pic32c/8.3.1/thumb/v7-a+simd/hard\libgcc.a(_aeabi_uldivmod.o)
                0x26f08c74                __aeabi_uldivmod
 .text          0x26f08ca4      0x138 c:/program files/microchip/xc32/v4.00/bin/bin/../../lib/gcc/pic32c/8.3.1/thumb/v7-a+simd/hard\libgcc.a(_udivmoddi4.o)
                0x26f08ca4                __udivmoddi4
 .text.__dummy  0x26f08ddc        0x2 c:/program files/microchip/xc32/v4.00/bin/bin/../../lib/gcc/pic32c/8.3.1/../../../../pic32c/lib/thumb/v7-a+simd/hard\libc-musl.a(__libc_start_main.o)
                0x26f08ddc                __init_stdio
                0x26f08ddc                __init_host
 *fill*         0x26f08dde        0x2 
 .text.__libc_start_init
                0x26f08de0       0x5c c:/program files/microchip/xc32/v4.00/bin/bin/../../lib/gcc/pic32c/8.3.1/../../../../pic32c/lib/thumb/v7-a+simd/hard\libc-musl.a(__libc_start_main.o)
                0x26f08de0                __libc_init_array
 .text.bin_index
                0x26f08e3c       0x38 c:/program files/microchip/xc32/v4.00/bin/bin/../../lib/gcc/pic32c/8.3.1/../../../../pic32c/lib/thumb/v7-a+simd/hard\libc-musl.a(malloc.o)
 .text.adjust_size
                0x26f08e74       0x40 c:/program files/microchip/xc32/v4.00/bin/bin/../../lib/gcc/pic32c/8.3.1/../../../../pic32c/lib/thumb/v7-a+simd/hard\libc-musl.a(malloc.o)
 .text.lock_bin
                0x26f08eb4       0x20 c:/program files/microchip/xc32/v4.00/bin/bin/../../lib/gcc/pic32c/8.3.1/../../../../pic32c/lib/thumb/v7-a+simd/hard\libc-musl.a(malloc.o)
 .text.unbin    0x26f08ed4       0x74 c:/program files/microchip/xc32/v4.00/bin/bin/../../lib/gcc/pic32c/8.3.1/../../../../pic32c/lib/thumb/v7-a+simd/hard\libc-musl.a(malloc.o)
 .text.alloc_fwd
                0x26f08f48       0x2c c:/program files/microchip/xc32/v4.00/bin/bin/../../lib/gcc/pic32c/8.3.1/../../../../pic32c/lib/thumb/v7-a+simd/hard\libc-musl.a(malloc.o)
 .text.alloc_rev
                0x26f08f74       0x30 c:/program files/microchip/xc32/v4.00/bin/bin/../../lib/gcc/pic32c/8.3.1/../../../../pic32c/lib/thumb/v7-a+simd/hard\libc-musl.a(malloc.o)
 .text.free     0x26f08fa4       0xf4 c:/program files/microchip/xc32/v4.00/bin/bin/../../lib/gcc/pic32c/8.3.1/../../../../pic32c/lib/thumb/v7-a+simd/hard\libc-musl.a(malloc.o)
                0x26f08fa4                free
 .text.trim     0x26f09098       0x2e c:/program files/microchip/xc32/v4.00/bin/bin/../../lib/gcc/pic32c/8.3.1/../../../../pic32c/lib/thumb/v7-a+simd/hard\libc-musl.a(malloc.o)
 *fill*         0x26f090c6        0x2 
 .text.malloc   0x26f090c8      0x1b4 c:/program files/microchip/xc32/v4.00/bin/bin/../../lib/gcc/pic32c/8.3.1/../../../../pic32c/lib/thumb/v7-a+simd/hard\libc-musl.a(malloc.o)
                0x26f090c8                malloc
 .text.__expand_heap
                0x26f0927c       0x16 c:/program files/microchip/xc32/v4.00/bin/bin/../../lib/gcc/pic32c/8.3.1/../../../../pic32c/lib/thumb/v7-a+simd/hard\libc-musl.a(expand_heap.o)
                0x26f0927c                __expand_heap
 *fill*         0x26f09292        0x2 
 .text.vsnprintf
                0x26f09294       0x60 c:/program files/microchip/xc32/v4.00/bin/bin/../../lib/gcc/pic32c/8.3.1/../../../../pic32c/lib/thumb/v7-a+simd/hard\libc-musl.a(vsnprintf.o)
                0x26f09294                vsnprintf
 .text.atoi     0x26f092f4       0x44 c:/program files/microchip/xc32/v4.00/bin/bin/../../lib/gcc/pic32c/8.3.1/../../../../pic32c/lib/thumb/v7-a+simd/hard\libc-musl.a(atoi.o)
                0x26f092f4                atoi
 .text.memcpy   0x26f09338       0x16 c:/program files/microchip/xc32/v4.00/bin/bin/../../lib/gcc/pic32c/8.3.1/../../../../pic32c/lib/thumb/v7-a+simd/hard\libc-musl.a(memcpy.o)
                0x26f09338                memcpy
 .text.memset   0x26f0934e       0x10 c:/program files/microchip/xc32/v4.00/bin/bin/../../lib/gcc/pic32c/8.3.1/../../../../pic32c/lib/thumb/v7-a+simd/hard\libc-musl.a(memset.o)
                0x26f0934e                memset
 .text.strlen   0x26f0935e       0x10 c:/program files/microchip/xc32/v4.00/bin/bin/../../lib/gcc/pic32c/8.3.1/../../../../pic32c/lib/thumb/v7-a+simd/hard\libc-musl.a(strlen.o)
                0x26f0935e                strlen
 .text.strchr   0x26f0936e       0x14 c:/program files/microchip/xc32/v4.00/bin/bin/../../lib/gcc/pic32c/8.3.1/../../../../pic32c/lib/thumb/v7-a+simd/hard\libc-musl.a(strchr.o)
                0x26f0936e                strchr
 .text.__strchrnul
                0x26f09382       0x60 c:/program files/microchip/xc32/v4.00/bin/bin/../../lib/gcc/pic32c/8.3.1/../../../../pic32c/lib/thumb/v7-a+simd/hard\libc-musl.a(strchrnul.o)
                0x26f09382                strchrnul
                0x26f09382                __strchrnul
 .text.strcpy   0x26f093e2        0xc c:/program files/microchip/xc32/v4.00/bin/bin/../../lib/gcc/pic32c/8.3.1/../../../../pic32c/lib/thumb/v7-a+simd/hard\libc-musl.a(strcpy.o)
                0x26f093e2                strcpy
 .text.strncmp  0x26f093ee       0x24 c:/program files/microchip/xc32/v4.00/bin/bin/../../lib/gcc/pic32c/8.3.1/../../../../pic32c/lib/thumb/v7-a+simd/hard\libc-musl.a(strncmp.o)
                0x26f093ee                strncmp
 *fill*         0x26f09412        0x2 
 .text.strtok   0x26f09414       0x48 c:/program files/microchip/xc32/v4.00/bin/bin/../../lib/gcc/pic32c/8.3.1/../../../../pic32c/lib/thumb/v7-a+simd/hard\libc-musl.a(strtok.o)
                0x26f09414                strtok
 .text.getint   0x26f0945c       0x1e c:/program files/microchip/xc32/v4.00/bin/bin/../../lib/gcc/pic32c/8.3.1/../../../../pic32c/lib/thumb/v7-a+simd/hard\libc-musl.a(__tz.o)
 .text.getoff   0x26f0947a       0x62 c:/program files/microchip/xc32/v4.00/bin/bin/../../lib/gcc/pic32c/8.3.1/../../../../pic32c/lib/thumb/v7-a+simd/hard\libc-musl.a(__tz.o)
 .text.getrule  0x26f094dc       0x68 c:/program files/microchip/xc32/v4.00/bin/bin/../../lib/gcc/pic32c/8.3.1/../../../../pic32c/lib/thumb/v7-a+simd/hard\libc-musl.a(__tz.o)
 .text.getname  0x26f09544       0x4e c:/program files/microchip/xc32/v4.00/bin/bin/../../lib/gcc/pic32c/8.3.1/../../../../pic32c/lib/thumb/v7-a+simd/hard\libc-musl.a(__tz.o)
 *fill*         0x26f09592        0x2 
 .text.do_tzset
                0x26f09594       0xd0 c:/program files/microchip/xc32/v4.00/bin/bin/../../lib/gcc/pic32c/8.3.1/../../../../pic32c/lib/thumb/v7-a+simd/hard\libc-musl.a(__tz.o)
 .text.rule_to_secs
                0x26f09664       0xd4 c:/program files/microchip/xc32/v4.00/bin/bin/../../lib/gcc/pic32c/8.3.1/../../../../pic32c/lib/thumb/v7-a+simd/hard\libc-musl.a(__tz.o)
 .text.__secs_to_zone
                0x26f09738      0x114 c:/program files/microchip/xc32/v4.00/bin/bin/../../lib/gcc/pic32c/8.3.1/../../../../pic32c/lib/thumb/v7-a+simd/hard\libc-musl.a(__tz.o)
                0x26f09738                __secs_to_zone
 .text.mktime   0x26f0984c       0xa0 c:/program files/microchip/xc32/v4.00/bin/bin/../../lib/gcc/pic32c/8.3.1/../../../../pic32c/lib/thumb/v7-a+simd/hard\libc-musl.a(mktime.o)
                0x26f0984c                mktime
 .text.vfprintf
                0x26f098ec       0x1c c:/program files/microchip/xc32/v4.00/bin/bin/../../lib/gcc/pic32c/8.3.1/../../../../pic32c/lib/thumb/v7-a+simd/hard\libc-musl.a(vfprintf.o)
                0x26f098ec                vfprintf
 .text.stpcpy   0x26f09908       0x12 c:/program files/microchip/xc32/v4.00/bin/bin/../../lib/gcc/pic32c/8.3.1/../../../../pic32c/lib/thumb/v7-a+simd/hard\libc-musl.a(stpcpy.o)
                0x26f09908                __stpcpy
                0x26f09908                stpcpy
 .text.strcspn  0x26f0991a       0x76 c:/program files/microchip/xc32/v4.00/bin/bin/../../lib/gcc/pic32c/8.3.1/../../../../pic32c/lib/thumb/v7-a+simd/hard\libc-musl.a(strcspn.o)
                0x26f0991a                strcspn
 .text.strspn   0x26f09990       0x84 c:/program files/microchip/xc32/v4.00/bin/bin/../../lib/gcc/pic32c/8.3.1/../../../../pic32c/lib/thumb/v7-a+simd/hard\libc-musl.a(strspn.o)
                0x26f09990                strspn
 .text.__month_to_secs
                0x26f09a14       0x1c c:/program files/microchip/xc32/v4.00/bin/bin/../../lib/gcc/pic32c/8.3.1/../../../../pic32c/lib/thumb/v7-a+simd/hard\libc-musl.a(__month_to_secs.o)
                0x26f09a14                __month_to_secs
 .text.__secs_to_tm
                0x26f09a30      0x1e8 c:/program files/microchip/xc32/v4.00/bin/bin/../../lib/gcc/pic32c/8.3.1/../../../../pic32c/lib/thumb/v7-a+simd/hard\libc-musl.a(__secs_to_tm.o)
                0x26f09a30                __secs_to_tm
 .text.__tm_to_secs
                0x26f09c18       0x80 c:/program files/microchip/xc32/v4.00/bin/bin/../../lib/gcc/pic32c/8.3.1/../../../../pic32c/lib/thumb/v7-a+simd/hard\libc-musl.a(__tm_to_secs.o)
                0x26f09c18                __tm_to_secs
 .text.__year_to_secs
                0x26f09c98      0x10c c:/program files/microchip/xc32/v4.00/bin/bin/../../lib/gcc/pic32c/8.3.1/../../../../pic32c/lib/thumb/v7-a+simd/hard\libc-musl.a(__year_to_secs.o)
                0x26f09c98                __year_to_secs
 .text.__string_out
                0x26f09da4       0x26 c:/program files/microchip/xc32/v4.00/bin/bin/../../lib/gcc/pic32c/8.3.1/../../../../pic32c/lib/thumb/v7-a+simd/hard\libc-musl.a(__printf_core.o)
                0x26f09da4                __out
 .text.__pad    0x26f09dca       0x7c c:/program files/microchip/xc32/v4.00/bin/bin/../../lib/gcc/pic32c/8.3.1/../../../../pic32c/lib/thumb/v7-a+simd/hard\libc-musl.a(__printf_core.o)
                0x26f09dca                __pad
 *fill*         0x26f09e46        0x2 
 .text.__fmt_state
                0x26f09e48       0x38 c:/program files/microchip/xc32/v4.00/bin/bin/../../lib/gcc/pic32c/8.3.1/../../../../pic32c/lib/thumb/v7-a+simd/hard\libc-musl.a(__printf_core.o)
                0x26f09e48                __fmt_state
 .text.__printf_core
                0x26f09e80      0x2f4 c:/program files/microchip/xc32/v4.00/bin/bin/../../lib/gcc/pic32c/8.3.1/../../../../pic32c/lib/thumb/v7-a+simd/hard\libc-musl.a(__printf_core.o)
                0x26f09e80                __printf_core
 .text.tolower  0x26f0a174        0xe c:/program files/microchip/xc32/v4.00/bin/bin/../../lib/gcc/pic32c/8.3.1/../../../../pic32c/lib/thumb/v7-a+simd/hard\libc-musl.a(tolower.o)
                0x26f0a174                tolower
 *fill*         0x26f0a182        0x6 
 .text.__fmt_a  0x26f0a188      0x3d0 c:/program files/microchip/xc32/v4.00/bin/bin/../../lib/gcc/pic32c/8.3.1/../../../../pic32c/lib/thumb/v7-a+simd/hard\libc-musl.a(__fmt_a.o)
                0x26f0a188                __fmt_a_needed
                0x26f0a188                __fmt_a
 .text.__fmt_d  0x26f0a558       0xa8 c:/program files/microchip/xc32/v4.00/bin/bin/../../lib/gcc/pic32c/8.3.1/../../../../pic32c/lib/thumb/v7-a+simd/hard\libc-musl.a(__fmt_d.o)
                0x26f0a558                __fmt_d
                0x26f0a558                __fmt_d_needed
 .text.__fmt_fp
                0x26f0a600      0x3b8 c:/program files/microchip/xc32/v4.00/bin/bin/../../lib/gcc/pic32c/8.3.1/../../../../pic32c/lib/thumb/v7-a+simd/hard\libc-musl.a(__fmt_fp.o)
                0x26f0a600                __fmt_f_needed
                0x26f0a600                __fmt_fp
 .text.__fmt_o  0x26f0a9b8       0x76 c:/program files/microchip/xc32/v4.00/bin/bin/../../lib/gcc/pic32c/8.3.1/../../../../pic32c/lib/thumb/v7-a+simd/hard\libc-musl.a(__fmt_o.o)
                0x26f0a9b8                __fmt_o
                0x26f0a9b8                __fmt_o_needed
 *fill*         0x26f0aa2e        0x2 
 .text.__fmt_s  0x26f0aa30       0x58 c:/program files/microchip/xc32/v4.00/bin/bin/../../lib/gcc/pic32c/8.3.1/../../../../pic32c/lib/thumb/v7-a+simd/hard\libc-musl.a(__fmt_s.o)
                0x26f0aa30                __fmt_s
                0x26f0aa30                __fmt_0_needed
                0x26f0aa30                __fmt_s_needed
 .text.__cvt_u  0x26f0aa88       0x84 c:/program files/microchip/xc32/v4.00/bin/bin/../../lib/gcc/pic32c/8.3.1/../../../../pic32c/lib/thumb/v7-a+simd/hard\libc-musl.a(__fmt_u.o)
                0x26f0aa88                __cvt_u
 .text.__fmt_u  0x26f0ab0c       0x56 c:/program files/microchip/xc32/v4.00/bin/bin/../../lib/gcc/pic32c/8.3.1/../../../../pic32c/lib/thumb/v7-a+simd/hard\libc-musl.a(__fmt_u.o)
                0x26f0ab0c                __fmt_u_needed
                0x26f0ab0c                __fmt_u
 .text.__fmt_x  0x26f0ab62      0x11a c:/program files/microchip/xc32/v4.00/bin/bin/../../lib/gcc/pic32c/8.3.1/../../../../pic32c/lib/thumb/v7-a+simd/hard\libc-musl.a(__fmt_x.o)
                0x26f0ab62                __fmt_x_needed
                0x26f0ab62                __fmt_x
 .text.__pop_float
                0x26f0ac7c       0x2a c:/program files/microchip/xc32/v4.00/bin/bin/../../lib/gcc/pic32c/8.3.1/../../../../pic32c/lib/thumb/v7-a+simd/hard\libc-musl.a(__pop_float.o)
                0x26f0ac7c                __pop_float_needed
                0x26f0ac7c                __pop_float
 .text.__pop_int
                0x26f0aca6       0xa0 c:/program files/microchip/xc32/v4.00/bin/bin/../../lib/gcc/pic32c/8.3.1/../../../../pic32c/lib/thumb/v7-a+simd/hard\libc-musl.a(__pop_int.o)
                0x26f0aca6                __pop_int_needed
                0x26f0aca6                __pop_int
 .text.__pop_ptr
                0x26f0ad46       0x7c c:/program files/microchip/xc32/v4.00/bin/bin/../../lib/gcc/pic32c/8.3.1/../../../../pic32c/lib/thumb/v7-a+simd/hard\libc-musl.a(__pop_ptr.o)
                0x26f0ad46                __pop_ptr
                0x26f0ad46                __pop_ptr_needed
 .text.toupper  0x26f0adc2        0xe c:/program files/microchip/xc32/v4.00/bin/bin/../../lib/gcc/pic32c/8.3.1/../../../../pic32c/lib/thumb/v7-a+simd/hard\libc-musl.a(toupper.o)
                0x26f0adc2                toupper
 .text.floor    0x26f0add0       0x90 c:/program files/microchip/xc32/v4.00/bin/bin/../../lib/gcc/pic32c/8.3.1/../../../../pic32c/lib/thumb/v7-a+simd/hard\libm-musl.a(floor.o)
                0x26f0add0                floor
 .text.normalize
                0x26f0ae60       0x74 c:/program files/microchip/xc32/v4.00/bin/bin/../../lib/gcc/pic32c/8.3.1/../../../../pic32c/lib/thumb/v7-a+simd/hard\libm-musl.a(fma.o)
 *fill*         0x26f0aed4        0x4 
 .text.fma      0x26f0aed8      0x5b4 c:/program files/microchip/xc32/v4.00/bin/bin/../../lib/gcc/pic32c/8.3.1/../../../../pic32c/lib/thumb/v7-a+simd/hard\libm-musl.a(fma.o)
                0x26f0aed8                fma
 *fill*         0x26f0b48c        0x4 
 .text.scalbn   0x26f0b490       0x7c c:/program files/microchip/xc32/v4.00/bin/bin/../../lib/gcc/pic32c/8.3.1/../../../../pic32c/lib/thumb/v7-a+simd/hard\libm-musl.a(scalbn.o)
                0x26f0b490                scalbn
 .text._sbrk    0x26f0b50c       0x30 c:/program files/microchip/xc32/v4.00/bin/bin/../../lib/gcc/pic32c/8.3.1/../../../../pic32c/lib/thumb/v7-a+simd/hard\libpic32c.a(sbrk.o)
                0x26f0b50c                _sbrk
 .text          0x26f0b53c      0x378 c:/program files/microchip/xc32/v4.00/bin/bin/../../lib/gcc/pic32c/8.3.1/thumb/v7-a+simd/hard\libgcc.a(_arm_addsubdf3.o)
                0x26f0b53c                __aeabi_drsub
                0x26f0b544                __aeabi_dsub
                0x26f0b544                __subdf3
                0x26f0b548                __aeabi_dadd
                0x26f0b548                __adddf3
                0x26f0b7c0                __floatunsidf
                0x26f0b7c0                __aeabi_ui2d
                0x26f0b7e0                __floatsidf
                0x26f0b7e0                __aeabi_i2d
                0x26f0b804                __aeabi_f2d
                0x26f0b804                __extendsfdf2
                0x26f0b848                __floatundidf
                0x26f0b848                __aeabi_ul2d
                0x26f0b858                __floatdidf
                0x26f0b858                __aeabi_l2d
 .text          0x26f0b8b4       0xa0 c:/program files/microchip/xc32/v4.00/bin/bin/../../lib/gcc/pic32c/8.3.1/thumb/v7-a+simd/hard\libgcc.a(_aeabi_ldivmod.o)
                0x26f0b8b4                __aeabi_ldivmod
 *(.rodata .rodata* .gnu.linkonce.r.*)
 .rodata        0x26f0b954      0x124 build/sam_a5d27_som1_winc1500/production/_ext/1971804060/drv_spi.o
 .rodata        0x26f0ba78       0x14 build/sam_a5d27_som1_winc1500/production/_ext/467732753/wdrv_winc_spi.o
 .rodata        0x26f0ba8c      0x37c build/sam_a5d27_som1_winc1500/production/_ext/492885778/m2m_hif.o
 .rodata        0x26f0be08       0xd4 build/sam_a5d27_som1_winc1500/production/_ext/492885778/nmdrv.o
 .rodata        0x26f0bedc      0x35c build/sam_a5d27_som1_winc1500/production/_ext/492885778/m2m_wifi.o
 .rodata        0x26f0c238       0xdc build/sam_a5d27_som1_winc1500/production/_ext/492885778/m2m_ssl.o
 .rodata        0x26f0c314      0x124 build/sam_a5d27_som1_winc1500/production/_ext/492885778/nmasic.o
 .rodata        0x26f0c438      0x664 build/sam_a5d27_som1_winc1500/production/_ext/492885778/nmspi.o
 .rodata.crc7_syndrome_table
                0x26f0ca9c      0x100 build/sam_a5d27_som1_winc1500/production/_ext/492885778/nmspi.o
 .rodata        0x26f0cb9c       0xd4 build/sam_a5d27_som1_winc1500/production/_ext/492885778/m2m_ota.o
 .rodata        0x26f0cc70      0x110 build/sam_a5d27_som1_winc1500/production/_ext/919363165/socket.o
 .rodata        0x26f0cd80       0x74 build/sam_a5d27_som1_winc1500/production/_ext/1528743604/wdrv_winc.o
 .rodata.portNumCb
                0x26f0cdf4        0x8 build/sam_a5d27_som1_winc1500/production/_ext/192053755/plib_pio.o
 .rodata.sysConsoleUARTDevDesc
                0x26f0cdfc       0x2c build/sam_a5d27_som1_winc1500/production/_ext/1238961202/sys_console_uart.o
                0x26f0cdfc                sysConsoleUARTDevDesc
 .rodata.debugInit
                0x26f0ce28        0x4 build/sam_a5d27_som1_winc1500/production/_ext/1420715725/initialization.o
                0x26f0ce28                debugInit
 .rodata.drvSPI0InitData
                0x26f0ce2c       0x30 build/sam_a5d27_som1_winc1500/production/_ext/1420715725/initialization.o
                0x26f0ce2c                drvSPI0InitData
 .rodata.drvSPI0InterruptSources
                0x26f0ce5c       0x18 build/sam_a5d27_som1_winc1500/production/_ext/1420715725/initialization.o
                0x26f0ce5c                drvSPI0InterruptSources
 .rodata.drvSPI0PlibAPI
                0x26f0ce74       0x10 build/sam_a5d27_som1_winc1500/production/_ext/1420715725/initialization.o
                0x26f0ce74                drvSPI0PlibAPI
 .rodata.drvSPI0remapClockPhase
                0x26f0ce84        0x8 build/sam_a5d27_som1_winc1500/production/_ext/1420715725/initialization.o
                0x26f0ce84                drvSPI0remapClockPhase
 .rodata.drvSPI0remapClockPolarity
                0x26f0ce8c        0x8 build/sam_a5d27_som1_winc1500/production/_ext/1420715725/initialization.o
                0x26f0ce8c                drvSPI0remapClockPolarity
 .rodata.drvSPI0remapDataBits
                0x26f0ce94       0x28 build/sam_a5d27_som1_winc1500/production/_ext/1420715725/initialization.o
                0x26f0ce94                drvSPI0remapDataBits
 .rodata.sysConsole0Init
                0x26f0cebc        0xc build/sam_a5d27_som1_winc1500/production/_ext/1420715725/initialization.o
                0x26f0cebc                sysConsole0Init
 .rodata.sysConsole0UARTInitData
                0x26f0cec8        0x4 build/sam_a5d27_som1_winc1500/production/_ext/1420715725/initialization.o
                0x26f0cec8                sysConsole0UARTInitData
 .rodata.sysConsole0UARTPlibAPI
                0x26f0cecc       0x18 build/sam_a5d27_som1_winc1500/production/_ext/1420715725/initialization.o
                0x26f0cecc                sysConsole0UARTPlibAPI
 .rodata.sysTimeInitData
                0x26f0cee4        0x8 build/sam_a5d27_som1_winc1500/production/_ext/1420715725/initialization.o
                0x26f0cee4                sysTimeInitData
 .rodata.sysTimePlibAPI
                0x26f0ceec       0x1c build/sam_a5d27_som1_winc1500/production/_ext/1420715725/initialization.o
                0x26f0ceec                sysTimePlibAPI
 .rodata.wdrvWincInitData
                0x26f0cf08        0x8 build/sam_a5d27_som1_winc1500/production/_ext/1420715725/initialization.o
 .rodata        0x26f0cf10      0x340 build/sam_a5d27_som1_winc1500/production/_ext/1360937237/example.o
 .rodata        0x26f0d250       0x5c c:/program files/microchip/xc32/v4.00/bin/bin/../../lib/gcc/pic32c/8.3.1/../../../../pic32c/lib/thumb/v7-a+simd/hard\libc-musl.a(malloc.o)
 .rodata        0x26f0d2ac        0x4 c:/program files/microchip/xc32/v4.00/bin/bin/../../lib/gcc/pic32c/8.3.1/../../../../pic32c/lib/thumb/v7-a+simd/hard\libc-musl.a(__tz.o)
                0x26f0d2ac                __gmt
 .rodata        0x26f0d2b0       0x30 c:/program files/microchip/xc32/v4.00/bin/bin/../../lib/gcc/pic32c/8.3.1/../../../../pic32c/lib/thumb/v7-a+simd/hard\libc-musl.a(__month_to_secs.o)
 .rodata        0x26f0d2e0        0xc c:/program files/microchip/xc32/v4.00/bin/bin/../../lib/gcc/pic32c/8.3.1/../../../../pic32c/lib/thumb/v7-a+simd/hard\libc-musl.a(__secs_to_tm.o)
 .rodata        0x26f0d2ec       0x1c c:/program files/microchip/xc32/v4.00/bin/bin/../../lib/gcc/pic32c/8.3.1/../../../../pic32c/lib/thumb/v7-a+simd/hard\libc-musl.a(__printf_core.o)
 .rodata        0x26f0d308       0x10 c:/program files/microchip/xc32/v4.00/bin/bin/../../lib/gcc/pic32c/8.3.1/../../../../pic32c/lib/thumb/v7-a+simd/hard\libc-musl.a(__fmt_a.o)
 .rodata        0x26f0d318       0x10 c:/program files/microchip/xc32/v4.00/bin/bin/../../lib/gcc/pic32c/8.3.1/../../../../pic32c/lib/thumb/v7-a+simd/hard\libc-musl.a(__fmt_fp.o)
 .rodata        0x26f0d328        0x7 c:/program files/microchip/xc32/v4.00/bin/bin/../../lib/gcc/pic32c/8.3.1/../../../../pic32c/lib/thumb/v7-a+simd/hard\libc-musl.a(__fmt_s.o)
 *(.ARM.extab* .gnu.linkonce.armextab.*)
                0x26f0d330                . = ALIGN (0x4)
 *fill*         0x26f0d32f        0x1 
 *(.init)
 .init          0x26f0d330        0x4 c:/program files/microchip/xc32/v4.00/bin/bin/../../lib/gcc/pic32c/8.3.1/thumb/v7-a+simd/hard/crti.o
                0x26f0d330                _init
 .init          0x26f0d334        0x8 c:/program files/microchip/xc32/v4.00/bin/bin/../../lib/gcc/pic32c/8.3.1/thumb/v7-a+simd/hard/crtn.o
                0x26f0d33c                . = ALIGN (0x4)
                0x26f0d33c                __preinit_array_start = .
 *(.preinit_array)
                0x26f0d33c                __preinit_array_end = .
                0x26f0d33c                . = ALIGN (0x4)
                0x26f0d33c                __init_array_start = .
 *(SORT_BY_NAME(.init_array.*))
 *(.init_array)
 .init_array    0x26f0d33c        0x4 c:/program files/microchip/xc32/v4.00/bin/bin/../../lib/gcc/pic32c/8.3.1/thumb/v7-a+simd/hard/crtbegin.o
                0x26f0d340                __init_array_end = .
                0x26f0d340                . = ALIGN (0x4)
 *crtbegin.o(.ctors)
 *(EXCLUDE_FILE(*crtend.o) .ctors)
 *(SORT_BY_NAME(.ctors.*))
 *crtend.o(.ctors)
                0x26f0d340                . = ALIGN (0x4)
 *(.fini)
 .fini          0x26f0d340        0x4 c:/program files/microchip/xc32/v4.00/bin/bin/../../lib/gcc/pic32c/8.3.1/thumb/v7-a+simd/hard/crti.o
                0x26f0d340                _fini
 .fini          0x26f0d344        0x8 c:/program files/microchip/xc32/v4.00/bin/bin/../../lib/gcc/pic32c/8.3.1/thumb/v7-a+simd/hard/crtn.o
                0x26f0d34c                . = ALIGN (0x4)
                0x26f0d34c                __fini_array_start = .
 *(.fini_array)
 .fini_array    0x26f0d34c        0x4 c:/program files/microchip/xc32/v4.00/bin/bin/../../lib/gcc/pic32c/8.3.1/thumb/v7-a+simd/hard/crtbegin.o
 *(SORT_BY_NAME(.fini_array.*))
                0x26f0d350                __fini_array_end = .
 *crtbegin.o(.dtors)
 *(EXCLUDE_FILE(*crtend.o) .dtors)
 *(SORT_BY_NAME(.dtors.*))
 *crtend.o(.dtors)
 *(.dinit*)
                0x26f0d350                . = ALIGN (0x4)

.data           0x26f0d350       0x80
 *(.data .data.*)
 .data.egstrNmBusCapabilities
                0x26f0d350        0x2 build/sam_a5d27_som1_winc1500/production/_ext/492885778/nmbus.o
                0x26f0d350                egstrNmBusCapabilities
 *fill*         0x26f0d352        0x2 
 .data.gu321xTlsHsFlags
                0x26f0d354        0x4 build/sam_a5d27_som1_winc1500/production/_ext/492885778/m2m_wifi.o
 .data.genuStatus
                0x26f0d358        0x1 build/sam_a5d27_som1_winc1500/production/_ext/492885778/m2m_ssl.o
 .data.gu8CurrFileHandlerID
                0x26f0d359        0x1 build/sam_a5d27_som1_winc1500/production/_ext/492885778/m2m_ota.o
 .data.gSysTimeTokenCount
                0x26f0d35a        0x2 build/sam_a5d27_som1_winc1500/production/_ext/668867648/sys_time.o
 .data.irqData  0x26f0d35c       0x64 build/sam_a5d27_som1_winc1500/production/_ext/1420715725/interrupts.o
                0x26f0d35c                irqData
 .data.irqDataEntryCount
                0x26f0d3c0        0x4 build/sam_a5d27_som1_winc1500/production/_ext/1420715725/interrupts.o
                0x26f0d3c0                irqDataEntryCount
 .data.serverSocket
                0x26f0d3c4        0x1 build/sam_a5d27_som1_winc1500/production/_ext/1360937237/example.o
 .data.tcp_client_socket
                0x26f0d3c5        0x1 build/sam_a5d27_som1_winc1500/production/_ext/1360937237/example.o
 *fill*         0x26f0d3c6        0x2 
 .data          0x26f0d3c8        0x8 c:/program files/microchip/xc32/v4.00/bin/bin/../../lib/gcc/pic32c/8.3.1/../../../../pic32c/lib/thumb/v7-a+simd/hard\libc-musl.a(__tz.o)
                0x26f0d3d0                . = ALIGN (0x4)
                0x26f0d3d0                _efixed = .
                [!provide]                PROVIDE (__exidx_start = .)

.ARM.exidx      0x26f0d3d0        0x8
 *(.ARM.exidx* .gnu.linkonce.armexidx.*)
 .ARM.exidx     0x26f0d3d0        0x8 c:/program files/microchip/xc32/v4.00/bin/bin/../../lib/gcc/pic32c/8.3.1/thumb/v7-a+simd/hard\libgcc.a(_udivmoddi4.o)
                [!provide]                PROVIDE (__exidx_end = .)
                0x26f0d3d8                . = ALIGN (0x4)
                0x26f0d3d8                _etext = .

.relocate       0x00200000       0x3c load address 0x26f0d3d8
                0x00200000                . = ALIGN (0x4)
                0x00200000                _srelocate = .
 *(.vectors .vectors.*)
 .vectors       0x00200000       0x3c build/sam_a5d27_som1_winc1500/production/_ext/1420715725/cstartup.o
 *(.ramfunc)
                0x0020003c                . = ALIGN (0x4)
                0x0020003c                _erelocate = .

.region_cache_aligned_const
                0x26f0d414        0xc
                0x26f0d420                . = ALIGN (0x20)
 *fill*         0x26f0d414        0xc 
 *(.region_cache_aligned_const .region_cache_aligned_const.*)
                0x26f0d420                . = ALIGN (0x20)

.region_sram    0x0020003c        0x0
                0x0020003c                . = ALIGN (0x4)
 *(.region_sram .region_sram.*)

.region_ram     0x26f0d420        0x0
                0x26f0d420                . = ALIGN (0x4)
 *(.region_ram .region_ram.*)

.region_nocache
                0x20000000        0x0
                0x20000000                . = ALIGN (0x4)
 *(.region_nocache .region_nocache.*)

.bss            0x26f10000     0x8ecc
                0x26f10000                . = ALIGN (0x4)
                0x26f10000                _szero = .
 *(.bss .bss.*)
 .bss           0x26f10000       0x1c c:/program files/microchip/xc32/v4.00/bin/bin/../../lib/gcc/pic32c/8.3.1/thumb/v7-a+simd/hard/crtbegin.o
 .bss.gDrvSPIObj
                0x26f1001c       0x6c build/sam_a5d27_som1_winc1500/production/_ext/1971804060/drv_spi.o
 *fill*         0x26f10088       0x18 
 .bss.txDummyData
                0x26f100a0       0x20 build/sam_a5d27_som1_winc1500/production/_ext/1971804060/drv_spi.o
 .bss.dummy.11539
                0x26f100c0        0x1 build/sam_a5d27_som1_winc1500/production/_ext/467732753/wdrv_winc_spi.o
 *fill*         0x26f100c1        0x3 
 .bss.spiDcpt   0x26f100c4       0x14 build/sam_a5d27_som1_winc1500/production/_ext/467732753/wdrv_winc_spi.o
 .bss.gstrHifCxt
                0x26f100d8       0x28 build/sam_a5d27_som1_winc1500/production/_ext/492885778/m2m_hif.o
                0x26f100d8                gstrHifCxt
 .bss.hifSemaphore
                0x26f10100        0x1 build/sam_a5d27_som1_winc1500/production/_ext/492885778/m2m_hif.o
 *fill*         0x26f10101        0x3 
 .bss.gau81xRootSha1
                0x26f10104       0x14 build/sam_a5d27_som1_winc1500/production/_ext/492885778/m2m_wifi.o
 .bss.gau8ethRcvBuf
                0x26f10118        0x4 build/sam_a5d27_som1_winc1500/production/_ext/492885778/m2m_wifi.o
 .bss.gpfAppEthCb
                0x26f1011c        0x4 build/sam_a5d27_som1_winc1500/production/_ext/492885778/m2m_wifi.o
 .bss.gpfAppWifiCb
                0x26f10120        0x4 build/sam_a5d27_som1_winc1500/production/_ext/492885778/m2m_wifi.o
 .bss.gu16ethRcvBufSize
                0x26f10124        0x2 build/sam_a5d27_som1_winc1500/production/_ext/492885778/m2m_wifi.o
 .bss.gu8ChNum  0x26f10126        0x1 build/sam_a5d27_som1_winc1500/production/_ext/492885778/m2m_wifi.o
 .bss.gu8WifiState
                0x26f10127        0x1 build/sam_a5d27_som1_winc1500/production/_ext/492885778/m2m_wifi.o
 .bss.gu8scanInProgress
                0x26f10128        0x1 build/sam_a5d27_som1_winc1500/production/_ext/492885778/m2m_wifi.o
 *fill*         0x26f10129        0x3 
 .bss.gpfAppSSLCb
                0x26f1012c        0x4 build/sam_a5d27_som1_winc1500/production/_ext/492885778/m2m_ssl.o
 .bss.gu32HIFAddr
                0x26f10130        0x4 build/sam_a5d27_som1_winc1500/production/_ext/492885778/m2m_ssl.o
 .bss.chipid.11184
                0x26f10134        0x4 build/sam_a5d27_som1_winc1500/production/_ext/492885778/nmasic.o
 .bss.gu8Crc_off
                0x26f10138        0x1 build/sam_a5d27_som1_winc1500/production/_ext/492885778/nmspi.o
 .bss.s_spiLock
                0x26f10139        0x1 build/sam_a5d27_som1_winc1500/production/_ext/492885778/nmspi.o
 *fill*         0x26f1013a        0x2 
 .bss.FileBlock
                0x26f1013c        0x8 build/sam_a5d27_som1_winc1500/production/_ext/492885778/m2m_ota.o
 .bss.gpfHFDEraseCb
                0x26f10144        0x4 build/sam_a5d27_som1_winc1500/production/_ext/492885778/m2m_ota.o
 .bss.gpfHFDGetCb
                0x26f10148        0x4 build/sam_a5d27_som1_winc1500/production/_ext/492885778/m2m_ota.o
 .bss.gpfHFDReadCb
                0x26f1014c        0x4 build/sam_a5d27_som1_winc1500/production/_ext/492885778/m2m_ota.o
 .bss.gpfOtaNotifCb
                0x26f10150        0x4 build/sam_a5d27_som1_winc1500/production/_ext/492885778/m2m_ota.o
 .bss.gpfOtaUpdateCb
                0x26f10154        0x4 build/sam_a5d27_som1_winc1500/production/_ext/492885778/m2m_ota.o
 .bss.u32FlashHFDSize.11717
                0x26f10158        0x4 build/sam_a5d27_som1_winc1500/production/_ext/492885778/m2m_ota.o
 .bss.u32FlashHFDStart.11716
                0x26f1015c        0x4 build/sam_a5d27_som1_winc1500/production/_ext/492885778/m2m_ota.o
 .bss.gastrSockets
                0x26f10160       0xb0 build/sam_a5d27_som1_winc1500/production/_ext/919363165/socket.o
                0x26f10160                gastrSockets
 .bss.gbSocketInit
                0x26f10210        0x1 build/sam_a5d27_som1_winc1500/production/_ext/919363165/socket.o
                0x26f10210                gbSocketInit
 *fill*         0x26f10211        0x3 
 .bss.gfpPingCb
                0x26f10214        0x4 build/sam_a5d27_som1_winc1500/production/_ext/919363165/socket.o
 .bss.gpfAppResolveCb
                0x26f10218        0x4 build/sam_a5d27_som1_winc1500/production/_ext/919363165/socket.o
                0x26f10218                gpfAppResolveCb
 .bss.gpfAppSocketCb
                0x26f1021c        0x4 build/sam_a5d27_som1_winc1500/production/_ext/919363165/socket.o
                0x26f1021c                gpfAppSocketCb
 .bss.gu16SessionID
                0x26f10220        0x2 build/sam_a5d27_som1_winc1500/production/_ext/919363165/socket.o
                0x26f10220                gu16SessionID
 *fill*         0x26f10222        0x2 
 .bss.gu32PingId
                0x26f10224        0x4 build/sam_a5d27_som1_winc1500/production/_ext/919363165/socket.o
 .bss.u8NextTcpSock.11497
                0x26f10228        0x1 build/sam_a5d27_som1_winc1500/production/_ext/919363165/socket.o
 .bss.u8NextUdpSock.11498
                0x26f10229        0x1 build/sam_a5d27_som1_winc1500/production/_ext/919363165/socket.o
 *fill*         0x26f1022a        0x2 
 .bss.wincCtrlDescriptor
                0x26f1022c      0x100 build/sam_a5d27_som1_winc1500/production/_ext/1528743604/wdrv_winc.o
 .bss.wincDescriptor
                0x26f1032c       0x10 build/sam_a5d27_som1_winc1500/production/_ext/1528743604/wdrv_winc.o
 .bss.flexcom4SpiObj
                0x26f1033c       0x2c build/sam_a5d27_som1_winc1500/production/_ext/1834821283/plib_flexcom4_spi_master.o
                0x26f1033c                flexcom4SpiObj
 .bss.isLastByteTransferInProgress.8330
                0x26f10368        0x1 build/sam_a5d27_som1_winc1500/production/_ext/1834821283/plib_flexcom4_spi_master.o
 *fill*         0x26f10369     0x3c97 
 .bss.tlb       0x26f14000     0x4000 build/sam_a5d27_som1_winc1500/production/_ext/192056508/plib_mmu.o
 .bss.portPinCbObj
                0x26f18000        0xc build/sam_a5d27_som1_winc1500/production/_ext/192053755/plib_pio.o
 .bss.TC0_CH0_CallbackObj
                0x26f1800c        0x8 build/sam_a5d27_som1_winc1500/production/_ext/6195168/plib_tc0.o
 .bss.UART1_ReadBuffer
                0x26f18014       0x80 build/sam_a5d27_som1_winc1500/production/_ext/1658557633/plib_uart1.o
 .bss.UART1_WriteBuffer
                0x26f18094      0x12c build/sam_a5d27_som1_winc1500/production/_ext/1658557633/plib_uart1.o
 .bss.uart1Obj  0x26f181c0       0x38 build/sam_a5d27_som1_winc1500/production/_ext/1658557633/plib_uart1.o
                0x26f181c0                uart1Obj
 .bss.xdmacChannelObj
                0x26f181f8       0x20 build/sam_a5d27_som1_winc1500/production/_ext/127175570/plib_xdmac0.o
                0x26f181f8                xdmacChannelObj
 .bss.consoleDeviceInstance
                0x26f18218        0xc build/sam_a5d27_som1_winc1500/production/_ext/1238961202/sys_console.o
 .bss.consolePrintBuffer
                0x26f18224       0xc8 build/sam_a5d27_som1_winc1500/production/_ext/1238961202/sys_console.o
 .bss.consolePrintBufferMutex
                0x26f182ec        0x1 build/sam_a5d27_som1_winc1500/production/_ext/1238961202/sys_console.o
 .bss.isConsoleMutexCreated
                0x26f182ed        0x1 build/sam_a5d27_som1_winc1500/production/_ext/1238961202/sys_console.o
 *fill*         0x26f182ee        0x2 
 .bss.gConsoleUartData
                0x26f182f0        0x8 build/sam_a5d27_som1_winc1500/production/_ext/1238961202/sys_console_uart.o
 .bss.gblErrLvl
                0x26f182f8        0x1 build/sam_a5d27_som1_winc1500/production/_ext/931592374/sys_debug.o
                0x26f182f8                gblErrLvl
 *fill*         0x26f182f9        0x3 
 .bss.sysDebugInstance
                0x26f182fc        0x4 build/sam_a5d27_som1_winc1500/production/_ext/931592374/sys_debug.o
 .bss.gSystemCounterObj
                0x26f18300       0x38 build/sam_a5d27_som1_winc1500/production/_ext/668867648/sys_time.o
 .bss.timers    0x26f18338       0xa0 build/sam_a5d27_som1_winc1500/production/_ext/668867648/sys_time.o
 .bss.spuriousEventCount
                0x26f183d8        0x4 build/sam_a5d27_som1_winc1500/production/_ext/1420715725/interrupts.o
                0x26f183d8                spuriousEventCount
 .bss.drvSPI0ClientObjPool
                0x26f183dc       0x28 build/sam_a5d27_som1_winc1500/production/_ext/1420715725/initialization.o
 .bss.drvSPI0TransferObjPool
                0x26f18404       0x90 build/sam_a5d27_som1_winc1500/production/_ext/1420715725/initialization.o
 .bss.sysObj    0x26f18494       0x14 build/sam_a5d27_som1_winc1500/production/_ext/1420715725/initialization.o
                0x26f18494                sysObj
 .bss.wdrvWincSpiInitData
                0x26f184a8        0x2 build/sam_a5d27_som1_winc1500/production/_ext/1420715725/initialization.o
 *fill*         0x26f184aa        0x2 
 .bss.appData   0x26f184ac        0x8 build/sam_a5d27_som1_winc1500/production/_ext/1360937237/app.o
                0x26f184ac                appData
 .bss.wdrvHandle
                0x26f184b4        0x4 build/sam_a5d27_som1_winc1500/production/_ext/1360937237/app.o
 .bss.authCtx   0x26f184b8      0x170 build/sam_a5d27_som1_winc1500/production/_ext/1360937237/example.o
 .bss.bssCtx    0x26f18628       0x2a build/sam_a5d27_som1_winc1500/production/_ext/1360937237/example.o
 *fill*         0x26f18652        0x2 
 .bss.recvBuffer
                0x26f18654      0x5b4 build/sam_a5d27_som1_winc1500/production/_ext/1360937237/example.o
 .bss.state     0x26f18c08        0x1 build/sam_a5d27_som1_winc1500/production/_ext/1360937237/example.o
 *fill*         0x26f18c09        0x3 
 .bss           0x26f18c0c       0x50 c:/program files/microchip/xc32/v4.00/bin/bin/../../lib/gcc/pic32c/8.3.1/../../../../pic32c/lib/thumb/v7-a+simd/hard\libc-musl.a(libc.o)
                0x26f18c0c                __progname_full
                0x26f18c0c                program_invocation_name
                0x26f18c10                program_invocation_short_name
                0x26f18c10                __progname
                0x26f18c14                __sysinfo
                0x26f18c18                __hwcap
                0x26f18c1c                __libc
 *fill*         0x26f18c5c        0x4 
 .bss           0x26f18c60      0x20c c:/program files/microchip/xc32/v4.00/bin/bin/../../lib/gcc/pic32c/8.3.1/../../../../pic32c/lib/thumb/v7-a+simd/hard\libc-musl.a(malloc.o)
 .bss           0x26f18e6c        0x4 c:/program files/microchip/xc32/v4.00/bin/bin/../../lib/gcc/pic32c/8.3.1/../../../../pic32c/lib/thumb/v7-a+simd/hard\libc-musl.a(strtok.o)
 .bss           0x26f18e70       0x50 c:/program files/microchip/xc32/v4.00/bin/bin/../../lib/gcc/pic32c/8.3.1/../../../../pic32c/lib/thumb/v7-a+simd/hard\libc-musl.a(__tz.o)
                0x26f18e78                __tzname
                0x26f18e78                tzname
                0x26f18e80                timezone
                0x26f18e80                __timezone
                0x26f18e8c                daylight
                0x26f18e8c                __daylight
 .bss           0x26f18ec0        0x4 c:/program files/microchip/xc32/v4.00/bin/bin/../../lib/gcc/pic32c/8.3.1/../../../../pic32c/lib/thumb/v7-a+simd/hard\libc-musl.a(__environ.o)
                0x26f18ec0                __environ
                0x26f18ec0                environ
                0x26f18ec0                ___environ
                0x26f18ec0                _environ
 .bss           0x26f18ec4        0x4 c:/program files/microchip/xc32/v4.00/bin/bin/../../lib/gcc/pic32c/8.3.1/../../../../pic32c/lib/thumb/v7-a+simd/hard\libc-musl.a(__errno_location.o)
                0x26f18ec4                __errno_val
 .bss           0x26f18ec8        0x4 c:/program files/microchip/xc32/v4.00/bin/bin/../../lib/gcc/pic32c/8.3.1/../../../../pic32c/lib/thumb/v7-a+simd/hard\libpic32c.a(sbrk.o)
 *(COMMON)
                0x26f18ecc                . = ALIGN (0x4)
                0x26f18ecc                _ezero = .

.region_cache_aligned
                0x26f18ecc       0x14
                0x26f18ee0                . = ALIGN (0x20)
 *fill*         0x26f18ecc       0x14 
 *(.region_cache_aligned .region_cache_aligned.*)
                0x26f18ee0                . = ALIGN (0x20)

.stacks         0x26f18ee0     0x2140
                0x26f18f40                . = (. + IRQ_STACK_SIZE)
 *fill*         0x26f18ee0       0x60 
                0x26f18f40                . = ALIGN (0x8)
                0x26f18f40                _irqstack = .
                0x26f18fa0                . = (. + FIQ_STACK_SIZE)
 *fill*         0x26f18f40       0x60 
                0x26f18fa0                . = ALIGN (0x8)
                0x26f18fa0                _fiqstack = .
                0x26f18fe0                . = (. + ABT_STACK_SIZE)
 *fill*         0x26f18fa0       0x40 
                0x26f18fe0                . = ALIGN (0x8)
                0x26f18fe0                _abtstack = .
                0x26f19020                . = (. + UND_STACK_SIZE)
 *fill*         0x26f18fe0       0x40 
                0x26f19020                . = ALIGN (0x8)
                0x26f19020                _undstack = .
                0x26f1a020                . = (. + SVC_STACK_SIZE)
 *fill*         0x26f19020     0x1000 
                0x26f1a020                . = ALIGN (0x8)
                0x26f1a020                _svcstack = .
                0x26f1b020                . = (. + C_STACK_SIZE)
 *fill*         0x26f1a020     0x1000 
                0x26f1b020                . = ALIGN (0x8)
                0x26f1b020                _cstack = .
                0x26f1b020                _end = .
                0x26f1b020                _ramcode_lma = _end

.ramcode        0x0020003c        0x0 load address 0x26f1b020
                0x0020003c                _sramcode = .
 *(.ramcode_section .ramcode_section.*)
                0x0020003c                _eramcode = .
                0x26f1b020                _ramdata_lma = ((_end + _eramcode) - _sramcode)

.ramdata        0x0020003c        0x0 load address 0x26f1b020
                0x0020003c                _sramdata = .
 *(.ramdata_section .ramdata_section.*)
                0x0020003c                _eramdata = .
                0x00000200                _min_heap_size = 0x200
START GROUP
LOAD c:/program files/microchip/xc32/v4.00/bin/bin/../../lib/gcc/pic32c/8.3.1/../../../../pic32c/lib/thumb/v7-a+simd/hard\libpic32c.a
LOAD c:/program files/microchip/xc32/v4.00/bin/bin/../../lib/gcc/pic32c/8.3.1/thumb/v7-a+simd/hard\libgcc.a
LOAD c:/program files/microchip/xc32/v4.00/bin/bin/../../lib/gcc/pic32c/8.3.1/../../../../pic32c/lib/thumb/v7-a+simd/hard\libm-musl.a
LOAD c:/program files/microchip/xc32/v4.00/bin/bin/../../lib/gcc/pic32c/8.3.1/../../../../pic32c/lib/thumb/v7-a+simd/hard\libc-musl.a
LOAD c:/program files/microchip/xc32/v4.00/bin/bin/../../lib/gcc/pic32c/8.3.1/../../../../pic32c/lib/thumb/v7-a+simd/hard\libm-musl.a
END GROUP
LOAD c:/program files/microchip/xc32/v4.00/bin/bin/../../lib/gcc/pic32c/8.3.1/thumb/v7-a+simd/hard/crtend.o
LOAD c:/program files/microchip/xc32/v4.00/bin/bin/../../lib/gcc/pic32c/8.3.1/thumb/v7-a+simd/hard/crtn.o
OUTPUT(dist/sam_a5d27_som1_winc1500/production/sam_a5d27_som1_winc1500.X.production.elf elf32-littlearm)
LOAD stack

.ARM.attributes
                0x00000000       0x37
 .ARM.attributes
                0x00000000       0x1f c:/program files/microchip/xc32/v4.00/bin/bin/../../lib/gcc/pic32c/8.3.1/thumb/v7-a+simd/hard/crti.o
 .ARM.attributes
                0x0000001f       0x35 c:/program files/microchip/xc32/v4.00/bin/bin/../../lib/gcc/pic32c/8.3.1/thumb/v7-a+simd/hard/crtbegin.o
 .ARM.attributes
                0x00000054       0x39 build/sam_a5d27_som1_winc1500/production/_ext/1971804060/drv_spi.o
 .ARM.attributes
                0x0000008d       0x39 build/sam_a5d27_som1_winc1500/production/_ext/1615170836/wdrv_winc_eint.o
 .ARM.attributes
                0x000000c6       0x39 build/sam_a5d27_som1_winc1500/production/_ext/1615170836/wdrv_winc_gpio.o
 .ARM.attributes
                0x000000ff       0x39 build/sam_a5d27_som1_winc1500/production/_ext/467732753/wdrv_winc_spi.o
 .ARM.attributes
                0x00000138       0x39 build/sam_a5d27_som1_winc1500/production/_ext/461596885/nm_common.o
 .ARM.attributes
                0x00000171       0x39 build/sam_a5d27_som1_winc1500/production/_ext/492885778/m2m_hif.o
 .ARM.attributes
                0x000001aa       0x39 build/sam_a5d27_som1_winc1500/production/_ext/492885778/nmbus.o
 .ARM.attributes
                0x000001e3       0x39 build/sam_a5d27_som1_winc1500/production/_ext/492885778/nmdrv.o
 .ARM.attributes
                0x0000021c       0x39 build/sam_a5d27_som1_winc1500/production/_ext/492885778/m2m_wifi.o
 .ARM.attributes
                0x00000255       0x39 build/sam_a5d27_som1_winc1500/production/_ext/492885778/m2m_ssl.o
 .ARM.attributes
                0x0000028e       0x39 build/sam_a5d27_som1_winc1500/production/_ext/492885778/nmasic.o
 .ARM.attributes
                0x000002c7       0x39 build/sam_a5d27_som1_winc1500/production/_ext/492885778/nmspi.o
 .ARM.attributes
                0x00000300       0x39 build/sam_a5d27_som1_winc1500/production/_ext/492885778/m2m_ota.o
 .ARM.attributes
                0x00000339       0x39 build/sam_a5d27_som1_winc1500/production/_ext/919363165/inet_addr.o
 .ARM.attributes
                0x00000372       0x39 build/sam_a5d27_som1_winc1500/production/_ext/919363165/inet_ntop.o
 .ARM.attributes
                0x000003ab       0x39 build/sam_a5d27_som1_winc1500/production/_ext/919363165/socket.o
 .ARM.attributes
                0x000003e4       0x39 build/sam_a5d27_som1_winc1500/production/_ext/2123267981/flexible_flash.o
 .ARM.attributes
                0x0000041d       0x39 build/sam_a5d27_som1_winc1500/production/_ext/2123267981/spi_flash.o
 .ARM.attributes
                0x00000456       0x39 build/sam_a5d27_som1_winc1500/production/_ext/141899762/wdrv_winc_osal.o
 .ARM.attributes
                0x0000048f       0x39 build/sam_a5d27_som1_winc1500/production/_ext/1528743604/wdrv_winc_sta.o
 .ARM.attributes
                0x000004c8       0x39 build/sam_a5d27_som1_winc1500/production/_ext/1528743604/wdrv_winc_authctx.o
 .ARM.attributes
                0x00000501       0x39 build/sam_a5d27_som1_winc1500/production/_ext/1528743604/wdrv_winc_host_file.o
 .ARM.attributes
                0x0000053a       0x39 build/sam_a5d27_som1_winc1500/production/_ext/1528743604/wdrv_winc_softap.o
 .ARM.attributes
                0x00000573       0x39 build/sam_a5d27_som1_winc1500/production/_ext/1528743604/wdrv_winc_systime.o
 .ARM.attributes
                0x000005ac       0x39 build/sam_a5d27_som1_winc1500/production/_ext/1528743604/wdrv_winc_socket.o
 .ARM.attributes
                0x000005e5       0x39 build/sam_a5d27_som1_winc1500/production/_ext/1528743604/wdrv_winc_bssctx.o
 .ARM.attributes
                0x0000061e       0x39 build/sam_a5d27_som1_winc1500/production/_ext/1528743604/wdrv_winc.o
 .ARM.attributes
                0x00000657       0x39 build/sam_a5d27_som1_winc1500/production/_ext/192068182/plib_aic.o
 .ARM.attributes
                0x00000690       0x39 build/sam_a5d27_som1_winc1500/production/_ext/192066159/plib_clk.o
 .ARM.attributes
                0x000006c9       0x39 build/sam_a5d27_som1_winc1500/production/_ext/1834821283/plib_flexcom4_spi_master.o
 .ARM.attributes
                0x00000702       0x39 build/sam_a5d27_som1_winc1500/production/_ext/669990670/plib_matrix.o
 .ARM.attributes
                0x0000073b       0x39 build/sam_a5d27_som1_winc1500/production/_ext/192056508/plib_mmu.o
 .ARM.attributes
                0x00000774       0x39 build/sam_a5d27_som1_winc1500/production/_ext/192053755/plib_pio.o
 .ARM.attributes
                0x000007ad       0x39 build/sam_a5d27_som1_winc1500/production/_ext/6195168/plib_tc0.o
 .ARM.attributes
                0x000007e6       0x39 build/sam_a5d27_som1_winc1500/production/_ext/1658557633/plib_uart1.o
 .ARM.attributes
                0x0000081f       0x39 build/sam_a5d27_som1_winc1500/production/_ext/127175570/plib_xdmac0.o
 .ARM.attributes
                0x00000858       0x39 build/sam_a5d27_som1_winc1500/production/_ext/1238961202/sys_console.o
 .ARM.attributes
                0x00000891       0x39 build/sam_a5d27_som1_winc1500/production/_ext/1238961202/sys_console_uart.o
 .ARM.attributes
                0x000008ca       0x39 build/sam_a5d27_som1_winc1500/production/_ext/931592374/sys_debug.o
 .ARM.attributes
                0x00000903       0x39 build/sam_a5d27_som1_winc1500/production/_ext/737894/sys_dma.o
 .ARM.attributes
                0x0000093c       0x39 build/sam_a5d27_som1_winc1500/production/_ext/1629436774/sys_int.o
 .ARM.attributes
                0x00000975       0x39 build/sam_a5d27_som1_winc1500/production/_ext/668867648/sys_time.o
 .ARM.attributes
                0x000009ae       0x39 build/sam_a5d27_som1_winc1500/production/_ext/1420715725/interrupts.o
 .ARM.attributes
                0x000009e7       0x39 build/sam_a5d27_som1_winc1500/production/_ext/1420715725/fault_handlers.o
 .ARM.attributes
                0x00000a20       0x25 build/sam_a5d27_som1_winc1500/production/_ext/1420715725/cstartup.o
 .ARM.attributes
                0x00000a45       0x39 build/sam_a5d27_som1_winc1500/production/_ext/1420715725/tasks.o
 .ARM.attributes
                0x00000a7e       0x39 build/sam_a5d27_som1_winc1500/production/_ext/1420715725/initialization.o
 .ARM.attributes
                0x00000ab7       0x39 build/sam_a5d27_som1_winc1500/production/_ext/1360937237/main.o
 .ARM.attributes
                0x00000af0       0x39 build/sam_a5d27_som1_winc1500/production/_ext/1360937237/app.o
 .ARM.attributes
                0x00000b29       0x39 build/sam_a5d27_som1_winc1500/production/_ext/1360937237/example.o
 .ARM.attributes
                0x00000b62       0x1f c:/program files/microchip/xc32/v4.00/bin/bin/../../lib/gcc/pic32c/8.3.1/thumb/v7-a+simd/hard\libgcc.a(_udivsi3.o)
 .ARM.attributes
                0x00000b81       0x1f c:/program files/microchip/xc32/v4.00/bin/bin/../../lib/gcc/pic32c/8.3.1/thumb/v7-a+simd/hard\libgcc.a(_divsi3.o)
 .ARM.attributes
                0x00000ba0       0x1f c:/program files/microchip/xc32/v4.00/bin/bin/../../lib/gcc/pic32c/8.3.1/thumb/v7-a+simd/hard\libgcc.a(_dvmd_tls.o)
 .ARM.attributes
                0x00000bbf       0x1f c:/program files/microchip/xc32/v4.00/bin/bin/../../lib/gcc/pic32c/8.3.1/thumb/v7-a+simd/hard\libgcc.a(_aeabi_uldivmod.o)
 .ARM.attributes
                0x00000bde       0x35 c:/program files/microchip/xc32/v4.00/bin/bin/../../lib/gcc/pic32c/8.3.1/thumb/v7-a+simd/hard\libgcc.a(_udivmoddi4.o)
 .ARM.attributes
                0x00000c13       0x37 c:/program files/microchip/xc32/v4.00/bin/bin/../../lib/gcc/pic32c/8.3.1/../../../../pic32c/lib/thumb/v7-a+simd/hard\libc-musl.a(__libc_start_main.o)
 .ARM.attributes
                0x00000c4a       0x33 c:/program files/microchip/xc32/v4.00/bin/bin/../../lib/gcc/pic32c/8.3.1/../../../../pic32c/lib/thumb/v7-a+simd/hard\libc-musl.a(libc.o)
 .ARM.attributes
                0x00000c7d       0x37 c:/program files/microchip/xc32/v4.00/bin/bin/../../lib/gcc/pic32c/8.3.1/../../../../pic32c/lib/thumb/v7-a+simd/hard\libc-musl.a(malloc.o)
 .ARM.attributes
                0x00000cb4       0x37 c:/program files/microchip/xc32/v4.00/bin/bin/../../lib/gcc/pic32c/8.3.1/../../../../pic32c/lib/thumb/v7-a+simd/hard\libc-musl.a(expand_heap.o)
 .ARM.attributes
                0x00000ceb       0x37 c:/program files/microchip/xc32/v4.00/bin/bin/../../lib/gcc/pic32c/8.3.1/../../../../pic32c/lib/thumb/v7-a+simd/hard\libc-musl.a(vsnprintf.o)
 .ARM.attributes
                0x00000d22       0x37 c:/program files/microchip/xc32/v4.00/bin/bin/../../lib/gcc/pic32c/8.3.1/../../../../pic32c/lib/thumb/v7-a+simd/hard\libc-musl.a(atoi.o)
 .ARM.attributes
                0x00000d59       0x37 c:/program files/microchip/xc32/v4.00/bin/bin/../../lib/gcc/pic32c/8.3.1/../../../../pic32c/lib/thumb/v7-a+simd/hard\libc-musl.a(memcpy.o)
 .ARM.attributes
                0x00000d90       0x37 c:/program files/microchip/xc32/v4.00/bin/bin/../../lib/gcc/pic32c/8.3.1/../../../../pic32c/lib/thumb/v7-a+simd/hard\libc-musl.a(memset.o)
 .ARM.attributes
                0x00000dc7       0x37 c:/program files/microchip/xc32/v4.00/bin/bin/../../lib/gcc/pic32c/8.3.1/../../../../pic32c/lib/thumb/v7-a+simd/hard\libc-musl.a(strlen.o)
 .ARM.attributes
                0x00000dfe       0x37 c:/program files/microchip/xc32/v4.00/bin/bin/../../lib/gcc/pic32c/8.3.1/../../../../pic32c/lib/thumb/v7-a+simd/hard\libc-musl.a(strchr.o)
 .ARM.attributes
                0x00000e35       0x37 c:/program files/microchip/xc32/v4.00/bin/bin/../../lib/gcc/pic32c/8.3.1/../../../../pic32c/lib/thumb/v7-a+simd/hard\libc-musl.a(strchrnul.o)
 .ARM.attributes
                0x00000e6c       0x37 c:/program files/microchip/xc32/v4.00/bin/bin/../../lib/gcc/pic32c/8.3.1/../../../../pic32c/lib/thumb/v7-a+simd/hard\libc-musl.a(strcpy.o)
 .ARM.attributes
                0x00000ea3       0x37 c:/program files/microchip/xc32/v4.00/bin/bin/../../lib/gcc/pic32c/8.3.1/../../../../pic32c/lib/thumb/v7-a+simd/hard\libc-musl.a(strncmp.o)
 .ARM.attributes
                0x00000eda       0x37 c:/program files/microchip/xc32/v4.00/bin/bin/../../lib/gcc/pic32c/8.3.1/../../../../pic32c/lib/thumb/v7-a+simd/hard\libc-musl.a(strtok.o)
 .ARM.attributes
                0x00000f11       0x37 c:/program files/microchip/xc32/v4.00/bin/bin/../../lib/gcc/pic32c/8.3.1/../../../../pic32c/lib/thumb/v7-a+simd/hard\libc-musl.a(__tz.o)
 .ARM.attributes
                0x00000f48       0x37 c:/program files/microchip/xc32/v4.00/bin/bin/../../lib/gcc/pic32c/8.3.1/../../../../pic32c/lib/thumb/v7-a+simd/hard\libc-musl.a(mktime.o)
 .ARM.attributes
                0x00000f7f       0x33 c:/program files/microchip/xc32/v4.00/bin/bin/../../lib/gcc/pic32c/8.3.1/../../../../pic32c/lib/thumb/v7-a+simd/hard\libc-musl.a(__environ.o)
 .ARM.attributes
                0x00000fb2       0x33 c:/program files/microchip/xc32/v4.00/bin/bin/../../lib/gcc/pic32c/8.3.1/../../../../pic32c/lib/thumb/v7-a+simd/hard\libc-musl.a(__errno_location.o)
 .ARM.attributes
                0x00000fe5       0x37 c:/program files/microchip/xc32/v4.00/bin/bin/../../lib/gcc/pic32c/8.3.1/../../../../pic32c/lib/thumb/v7-a+simd/hard\libc-musl.a(vfprintf.o)
 .ARM.attributes
                0x0000101c       0x37 c:/program files/microchip/xc32/v4.00/bin/bin/../../lib/gcc/pic32c/8.3.1/../../../../pic32c/lib/thumb/v7-a+simd/hard\libc-musl.a(stpcpy.o)
 .ARM.attributes
                0x00001053       0x37 c:/program files/microchip/xc32/v4.00/bin/bin/../../lib/gcc/pic32c/8.3.1/../../../../pic32c/lib/thumb/v7-a+simd/hard\libc-musl.a(strcspn.o)
 .ARM.attributes
                0x0000108a       0x37 c:/program files/microchip/xc32/v4.00/bin/bin/../../lib/gcc/pic32c/8.3.1/../../../../pic32c/lib/thumb/v7-a+simd/hard\libc-musl.a(strspn.o)
 .ARM.attributes
                0x000010c1       0x37 c:/program files/microchip/xc32/v4.00/bin/bin/../../lib/gcc/pic32c/8.3.1/../../../../pic32c/lib/thumb/v7-a+simd/hard\libc-musl.a(__month_to_secs.o)
 .ARM.attributes
                0x000010f8       0x37 c:/program files/microchip/xc32/v4.00/bin/bin/../../lib/gcc/pic32c/8.3.1/../../../../pic32c/lib/thumb/v7-a+simd/hard\libc-musl.a(__secs_to_tm.o)
 .ARM.attributes
                0x0000112f       0x37 c:/program files/microchip/xc32/v4.00/bin/bin/../../lib/gcc/pic32c/8.3.1/../../../../pic32c/lib/thumb/v7-a+simd/hard\libc-musl.a(__tm_to_secs.o)
 .ARM.attributes
                0x00001166       0x37 c:/program files/microchip/xc32/v4.00/bin/bin/../../lib/gcc/pic32c/8.3.1/../../../../pic32c/lib/thumb/v7-a+simd/hard\libc-musl.a(__year_to_secs.o)
 .ARM.attributes
                0x0000119d       0x37 c:/program files/microchip/xc32/v4.00/bin/bin/../../lib/gcc/pic32c/8.3.1/../../../../pic32c/lib/thumb/v7-a+simd/hard\libc-musl.a(__printf_core.o)
 .ARM.attributes
                0x000011d4       0x37 c:/program files/microchip/xc32/v4.00/bin/bin/../../lib/gcc/pic32c/8.3.1/../../../../pic32c/lib/thumb/v7-a+simd/hard\libc-musl.a(tolower.o)
 .ARM.attributes
                0x0000120b       0x37 c:/program files/microchip/xc32/v4.00/bin/bin/../../lib/gcc/pic32c/8.3.1/../../../../pic32c/lib/thumb/v7-a+simd/hard\libc-musl.a(__fmt_a.o)
 .ARM.attributes
                0x00001242       0x37 c:/program files/microchip/xc32/v4.00/bin/bin/../../lib/gcc/pic32c/8.3.1/../../../../pic32c/lib/thumb/v7-a+simd/hard\libc-musl.a(__fmt_d.o)
 .ARM.attributes
                0x00001279       0x37 c:/program files/microchip/xc32/v4.00/bin/bin/../../lib/gcc/pic32c/8.3.1/../../../../pic32c/lib/thumb/v7-a+simd/hard\libc-musl.a(__fmt_fp.o)
 .ARM.attributes
                0x000012b0       0x37 c:/program files/microchip/xc32/v4.00/bin/bin/../../lib/gcc/pic32c/8.3.1/../../../../pic32c/lib/thumb/v7-a+simd/hard\libc-musl.a(__fmt_o.o)
 .ARM.attributes
                0x000012e7       0x37 c:/program files/microchip/xc32/v4.00/bin/bin/../../lib/gcc/pic32c/8.3.1/../../../../pic32c/lib/thumb/v7-a+simd/hard\libc-musl.a(__fmt_s.o)
 .ARM.attributes
                0x0000131e       0x37 c:/program files/microchip/xc32/v4.00/bin/bin/../../lib/gcc/pic32c/8.3.1/../../../../pic32c/lib/thumb/v7-a+simd/hard\libc-musl.a(__fmt_u.o)
 .ARM.attributes
                0x00001355       0x37 c:/program files/microchip/xc32/v4.00/bin/bin/../../lib/gcc/pic32c/8.3.1/../../../../pic32c/lib/thumb/v7-a+simd/hard\libc-musl.a(__fmt_x.o)
 .ARM.attributes
                0x0000138c       0x37 c:/program files/microchip/xc32/v4.00/bin/bin/../../lib/gcc/pic32c/8.3.1/../../../../pic32c/lib/thumb/v7-a+simd/hard\libc-musl.a(__pop_float.o)
 .ARM.attributes
                0x000013c3       0x37 c:/program files/microchip/xc32/v4.00/bin/bin/../../lib/gcc/pic32c/8.3.1/../../../../pic32c/lib/thumb/v7-a+simd/hard\libc-musl.a(__pop_int.o)
 .ARM.attributes
                0x000013fa       0x37 c:/program files/microchip/xc32/v4.00/bin/bin/../../lib/gcc/pic32c/8.3.1/../../../../pic32c/lib/thumb/v7-a+simd/hard\libc-musl.a(__pop_ptr.o)
 .ARM.attributes
                0x00001431       0x37 c:/program files/microchip/xc32/v4.00/bin/bin/../../lib/gcc/pic32c/8.3.1/../../../../pic32c/lib/thumb/v7-a+simd/hard\libc-musl.a(toupper.o)
 .ARM.attributes
                0x00001468       0x37 c:/program files/microchip/xc32/v4.00/bin/bin/../../lib/gcc/pic32c/8.3.1/../../../../pic32c/lib/thumb/v7-a+simd/hard\libm-musl.a(floor.o)
 .ARM.attributes
                0x0000149f       0x37 c:/program files/microchip/xc32/v4.00/bin/bin/../../lib/gcc/pic32c/8.3.1/../../../../pic32c/lib/thumb/v7-a+simd/hard\libm-musl.a(fma.o)
 .ARM.attributes
                0x000014d6       0x37 c:/program files/microchip/xc32/v4.00/bin/bin/../../lib/gcc/pic32c/8.3.1/../../../../pic32c/lib/thumb/v7-a+simd/hard\libm-musl.a(scalbn.o)
 .ARM.attributes
                0x0000150d       0x35 c:/program files/microchip/xc32/v4.00/bin/bin/../../lib/gcc/pic32c/8.3.1/../../../../pic32c/lib/thumb/v7-a+simd/hard\libpic32c.a(sbrk.o)
 .ARM.attributes
                0x00001542       0x1f c:/program files/microchip/xc32/v4.00/bin/bin/../../lib/gcc/pic32c/8.3.1/thumb/v7-a+simd/hard\libgcc.a(_arm_addsubdf3.o)
 .ARM.attributes
                0x00001561       0x1f c:/program files/microchip/xc32/v4.00/bin/bin/../../lib/gcc/pic32c/8.3.1/thumb/v7-a+simd/hard\libgcc.a(_aeabi_ldivmod.o)
 .ARM.attributes
                0x00001580       0x1f c:/program files/microchip/xc32/v4.00/bin/bin/../../lib/gcc/pic32c/8.3.1/thumb/v7-a+simd/hard/crtn.o

.comment        0x00000000       0x53
 .comment       0x00000000       0x53 c:/program files/microchip/xc32/v4.00/bin/bin/../../lib/gcc/pic32c/8.3.1/thumb/v7-a+simd/hard/crtbegin.o
                                 0x54 (size before relaxing)
 .comment       0x00000053       0x54 build/sam_a5d27_som1_winc1500/production/_ext/1971804060/drv_spi.o
 .comment       0x00000053       0x54 build/sam_a5d27_som1_winc1500/production/_ext/1615170836/wdrv_winc_eint.o
 .comment       0x00000053       0x54 build/sam_a5d27_som1_winc1500/production/_ext/1615170836/wdrv_winc_gpio.o
 .comment       0x00000053       0x54 build/sam_a5d27_som1_winc1500/production/_ext/467732753/wdrv_winc_spi.o
 .comment       0x00000053       0x54 build/sam_a5d27_som1_winc1500/production/_ext/461596885/nm_common.o
 .comment       0x00000053       0x54 build/sam_a5d27_som1_winc1500/production/_ext/492885778/m2m_hif.o
 .comment       0x00000053       0x54 build/sam_a5d27_som1_winc1500/production/_ext/492885778/nmbus.o
 .comment       0x00000053       0x54 build/sam_a5d27_som1_winc1500/production/_ext/492885778/nmdrv.o
 .comment       0x00000053       0x54 build/sam_a5d27_som1_winc1500/production/_ext/492885778/m2m_wifi.o
 .comment       0x00000053       0x54 build/sam_a5d27_som1_winc1500/production/_ext/492885778/m2m_ssl.o
 .comment       0x00000053       0x54 build/sam_a5d27_som1_winc1500/production/_ext/492885778/nmasic.o
 .comment       0x00000053       0x54 build/sam_a5d27_som1_winc1500/production/_ext/492885778/nmspi.o
 .comment       0x00000053       0x54 build/sam_a5d27_som1_winc1500/production/_ext/492885778/m2m_ota.o
 .comment       0x00000053       0x54 build/sam_a5d27_som1_winc1500/production/_ext/919363165/inet_addr.o
 .comment       0x00000053       0x54 build/sam_a5d27_som1_winc1500/production/_ext/919363165/inet_ntop.o
 .comment       0x00000053       0x54 build/sam_a5d27_som1_winc1500/production/_ext/919363165/socket.o
 .comment       0x00000053       0x54 build/sam_a5d27_som1_winc1500/production/_ext/2123267981/flexible_flash.o
 .comment       0x00000053       0x54 build/sam_a5d27_som1_winc1500/production/_ext/2123267981/spi_flash.o
 .comment       0x00000053       0x54 build/sam_a5d27_som1_winc1500/production/_ext/141899762/wdrv_winc_osal.o
 .comment       0x00000053       0x54 build/sam_a5d27_som1_winc1500/production/_ext/1528743604/wdrv_winc_sta.o
 .comment       0x00000053       0x54 build/sam_a5d27_som1_winc1500/production/_ext/1528743604/wdrv_winc_authctx.o
 .comment       0x00000053       0x54 build/sam_a5d27_som1_winc1500/production/_ext/1528743604/wdrv_winc_host_file.o
 .comment       0x00000053       0x54 build/sam_a5d27_som1_winc1500/production/_ext/1528743604/wdrv_winc_softap.o
 .comment       0x00000053       0x54 build/sam_a5d27_som1_winc1500/production/_ext/1528743604/wdrv_winc_systime.o
 .comment       0x00000053       0x54 build/sam_a5d27_som1_winc1500/production/_ext/1528743604/wdrv_winc_socket.o
 .comment       0x00000053       0x54 build/sam_a5d27_som1_winc1500/production/_ext/1528743604/wdrv_winc_bssctx.o
 .comment       0x00000053       0x54 build/sam_a5d27_som1_winc1500/production/_ext/1528743604/wdrv_winc.o
 .comment       0x00000053       0x54 build/sam_a5d27_som1_winc1500/production/_ext/192068182/plib_aic.o
 .comment       0x00000053       0x54 build/sam_a5d27_som1_winc1500/production/_ext/192066159/plib_clk.o
 .comment       0x00000053       0x54 build/sam_a5d27_som1_winc1500/production/_ext/1834821283/plib_flexcom4_spi_master.o
 .comment       0x00000053       0x54 build/sam_a5d27_som1_winc1500/production/_ext/669990670/plib_matrix.o
 .comment       0x00000053       0x54 build/sam_a5d27_som1_winc1500/production/_ext/192056508/plib_mmu.o
 .comment       0x00000053       0x54 build/sam_a5d27_som1_winc1500/production/_ext/192053755/plib_pio.o
 .comment       0x00000053       0x54 build/sam_a5d27_som1_winc1500/production/_ext/6195168/plib_tc0.o
 .comment       0x00000053       0x54 build/sam_a5d27_som1_winc1500/production/_ext/1658557633/plib_uart1.o
 .comment       0x00000053       0x54 build/sam_a5d27_som1_winc1500/production/_ext/127175570/plib_xdmac0.o
 .comment       0x00000053       0x54 build/sam_a5d27_som1_winc1500/production/_ext/1238961202/sys_console.o
 .comment       0x00000053       0x54 build/sam_a5d27_som1_winc1500/production/_ext/1238961202/sys_console_uart.o
 .comment       0x00000053       0x54 build/sam_a5d27_som1_winc1500/production/_ext/931592374/sys_debug.o
 .comment       0x00000053       0x54 build/sam_a5d27_som1_winc1500/production/_ext/737894/sys_dma.o
 .comment       0x00000053       0x54 build/sam_a5d27_som1_winc1500/production/_ext/1629436774/sys_int.o
 .comment       0x00000053       0x54 build/sam_a5d27_som1_winc1500/production/_ext/668867648/sys_time.o
 .comment       0x00000053       0x54 build/sam_a5d27_som1_winc1500/production/_ext/1420715725/interrupts.o
 .comment       0x00000053       0x54 build/sam_a5d27_som1_winc1500/production/_ext/1420715725/fault_handlers.o
 .comment       0x00000053       0x54 build/sam_a5d27_som1_winc1500/production/_ext/1420715725/tasks.o
 .comment       0x00000053       0x54 build/sam_a5d27_som1_winc1500/production/_ext/1420715725/initialization.o
 .comment       0x00000053       0x54 build/sam_a5d27_som1_winc1500/production/_ext/1360937237/main.o
 .comment       0x00000053       0x54 build/sam_a5d27_som1_winc1500/production/_ext/1360937237/app.o
 .comment       0x00000053       0x54 build/sam_a5d27_som1_winc1500/production/_ext/1360937237/example.o
 .comment       0x00000053       0x54 c:/program files/microchip/xc32/v4.00/bin/bin/../../lib/gcc/pic32c/8.3.1/thumb/v7-a+simd/hard\libgcc.a(_udivmoddi4.o)
 .comment       0x00000053       0x54 c:/program files/microchip/xc32/v4.00/bin/bin/../../lib/gcc/pic32c/8.3.1/../../../../pic32c/lib/thumb/v7-a+simd/hard\libc-musl.a(__libc_start_main.o)
 .comment       0x00000053       0x54 c:/program files/microchip/xc32/v4.00/bin/bin/../../lib/gcc/pic32c/8.3.1/../../../../pic32c/lib/thumb/v7-a+simd/hard\libc-musl.a(libc.o)
 .comment       0x00000053       0x54 c:/program files/microchip/xc32/v4.00/bin/bin/../../lib/gcc/pic32c/8.3.1/../../../../pic32c/lib/thumb/v7-a+simd/hard\libc-musl.a(malloc.o)
 .comment       0x00000053       0x54 c:/program files/microchip/xc32/v4.00/bin/bin/../../lib/gcc/pic32c/8.3.1/../../../../pic32c/lib/thumb/v7-a+simd/hard\libc-musl.a(expand_heap.o)
 .comment       0x00000053       0x54 c:/program files/microchip/xc32/v4.00/bin/bin/../../lib/gcc/pic32c/8.3.1/../../../../pic32c/lib/thumb/v7-a+simd/hard\libc-musl.a(vsnprintf.o)
 .comment       0x00000053       0x54 c:/program files/microchip/xc32/v4.00/bin/bin/../../lib/gcc/pic32c/8.3.1/../../../../pic32c/lib/thumb/v7-a+simd/hard\libc-musl.a(atoi.o)
 .comment       0x00000053       0x54 c:/program files/microchip/xc32/v4.00/bin/bin/../../lib/gcc/pic32c/8.3.1/../../../../pic32c/lib/thumb/v7-a+simd/hard\libc-musl.a(memcpy.o)
 .comment       0x00000053       0x54 c:/program files/microchip/xc32/v4.00/bin/bin/../../lib/gcc/pic32c/8.3.1/../../../../pic32c/lib/thumb/v7-a+simd/hard\libc-musl.a(memset.o)
 .comment       0x00000053       0x54 c:/program files/microchip/xc32/v4.00/bin/bin/../../lib/gcc/pic32c/8.3.1/../../../../pic32c/lib/thumb/v7-a+simd/hard\libc-musl.a(strlen.o)
 .comment       0x00000053       0x54 c:/program files/microchip/xc32/v4.00/bin/bin/../../lib/gcc/pic32c/8.3.1/../../../../pic32c/lib/thumb/v7-a+simd/hard\libc-musl.a(strchr.o)
 .comment       0x00000053       0x54 c:/program files/microchip/xc32/v4.00/bin/bin/../../lib/gcc/pic32c/8.3.1/../../../../pic32c/lib/thumb/v7-a+simd/hard\libc-musl.a(strchrnul.o)
 .comment       0x00000053       0x54 c:/program files/microchip/xc32/v4.00/bin/bin/../../lib/gcc/pic32c/8.3.1/../../../../pic32c/lib/thumb/v7-a+simd/hard\libc-musl.a(strcpy.o)
 .comment       0x00000053       0x54 c:/program files/microchip/xc32/v4.00/bin/bin/../../lib/gcc/pic32c/8.3.1/../../../../pic32c/lib/thumb/v7-a+simd/hard\libc-musl.a(strncmp.o)
 .comment       0x00000053       0x54 c:/program files/microchip/xc32/v4.00/bin/bin/../../lib/gcc/pic32c/8.3.1/../../../../pic32c/lib/thumb/v7-a+simd/hard\libc-musl.a(strtok.o)
 .comment       0x00000053       0x54 c:/program files/microchip/xc32/v4.00/bin/bin/../../lib/gcc/pic32c/8.3.1/../../../../pic32c/lib/thumb/v7-a+simd/hard\libc-musl.a(__tz.o)
 .comment       0x00000053       0x54 c:/program files/microchip/xc32/v4.00/bin/bin/../../lib/gcc/pic32c/8.3.1/../../../../pic32c/lib/thumb/v7-a+simd/hard\libc-musl.a(mktime.o)
 .comment       0x00000053       0x54 c:/program files/microchip/xc32/v4.00/bin/bin/../../lib/gcc/pic32c/8.3.1/../../../../pic32c/lib/thumb/v7-a+simd/hard\libc-musl.a(__environ.o)
 .comment       0x00000053       0x54 c:/program files/microchip/xc32/v4.00/bin/bin/../../lib/gcc/pic32c/8.3.1/../../../../pic32c/lib/thumb/v7-a+simd/hard\libc-musl.a(__errno_location.o)
 .comment       0x00000053       0x54 c:/program files/microchip/xc32/v4.00/bin/bin/../../lib/gcc/pic32c/8.3.1/../../../../pic32c/lib/thumb/v7-a+simd/hard\libc-musl.a(vfprintf.o)
 .comment       0x00000053       0x54 c:/program files/microchip/xc32/v4.00/bin/bin/../../lib/gcc/pic32c/8.3.1/../../../../pic32c/lib/thumb/v7-a+simd/hard\libc-musl.a(stpcpy.o)
 .comment       0x00000053       0x54 c:/program files/microchip/xc32/v4.00/bin/bin/../../lib/gcc/pic32c/8.3.1/../../../../pic32c/lib/thumb/v7-a+simd/hard\libc-musl.a(strcspn.o)
 .comment       0x00000053       0x54 c:/program files/microchip/xc32/v4.00/bin/bin/../../lib/gcc/pic32c/8.3.1/../../../../pic32c/lib/thumb/v7-a+simd/hard\libc-musl.a(strspn.o)
 .comment       0x00000053       0x54 c:/program files/microchip/xc32/v4.00/bin/bin/../../lib/gcc/pic32c/8.3.1/../../../../pic32c/lib/thumb/v7-a+simd/hard\libc-musl.a(__month_to_secs.o)
 .comment       0x00000053       0x54 c:/program files/microchip/xc32/v4.00/bin/bin/../../lib/gcc/pic32c/8.3.1/../../../../pic32c/lib/thumb/v7-a+simd/hard\libc-musl.a(__secs_to_tm.o)
 .comment       0x00000053       0x54 c:/program files/microchip/xc32/v4.00/bin/bin/../../lib/gcc/pic32c/8.3.1/../../../../pic32c/lib/thumb/v7-a+simd/hard\libc-musl.a(__tm_to_secs.o)
 .comment       0x00000053       0x54 c:/program files/microchip/xc32/v4.00/bin/bin/../../lib/gcc/pic32c/8.3.1/../../../../pic32c/lib/thumb/v7-a+simd/hard\libc-musl.a(__year_to_secs.o)
 .comment       0x00000053       0x54 c:/program files/microchip/xc32/v4.00/bin/bin/../../lib/gcc/pic32c/8.3.1/../../../../pic32c/lib/thumb/v7-a+simd/hard\libc-musl.a(__printf_core.o)
 .comment       0x00000053       0x54 c:/program files/microchip/xc32/v4.00/bin/bin/../../lib/gcc/pic32c/8.3.1/../../../../pic32c/lib/thumb/v7-a+simd/hard\libc-musl.a(tolower.o)
 .comment       0x00000053       0x54 c:/program files/microchip/xc32/v4.00/bin/bin/../../lib/gcc/pic32c/8.3.1/../../../../pic32c/lib/thumb/v7-a+simd/hard\libc-musl.a(__fmt_a.o)
 .comment       0x00000053       0x54 c:/program files/microchip/xc32/v4.00/bin/bin/../../lib/gcc/pic32c/8.3.1/../../../../pic32c/lib/thumb/v7-a+simd/hard\libc-musl.a(__fmt_d.o)
 .comment       0x00000053       0x54 c:/program files/microchip/xc32/v4.00/bin/bin/../../lib/gcc/pic32c/8.3.1/../../../../pic32c/lib/thumb/v7-a+simd/hard\libc-musl.a(__fmt_fp.o)
 .comment       0x00000053       0x54 c:/program files/microchip/xc32/v4.00/bin/bin/../../lib/gcc/pic32c/8.3.1/../../../../pic32c/lib/thumb/v7-a+simd/hard\libc-musl.a(__fmt_o.o)
 .comment       0x00000053       0x54 c:/program files/microchip/xc32/v4.00/bin/bin/../../lib/gcc/pic32c/8.3.1/../../../../pic32c/lib/thumb/v7-a+simd/hard\libc-musl.a(__fmt_s.o)
 .comment       0x00000053       0x54 c:/program files/microchip/xc32/v4.00/bin/bin/../../lib/gcc/pic32c/8.3.1/../../../../pic32c/lib/thumb/v7-a+simd/hard\libc-musl.a(__fmt_u.o)
 .comment       0x00000053       0x54 c:/program files/microchip/xc32/v4.00/bin/bin/../../lib/gcc/pic32c/8.3.1/../../../../pic32c/lib/thumb/v7-a+simd/hard\libc-musl.a(__fmt_x.o)
 .comment       0x00000053       0x54 c:/program files/microchip/xc32/v4.00/bin/bin/../../lib/gcc/pic32c/8.3.1/../../../../pic32c/lib/thumb/v7-a+simd/hard\libc-musl.a(__pop_float.o)
 .comment       0x00000053       0x54 c:/program files/microchip/xc32/v4.00/bin/bin/../../lib/gcc/pic32c/8.3.1/../../../../pic32c/lib/thumb/v7-a+simd/hard\libc-musl.a(__pop_int.o)
 .comment       0x00000053       0x54 c:/program files/microchip/xc32/v4.00/bin/bin/../../lib/gcc/pic32c/8.3.1/../../../../pic32c/lib/thumb/v7-a+simd/hard\libc-musl.a(__pop_ptr.o)
 .comment       0x00000053       0x54 c:/program files/microchip/xc32/v4.00/bin/bin/../../lib/gcc/pic32c/8.3.1/../../../../pic32c/lib/thumb/v7-a+simd/hard\libc-musl.a(toupper.o)
 .comment       0x00000053       0x54 c:/program files/microchip/xc32/v4.00/bin/bin/../../lib/gcc/pic32c/8.3.1/../../../../pic32c/lib/thumb/v7-a+simd/hard\libm-musl.a(floor.o)
 .comment       0x00000053       0x54 c:/program files/microchip/xc32/v4.00/bin/bin/../../lib/gcc/pic32c/8.3.1/../../../../pic32c/lib/thumb/v7-a+simd/hard\libm-musl.a(fma.o)
 .comment       0x00000053       0x54 c:/program files/microchip/xc32/v4.00/bin/bin/../../lib/gcc/pic32c/8.3.1/../../../../pic32c/lib/thumb/v7-a+simd/hard\libm-musl.a(scalbn.o)
 .comment       0x00000053       0x54 c:/program files/microchip/xc32/v4.00/bin/bin/../../lib/gcc/pic32c/8.3.1/../../../../pic32c/lib/thumb/v7-a+simd/hard\libpic32c.a(sbrk.o)

.debug_info     0x00000000    0x6a4e6
 .debug_info    0x00000000     0x4fb2 build/sam_a5d27_som1_winc1500/production/_ext/1971804060/drv_spi.o
 .debug_info    0x00004fb2      0x75f build/sam_a5d27_som1_winc1500/production/_ext/1615170836/wdrv_winc_eint.o
 .debug_info    0x00005711      0xae4 build/sam_a5d27_som1_winc1500/production/_ext/1615170836/wdrv_winc_gpio.o
 .debug_info    0x000061f5     0x1ad8 build/sam_a5d27_som1_winc1500/production/_ext/467732753/wdrv_winc_spi.o
 .debug_info    0x00007ccd      0x6af build/sam_a5d27_som1_winc1500/production/_ext/461596885/nm_common.o
 .debug_info    0x0000837c     0x22c3 build/sam_a5d27_som1_winc1500/production/_ext/492885778/m2m_hif.o
 .debug_info    0x0000a63f     0x1221 build/sam_a5d27_som1_winc1500/production/_ext/492885778/nmbus.o
 .debug_info    0x0000b860     0x1005 build/sam_a5d27_som1_winc1500/production/_ext/492885778/nmdrv.o
 .debug_info    0x0000c865     0x825c build/sam_a5d27_som1_winc1500/production/_ext/492885778/m2m_wifi.o
 .debug_info    0x00014ac1     0x1e32 build/sam_a5d27_som1_winc1500/production/_ext/492885778/m2m_ssl.o
 .debug_info    0x000168f3     0x191a build/sam_a5d27_som1_winc1500/production/_ext/492885778/nmasic.o
 .debug_info    0x0001820d     0x27e8 build/sam_a5d27_som1_winc1500/production/_ext/492885778/nmspi.o
 .debug_info    0x0001a9f5     0x298d build/sam_a5d27_som1_winc1500/production/_ext/492885778/m2m_ota.o
 .debug_info    0x0001d382      0x5f4 build/sam_a5d27_som1_winc1500/production/_ext/919363165/inet_addr.o
 .debug_info    0x0001d976      0x685 build/sam_a5d27_som1_winc1500/production/_ext/919363165/inet_ntop.o
 .debug_info    0x0001dffb     0x3965 build/sam_a5d27_som1_winc1500/production/_ext/919363165/socket.o
 .debug_info    0x00021960      0x6e5 build/sam_a5d27_som1_winc1500/production/_ext/2123267981/flexible_flash.o
 .debug_info    0x00022045     0x17b3 build/sam_a5d27_som1_winc1500/production/_ext/2123267981/spi_flash.o
 .debug_info    0x000237f8      0x5fb build/sam_a5d27_som1_winc1500/production/_ext/141899762/wdrv_winc_osal.o
 .debug_info    0x00023df3     0x2f9a build/sam_a5d27_som1_winc1500/production/_ext/1528743604/wdrv_winc_sta.o
 .debug_info    0x00026d8d     0x1c5b build/sam_a5d27_som1_winc1500/production/_ext/1528743604/wdrv_winc_authctx.o
 .debug_info    0x000289e8     0x3d68 build/sam_a5d27_som1_winc1500/production/_ext/1528743604/wdrv_winc_host_file.o
 .debug_info    0x0002c750     0x2b1c build/sam_a5d27_som1_winc1500/production/_ext/1528743604/wdrv_winc_softap.o
 .debug_info    0x0002f26c     0x2b22 build/sam_a5d27_som1_winc1500/production/_ext/1528743604/wdrv_winc_systime.o
 .debug_info    0x00031d8e     0x32f9 build/sam_a5d27_som1_winc1500/production/_ext/1528743604/wdrv_winc_socket.o
 .debug_info    0x00035087      0xda2 build/sam_a5d27_som1_winc1500/production/_ext/1528743604/wdrv_winc_bssctx.o
 .debug_info    0x00035e29     0x752e build/sam_a5d27_som1_winc1500/production/_ext/1528743604/wdrv_winc.o
 .debug_info    0x0003d357      0xdc7 build/sam_a5d27_som1_winc1500/production/_ext/192068182/plib_aic.o
 .debug_info    0x0003e11e      0x914 build/sam_a5d27_som1_winc1500/production/_ext/192066159/plib_clk.o
 .debug_info    0x0003ea32     0x1620 build/sam_a5d27_som1_winc1500/production/_ext/1834821283/plib_flexcom4_spi_master.o
 .debug_info    0x00040052      0x973 build/sam_a5d27_som1_winc1500/production/_ext/669990670/plib_matrix.o
 .debug_info    0x000409c5      0x87d build/sam_a5d27_som1_winc1500/production/_ext/192056508/plib_mmu.o
 .debug_info    0x00041242      0xdf9 build/sam_a5d27_som1_winc1500/production/_ext/192053755/plib_pio.o
 .debug_info    0x0004203b      0x901 build/sam_a5d27_som1_winc1500/production/_ext/6195168/plib_tc0.o
 .debug_info    0x0004293c     0x141d build/sam_a5d27_som1_winc1500/production/_ext/1658557633/plib_uart1.o
 .debug_info    0x00043d59      0xda7 build/sam_a5d27_som1_winc1500/production/_ext/127175570/plib_xdmac0.o
 .debug_info    0x00044b00     0x1521 build/sam_a5d27_som1_winc1500/production/_ext/1238961202/sys_console.o
 .debug_info    0x00046021     0x1cf8 build/sam_a5d27_som1_winc1500/production/_ext/1238961202/sys_console_uart.o
 .debug_info    0x00047d19      0x836 build/sam_a5d27_som1_winc1500/production/_ext/931592374/sys_debug.o
 .debug_info    0x0004854f      0x8a0 build/sam_a5d27_som1_winc1500/production/_ext/737894/sys_dma.o
 .debug_info    0x00048def     0x11d1 build/sam_a5d27_som1_winc1500/production/_ext/1629436774/sys_int.o
 .debug_info    0x00049fc0     0x2b53 build/sam_a5d27_som1_winc1500/production/_ext/668867648/sys_time.o
 .debug_info    0x0004cb13      0xea4 build/sam_a5d27_som1_winc1500/production/_ext/1420715725/interrupts.o
 .debug_info    0x0004d9b7      0x335 build/sam_a5d27_som1_winc1500/production/_ext/1420715725/fault_handlers.o
 .debug_info    0x0004dcec       0x22 build/sam_a5d27_som1_winc1500/production/_ext/1420715725/cstartup.o
 .debug_info    0x0004dd0e      0x4dd build/sam_a5d27_som1_winc1500/production/_ext/1420715725/tasks.o
 .debug_info    0x0004e1eb     0x40ed build/sam_a5d27_som1_winc1500/production/_ext/1420715725/initialization.o
 .debug_info    0x000522d8      0x4c5 build/sam_a5d27_som1_winc1500/production/_ext/1360937237/main.o
 .debug_info    0x0005279d     0x113a build/sam_a5d27_som1_winc1500/production/_ext/1360937237/app.o
 .debug_info    0x000538d7     0x2db8 build/sam_a5d27_som1_winc1500/production/_ext/1360937237/example.o
 .debug_info    0x0005668f       0x26 c:/program files/microchip/xc32/v4.00/bin/bin/../../lib/gcc/pic32c/8.3.1/thumb/v7-a+simd/hard\libgcc.a(_udivsi3.o)
 .debug_info    0x000566b5       0x26 c:/program files/microchip/xc32/v4.00/bin/bin/../../lib/gcc/pic32c/8.3.1/thumb/v7-a+simd/hard\libgcc.a(_divsi3.o)
 .debug_info    0x000566db       0x26 c:/program files/microchip/xc32/v4.00/bin/bin/../../lib/gcc/pic32c/8.3.1/thumb/v7-a+simd/hard\libgcc.a(_dvmd_tls.o)
 .debug_info    0x00056701       0x26 c:/program files/microchip/xc32/v4.00/bin/bin/../../lib/gcc/pic32c/8.3.1/thumb/v7-a+simd/hard\libgcc.a(_aeabi_uldivmod.o)
 .debug_info    0x00056727     0x1c32 c:/program files/microchip/xc32/v4.00/bin/bin/../../lib/gcc/pic32c/8.3.1/thumb/v7-a+simd/hard\libgcc.a(_udivmoddi4.o)
 .debug_info    0x00058359      0x6b6 c:/program files/microchip/xc32/v4.00/bin/bin/../../lib/gcc/pic32c/8.3.1/../../../../pic32c/lib/thumb/v7-a+simd/hard\libc-musl.a(__libc_start_main.o)
 .debug_info    0x00058a0f      0x5e2 c:/program files/microchip/xc32/v4.00/bin/bin/../../lib/gcc/pic32c/8.3.1/../../../../pic32c/lib/thumb/v7-a+simd/hard\libc-musl.a(libc.o)
 .debug_info    0x00058ff1     0x146d c:/program files/microchip/xc32/v4.00/bin/bin/../../lib/gcc/pic32c/8.3.1/../../../../pic32c/lib/thumb/v7-a+simd/hard\libc-musl.a(malloc.o)
 .debug_info    0x0005a45e      0x685 c:/program files/microchip/xc32/v4.00/bin/bin/../../lib/gcc/pic32c/8.3.1/../../../../pic32c/lib/thumb/v7-a+simd/hard\libc-musl.a(expand_heap.o)
 .debug_info    0x0005aae3      0x989 c:/program files/microchip/xc32/v4.00/bin/bin/../../lib/gcc/pic32c/8.3.1/../../../../pic32c/lib/thumb/v7-a+simd/hard\libc-musl.a(vsnprintf.o)
 .debug_info    0x0005b46c      0x325 c:/program files/microchip/xc32/v4.00/bin/bin/../../lib/gcc/pic32c/8.3.1/../../../../pic32c/lib/thumb/v7-a+simd/hard\libc-musl.a(atoi.o)
 .debug_info    0x0005b791      0x321 c:/program files/microchip/xc32/v4.00/bin/bin/../../lib/gcc/pic32c/8.3.1/../../../../pic32c/lib/thumb/v7-a+simd/hard\libc-musl.a(memcpy.o)
 .debug_info    0x0005bab2      0x2df c:/program files/microchip/xc32/v4.00/bin/bin/../../lib/gcc/pic32c/8.3.1/../../../../pic32c/lib/thumb/v7-a+simd/hard\libc-musl.a(memset.o)
 .debug_info    0x0005bd91      0x2d0 c:/program files/microchip/xc32/v4.00/bin/bin/../../lib/gcc/pic32c/8.3.1/../../../../pic32c/lib/thumb/v7-a+simd/hard\libc-musl.a(strlen.o)
 .debug_info    0x0005c061      0x2f2 c:/program files/microchip/xc32/v4.00/bin/bin/../../lib/gcc/pic32c/8.3.1/../../../../pic32c/lib/thumb/v7-a+simd/hard\libc-musl.a(strchr.o)
 .debug_info    0x0005c353      0x6da c:/program files/microchip/xc32/v4.00/bin/bin/../../lib/gcc/pic32c/8.3.1/../../../../pic32c/lib/thumb/v7-a+simd/hard\libc-musl.a(strchrnul.o)
 .debug_info    0x0005ca2d      0x2de c:/program files/microchip/xc32/v4.00/bin/bin/../../lib/gcc/pic32c/8.3.1/../../../../pic32c/lib/thumb/v7-a+simd/hard\libc-musl.a(strcpy.o)
 .debug_info    0x0005cd0b      0x31a c:/program files/microchip/xc32/v4.00/bin/bin/../../lib/gcc/pic32c/8.3.1/../../../../pic32c/lib/thumb/v7-a+simd/hard\libc-musl.a(strncmp.o)
 .debug_info    0x0005d025      0x320 c:/program files/microchip/xc32/v4.00/bin/bin/../../lib/gcc/pic32c/8.3.1/../../../../pic32c/lib/thumb/v7-a+simd/hard\libc-musl.a(strtok.o)
 .debug_info    0x0005d345      0xf32 c:/program files/microchip/xc32/v4.00/bin/bin/../../lib/gcc/pic32c/8.3.1/../../../../pic32c/lib/thumb/v7-a+simd/hard\libc-musl.a(__tz.o)
 .debug_info    0x0005e277      0x56d c:/program files/microchip/xc32/v4.00/bin/bin/../../lib/gcc/pic32c/8.3.1/../../../../pic32c/lib/thumb/v7-a+simd/hard\libc-musl.a(mktime.o)
 .debug_info    0x0005e7e4      0x599 c:/program files/microchip/xc32/v4.00/bin/bin/../../lib/gcc/pic32c/8.3.1/../../../../pic32c/lib/thumb/v7-a+simd/hard\libc-musl.a(__environ.o)
 .debug_info    0x0005ed7d      0x57d c:/program files/microchip/xc32/v4.00/bin/bin/../../lib/gcc/pic32c/8.3.1/../../../../pic32c/lib/thumb/v7-a+simd/hard\libc-musl.a(__errno_location.o)
 .debug_info    0x0005f2fa      0x950 c:/program files/microchip/xc32/v4.00/bin/bin/../../lib/gcc/pic32c/8.3.1/../../../../pic32c/lib/thumb/v7-a+simd/hard\libc-musl.a(vfprintf.o)
 .debug_info    0x0005fc4a      0x5bc c:/program files/microchip/xc32/v4.00/bin/bin/../../lib/gcc/pic32c/8.3.1/../../../../pic32c/lib/thumb/v7-a+simd/hard\libc-musl.a(stpcpy.o)
 .debug_info    0x00060206      0x345 c:/program files/microchip/xc32/v4.00/bin/bin/../../lib/gcc/pic32c/8.3.1/../../../../pic32c/lib/thumb/v7-a+simd/hard\libc-musl.a(strcspn.o)
 .debug_info    0x0006054b      0x2ee c:/program files/microchip/xc32/v4.00/bin/bin/../../lib/gcc/pic32c/8.3.1/../../../../pic32c/lib/thumb/v7-a+simd/hard\libc-musl.a(strspn.o)
 .debug_info    0x00060839      0x30e c:/program files/microchip/xc32/v4.00/bin/bin/../../lib/gcc/pic32c/8.3.1/../../../../pic32c/lib/thumb/v7-a+simd/hard\libc-musl.a(__month_to_secs.o)
 .debug_info    0x00060b47      0x5b3 c:/program files/microchip/xc32/v4.00/bin/bin/../../lib/gcc/pic32c/8.3.1/../../../../pic32c/lib/thumb/v7-a+simd/hard\libc-musl.a(__secs_to_tm.o)
 .debug_info    0x000610fa      0x4e2 c:/program files/microchip/xc32/v4.00/bin/bin/../../lib/gcc/pic32c/8.3.1/../../../../pic32c/lib/thumb/v7-a+simd/hard\libc-musl.a(__tm_to_secs.o)
 .debug_info    0x000615dc      0x363 c:/program files/microchip/xc32/v4.00/bin/bin/../../lib/gcc/pic32c/8.3.1/../../../../pic32c/lib/thumb/v7-a+simd/hard\libc-musl.a(__year_to_secs.o)
 .debug_info    0x0006193f     0x101a c:/program files/microchip/xc32/v4.00/bin/bin/../../lib/gcc/pic32c/8.3.1/../../../../pic32c/lib/thumb/v7-a+simd/hard\libc-musl.a(__printf_core.o)
 .debug_info    0x00062959      0x600 c:/program files/microchip/xc32/v4.00/bin/bin/../../lib/gcc/pic32c/8.3.1/../../../../pic32c/lib/thumb/v7-a+simd/hard\libc-musl.a(tolower.o)
 .debug_info    0x00062f59      0xc9a c:/program files/microchip/xc32/v4.00/bin/bin/../../lib/gcc/pic32c/8.3.1/../../../../pic32c/lib/thumb/v7-a+simd/hard\libc-musl.a(__fmt_a.o)
 .debug_info    0x00063bf3      0x8bf c:/program files/microchip/xc32/v4.00/bin/bin/../../lib/gcc/pic32c/8.3.1/../../../../pic32c/lib/thumb/v7-a+simd/hard\libc-musl.a(__fmt_d.o)
 .debug_info    0x000644b2      0xced c:/program files/microchip/xc32/v4.00/bin/bin/../../lib/gcc/pic32c/8.3.1/../../../../pic32c/lib/thumb/v7-a+simd/hard\libc-musl.a(__fmt_fp.o)
 .debug_info    0x0006519f      0x890 c:/program files/microchip/xc32/v4.00/bin/bin/../../lib/gcc/pic32c/8.3.1/../../../../pic32c/lib/thumb/v7-a+simd/hard\libc-musl.a(__fmt_o.o)
 .debug_info    0x00065a2f      0x836 c:/program files/microchip/xc32/v4.00/bin/bin/../../lib/gcc/pic32c/8.3.1/../../../../pic32c/lib/thumb/v7-a+simd/hard\libc-musl.a(__fmt_s.o)
 .debug_info    0x00066265      0x95d c:/program files/microchip/xc32/v4.00/bin/bin/../../lib/gcc/pic32c/8.3.1/../../../../pic32c/lib/thumb/v7-a+simd/hard\libc-musl.a(__fmt_u.o)
 .debug_info    0x00066bc2      0x8c0 c:/program files/microchip/xc32/v4.00/bin/bin/../../lib/gcc/pic32c/8.3.1/../../../../pic32c/lib/thumb/v7-a+simd/hard\libc-musl.a(__fmt_x.o)
 .debug_info    0x00067482      0x763 c:/program files/microchip/xc32/v4.00/bin/bin/../../lib/gcc/pic32c/8.3.1/../../../../pic32c/lib/thumb/v7-a+simd/hard\libc-musl.a(__pop_float.o)
 .debug_info    0x00067be5      0x787 c:/program files/microchip/xc32/v4.00/bin/bin/../../lib/gcc/pic32c/8.3.1/../../../../pic32c/lib/thumb/v7-a+simd/hard\libc-musl.a(__pop_int.o)
 .debug_info    0x0006836c      0x77e c:/program files/microchip/xc32/v4.00/bin/bin/../../lib/gcc/pic32c/8.3.1/../../../../pic32c/lib/thumb/v7-a+simd/hard\libc-musl.a(__pop_ptr.o)
 .debug_info    0x00068aea      0x600 c:/program files/microchip/xc32/v4.00/bin/bin/../../lib/gcc/pic32c/8.3.1/../../../../pic32c/lib/thumb/v7-a+simd/hard\libc-musl.a(toupper.o)
 .debug_info    0x000690ea      0x42f c:/program files/microchip/xc32/v4.00/bin/bin/../../lib/gcc/pic32c/8.3.1/../../../../pic32c/lib/thumb/v7-a+simd/hard\libm-musl.a(floor.o)
 .debug_info    0x00069519      0x90b c:/program files/microchip/xc32/v4.00/bin/bin/../../lib/gcc/pic32c/8.3.1/../../../../pic32c/lib/thumb/v7-a+simd/hard\libm-musl.a(fma.o)
 .debug_info    0x00069e24      0x3b5 c:/program files/microchip/xc32/v4.00/bin/bin/../../lib/gcc/pic32c/8.3.1/../../../../pic32c/lib/thumb/v7-a+simd/hard\libm-musl.a(scalbn.o)
 .debug_info    0x0006a1d9      0x2c1 c:/program files/microchip/xc32/v4.00/bin/bin/../../lib/gcc/pic32c/8.3.1/../../../../pic32c/lib/thumb/v7-a+simd/hard\libpic32c.a(sbrk.o)
 .debug_info    0x0006a49a       0x26 c:/program files/microchip/xc32/v4.00/bin/bin/../../lib/gcc/pic32c/8.3.1/thumb/v7-a+simd/hard\libgcc.a(_arm_addsubdf3.o)
 .debug_info    0x0006a4c0       0x26 c:/program files/microchip/xc32/v4.00/bin/bin/../../lib/gcc/pic32c/8.3.1/thumb/v7-a+simd/hard\libgcc.a(_aeabi_ldivmod.o)

.debug_abbrev   0x00000000     0xb664
 .debug_abbrev  0x00000000      0x577 build/sam_a5d27_som1_winc1500/production/_ext/1971804060/drv_spi.o
 .debug_abbrev  0x00000577      0x182 build/sam_a5d27_som1_winc1500/production/_ext/1615170836/wdrv_winc_eint.o
 .debug_abbrev  0x000006f9      0x111 build/sam_a5d27_som1_winc1500/production/_ext/1615170836/wdrv_winc_gpio.o
 .debug_abbrev  0x0000080a      0x372 build/sam_a5d27_som1_winc1500/production/_ext/467732753/wdrv_winc_spi.o
 .debug_abbrev  0x00000b7c      0x167 build/sam_a5d27_som1_winc1500/production/_ext/461596885/nm_common.o
 .debug_abbrev  0x00000ce3      0x4ee build/sam_a5d27_som1_winc1500/production/_ext/492885778/m2m_hif.o
 .debug_abbrev  0x000011d1      0x2c1 build/sam_a5d27_som1_winc1500/production/_ext/492885778/nmbus.o
 .debug_abbrev  0x00001492      0x206 build/sam_a5d27_som1_winc1500/production/_ext/492885778/nmdrv.o
 .debug_abbrev  0x00001698      0x4a5 build/sam_a5d27_som1_winc1500/production/_ext/492885778/m2m_wifi.o
 .debug_abbrev  0x00001b3d      0x37e build/sam_a5d27_som1_winc1500/production/_ext/492885778/m2m_ssl.o
 .debug_abbrev  0x00001ebb      0x2cb build/sam_a5d27_som1_winc1500/production/_ext/492885778/nmasic.o
 .debug_abbrev  0x00002186      0x41f build/sam_a5d27_som1_winc1500/production/_ext/492885778/nmspi.o
 .debug_abbrev  0x000025a5      0x34a build/sam_a5d27_som1_winc1500/production/_ext/492885778/m2m_ota.o
 .debug_abbrev  0x000028ef       0xed build/sam_a5d27_som1_winc1500/production/_ext/919363165/inet_addr.o
 .debug_abbrev  0x000029dc      0x103 build/sam_a5d27_som1_winc1500/production/_ext/919363165/inet_ntop.o
 .debug_abbrev  0x00002adf      0x512 build/sam_a5d27_som1_winc1500/production/_ext/919363165/socket.o
 .debug_abbrev  0x00002ff1      0x155 build/sam_a5d27_som1_winc1500/production/_ext/2123267981/flexible_flash.o
 .debug_abbrev  0x00003146      0x353 build/sam_a5d27_som1_winc1500/production/_ext/2123267981/spi_flash.o
 .debug_abbrev  0x00003499      0x120 build/sam_a5d27_som1_winc1500/production/_ext/141899762/wdrv_winc_osal.o
 .debug_abbrev  0x000035b9      0x34b build/sam_a5d27_som1_winc1500/production/_ext/1528743604/wdrv_winc_sta.o
 .debug_abbrev  0x00003904      0x331 build/sam_a5d27_som1_winc1500/production/_ext/1528743604/wdrv_winc_authctx.o
 .debug_abbrev  0x00003c35      0x43a build/sam_a5d27_som1_winc1500/production/_ext/1528743604/wdrv_winc_host_file.o
 .debug_abbrev  0x0000406f      0x2e7 build/sam_a5d27_som1_winc1500/production/_ext/1528743604/wdrv_winc_softap.o
 .debug_abbrev  0x00004356      0x2a4 build/sam_a5d27_som1_winc1500/production/_ext/1528743604/wdrv_winc_systime.o
 .debug_abbrev  0x000045fa      0x3a5 build/sam_a5d27_som1_winc1500/production/_ext/1528743604/wdrv_winc_socket.o
 .debug_abbrev  0x0000499f      0x1fc build/sam_a5d27_som1_winc1500/production/_ext/1528743604/wdrv_winc_bssctx.o
 .debug_abbrev  0x00004b9b      0x545 build/sam_a5d27_som1_winc1500/production/_ext/1528743604/wdrv_winc.o
 .debug_abbrev  0x000050e0      0x22e build/sam_a5d27_som1_winc1500/production/_ext/192068182/plib_aic.o
 .debug_abbrev  0x0000530e       0xd1 build/sam_a5d27_som1_winc1500/production/_ext/192066159/plib_clk.o
 .debug_abbrev  0x000053df      0x264 build/sam_a5d27_som1_winc1500/production/_ext/1834821283/plib_flexcom4_spi_master.o
 .debug_abbrev  0x00005643       0xcd build/sam_a5d27_som1_winc1500/production/_ext/669990670/plib_matrix.o
 .debug_abbrev  0x00005710      0x1ea build/sam_a5d27_som1_winc1500/production/_ext/192056508/plib_mmu.o
 .debug_abbrev  0x000058fa      0x240 build/sam_a5d27_som1_winc1500/production/_ext/192053755/plib_pio.o
 .debug_abbrev  0x00005b3a      0x194 build/sam_a5d27_som1_winc1500/production/_ext/6195168/plib_tc0.o
 .debug_abbrev  0x00005cce      0x490 build/sam_a5d27_som1_winc1500/production/_ext/1658557633/plib_uart1.o
 .debug_abbrev  0x0000615e      0x2ad build/sam_a5d27_som1_winc1500/production/_ext/127175570/plib_xdmac0.o
 .debug_abbrev  0x0000640b      0x43f build/sam_a5d27_som1_winc1500/production/_ext/1238961202/sys_console.o
 .debug_abbrev  0x0000684a      0x3cb build/sam_a5d27_som1_winc1500/production/_ext/1238961202/sys_console_uart.o
 .debug_abbrev  0x00006c15      0x194 build/sam_a5d27_som1_winc1500/production/_ext/931592374/sys_debug.o
 .debug_abbrev  0x00006da9       0xf2 build/sam_a5d27_som1_winc1500/production/_ext/737894/sys_dma.o
 .debug_abbrev  0x00006e9b      0x2a5 build/sam_a5d27_som1_winc1500/production/_ext/1629436774/sys_int.o
 .debug_abbrev  0x00007140      0x5d4 build/sam_a5d27_som1_winc1500/production/_ext/668867648/sys_time.o
 .debug_abbrev  0x00007714      0x15a build/sam_a5d27_som1_winc1500/production/_ext/1420715725/interrupts.o
 .debug_abbrev  0x0000786e       0x33 build/sam_a5d27_som1_winc1500/production/_ext/1420715725/fault_handlers.o
 .debug_abbrev  0x000078a1       0x12 build/sam_a5d27_som1_winc1500/production/_ext/1420715725/cstartup.o
 .debug_abbrev  0x000078b3       0xce build/sam_a5d27_som1_winc1500/production/_ext/1420715725/tasks.o
 .debug_abbrev  0x00007981      0x275 build/sam_a5d27_som1_winc1500/production/_ext/1420715725/initialization.o
 .debug_abbrev  0x00007bf6       0xd5 build/sam_a5d27_som1_winc1500/production/_ext/1360937237/main.o
 .debug_abbrev  0x00007ccb      0x1cb build/sam_a5d27_som1_winc1500/production/_ext/1360937237/app.o
 .debug_abbrev  0x00007e96      0x2fd build/sam_a5d27_som1_winc1500/production/_ext/1360937237/example.o
 .debug_abbrev  0x00008193       0x14 c:/program files/microchip/xc32/v4.00/bin/bin/../../lib/gcc/pic32c/8.3.1/thumb/v7-a+simd/hard\libgcc.a(_udivsi3.o)
 .debug_abbrev  0x000081a7       0x14 c:/program files/microchip/xc32/v4.00/bin/bin/../../lib/gcc/pic32c/8.3.1/thumb/v7-a+simd/hard\libgcc.a(_divsi3.o)
 .debug_abbrev  0x000081bb       0x14 c:/program files/microchip/xc32/v4.00/bin/bin/../../lib/gcc/pic32c/8.3.1/thumb/v7-a+simd/hard\libgcc.a(_dvmd_tls.o)
 .debug_abbrev  0x000081cf       0x14 c:/program files/microchip/xc32/v4.00/bin/bin/../../lib/gcc/pic32c/8.3.1/thumb/v7-a+simd/hard\libgcc.a(_aeabi_uldivmod.o)
 .debug_abbrev  0x000081e3      0x146 c:/program files/microchip/xc32/v4.00/bin/bin/../../lib/gcc/pic32c/8.3.1/thumb/v7-a+simd/hard\libgcc.a(_udivmoddi4.o)
 .debug_abbrev  0x00008329      0x126 c:/program files/microchip/xc32/v4.00/bin/bin/../../lib/gcc/pic32c/8.3.1/../../../../pic32c/lib/thumb/v7-a+simd/hard\libc-musl.a(__libc_start_main.o)
 .debug_abbrev  0x0000844f       0xc7 c:/program files/microchip/xc32/v4.00/bin/bin/../../lib/gcc/pic32c/8.3.1/../../../../pic32c/lib/thumb/v7-a+simd/hard\libc-musl.a(libc.o)
 .debug_abbrev  0x00008516      0x41a c:/program files/microchip/xc32/v4.00/bin/bin/../../lib/gcc/pic32c/8.3.1/../../../../pic32c/lib/thumb/v7-a+simd/hard\libc-musl.a(malloc.o)
 .debug_abbrev  0x00008930      0x112 c:/program files/microchip/xc32/v4.00/bin/bin/../../lib/gcc/pic32c/8.3.1/../../../../pic32c/lib/thumb/v7-a+simd/hard\libc-musl.a(expand_heap.o)
 .debug_abbrev  0x00008a42      0x168 c:/program files/microchip/xc32/v4.00/bin/bin/../../lib/gcc/pic32c/8.3.1/../../../../pic32c/lib/thumb/v7-a+simd/hard\libc-musl.a(vsnprintf.o)
 .debug_abbrev  0x00008baa       0xbb c:/program files/microchip/xc32/v4.00/bin/bin/../../lib/gcc/pic32c/8.3.1/../../../../pic32c/lib/thumb/v7-a+simd/hard\libc-musl.a(atoi.o)
 .debug_abbrev  0x00008c65       0x9c c:/program files/microchip/xc32/v4.00/bin/bin/../../lib/gcc/pic32c/8.3.1/../../../../pic32c/lib/thumb/v7-a+simd/hard\libc-musl.a(memcpy.o)
 .debug_abbrev  0x00008d01       0x97 c:/program files/microchip/xc32/v4.00/bin/bin/../../lib/gcc/pic32c/8.3.1/../../../../pic32c/lib/thumb/v7-a+simd/hard\libc-musl.a(memset.o)
 .debug_abbrev  0x00008d98       0x86 c:/program files/microchip/xc32/v4.00/bin/bin/../../lib/gcc/pic32c/8.3.1/../../../../pic32c/lib/thumb/v7-a+simd/hard\libc-musl.a(strlen.o)
 .debug_abbrev  0x00008e1e       0xa2 c:/program files/microchip/xc32/v4.00/bin/bin/../../lib/gcc/pic32c/8.3.1/../../../../pic32c/lib/thumb/v7-a+simd/hard\libc-musl.a(strchr.o)
 .debug_abbrev  0x00008ec0      0x158 c:/program files/microchip/xc32/v4.00/bin/bin/../../lib/gcc/pic32c/8.3.1/../../../../pic32c/lib/thumb/v7-a+simd/hard\libc-musl.a(strchrnul.o)
 .debug_abbrev  0x00009018       0x8e c:/program files/microchip/xc32/v4.00/bin/bin/../../lib/gcc/pic32c/8.3.1/../../../../pic32c/lib/thumb/v7-a+simd/hard\libc-musl.a(strcpy.o)
 .debug_abbrev  0x000090a6       0x86 c:/program files/microchip/xc32/v4.00/bin/bin/../../lib/gcc/pic32c/8.3.1/../../../../pic32c/lib/thumb/v7-a+simd/hard\libc-musl.a(strncmp.o)
 .debug_abbrev  0x0000912c       0xac c:/program files/microchip/xc32/v4.00/bin/bin/../../lib/gcc/pic32c/8.3.1/../../../../pic32c/lib/thumb/v7-a+simd/hard\libc-musl.a(strtok.o)
 .debug_abbrev  0x000091d8      0x2bf c:/program files/microchip/xc32/v4.00/bin/bin/../../lib/gcc/pic32c/8.3.1/../../../../pic32c/lib/thumb/v7-a+simd/hard\libc-musl.a(__tz.o)
 .debug_abbrev  0x00009497      0x137 c:/program files/microchip/xc32/v4.00/bin/bin/../../lib/gcc/pic32c/8.3.1/../../../../pic32c/lib/thumb/v7-a+simd/hard\libc-musl.a(mktime.o)
 .debug_abbrev  0x000095ce       0xc7 c:/program files/microchip/xc32/v4.00/bin/bin/../../lib/gcc/pic32c/8.3.1/../../../../pic32c/lib/thumb/v7-a+simd/hard\libc-musl.a(__environ.o)
 .debug_abbrev  0x00009695       0xba c:/program files/microchip/xc32/v4.00/bin/bin/../../lib/gcc/pic32c/8.3.1/../../../../pic32c/lib/thumb/v7-a+simd/hard\libc-musl.a(__errno_location.o)
 .debug_abbrev  0x0000974f      0x180 c:/program files/microchip/xc32/v4.00/bin/bin/../../lib/gcc/pic32c/8.3.1/../../../../pic32c/lib/thumb/v7-a+simd/hard\libc-musl.a(vfprintf.o)
 .debug_abbrev  0x000098cf       0xdf c:/program files/microchip/xc32/v4.00/bin/bin/../../lib/gcc/pic32c/8.3.1/../../../../pic32c/lib/thumb/v7-a+simd/hard\libc-musl.a(stpcpy.o)
 .debug_abbrev  0x000099ae       0xf5 c:/program files/microchip/xc32/v4.00/bin/bin/../../lib/gcc/pic32c/8.3.1/../../../../pic32c/lib/thumb/v7-a+simd/hard\libc-musl.a(strcspn.o)
 .debug_abbrev  0x00009aa3       0xa7 c:/program files/microchip/xc32/v4.00/bin/bin/../../lib/gcc/pic32c/8.3.1/../../../../pic32c/lib/thumb/v7-a+simd/hard\libc-musl.a(strspn.o)
 .debug_abbrev  0x00009b4a       0xa2 c:/program files/microchip/xc32/v4.00/bin/bin/../../lib/gcc/pic32c/8.3.1/../../../../pic32c/lib/thumb/v7-a+simd/hard\libc-musl.a(__month_to_secs.o)
 .debug_abbrev  0x00009bec       0xcf c:/program files/microchip/xc32/v4.00/bin/bin/../../lib/gcc/pic32c/8.3.1/../../../../pic32c/lib/thumb/v7-a+simd/hard\libc-musl.a(__secs_to_tm.o)
 .debug_abbrev  0x00009cbb      0x112 c:/program files/microchip/xc32/v4.00/bin/bin/../../lib/gcc/pic32c/8.3.1/../../../../pic32c/lib/thumb/v7-a+simd/hard\libc-musl.a(__tm_to_secs.o)
 .debug_abbrev  0x00009dcd       0x77 c:/program files/microchip/xc32/v4.00/bin/bin/../../lib/gcc/pic32c/8.3.1/../../../../pic32c/lib/thumb/v7-a+simd/hard\libc-musl.a(__year_to_secs.o)
 .debug_abbrev  0x00009e44      0x2e8 c:/program files/microchip/xc32/v4.00/bin/bin/../../lib/gcc/pic32c/8.3.1/../../../../pic32c/lib/thumb/v7-a+simd/hard\libc-musl.a(__printf_core.o)
 .debug_abbrev  0x0000a12c      0x126 c:/program files/microchip/xc32/v4.00/bin/bin/../../lib/gcc/pic32c/8.3.1/../../../../pic32c/lib/thumb/v7-a+simd/hard\libc-musl.a(tolower.o)
 .debug_abbrev  0x0000a252      0x1ee c:/program files/microchip/xc32/v4.00/bin/bin/../../lib/gcc/pic32c/8.3.1/../../../../pic32c/lib/thumb/v7-a+simd/hard\libc-musl.a(__fmt_a.o)
 .debug_abbrev  0x0000a440      0x16f c:/program files/microchip/xc32/v4.00/bin/bin/../../lib/gcc/pic32c/8.3.1/../../../../pic32c/lib/thumb/v7-a+simd/hard\libc-musl.a(__fmt_d.o)
 .debug_abbrev  0x0000a5af      0x202 c:/program files/microchip/xc32/v4.00/bin/bin/../../lib/gcc/pic32c/8.3.1/../../../../pic32c/lib/thumb/v7-a+simd/hard\libc-musl.a(__fmt_fp.o)
 .debug_abbrev  0x0000a7b1      0x16f c:/program files/microchip/xc32/v4.00/bin/bin/../../lib/gcc/pic32c/8.3.1/../../../../pic32c/lib/thumb/v7-a+simd/hard\libc-musl.a(__fmt_o.o)
 .debug_abbrev  0x0000a920      0x14f c:/program files/microchip/xc32/v4.00/bin/bin/../../lib/gcc/pic32c/8.3.1/../../../../pic32c/lib/thumb/v7-a+simd/hard\libc-musl.a(__fmt_s.o)
 .debug_abbrev  0x0000aa6f      0x1b2 c:/program files/microchip/xc32/v4.00/bin/bin/../../lib/gcc/pic32c/8.3.1/../../../../pic32c/lib/thumb/v7-a+simd/hard\libc-musl.a(__fmt_u.o)
 .debug_abbrev  0x0000ac21      0x15e c:/program files/microchip/xc32/v4.00/bin/bin/../../lib/gcc/pic32c/8.3.1/../../../../pic32c/lib/thumb/v7-a+simd/hard\libc-musl.a(__fmt_x.o)
 .debug_abbrev  0x0000ad7f      0x11b c:/program files/microchip/xc32/v4.00/bin/bin/../../lib/gcc/pic32c/8.3.1/../../../../pic32c/lib/thumb/v7-a+simd/hard\libc-musl.a(__pop_float.o)
 .debug_abbrev  0x0000ae9a      0x11b c:/program files/microchip/xc32/v4.00/bin/bin/../../lib/gcc/pic32c/8.3.1/../../../../pic32c/lib/thumb/v7-a+simd/hard\libc-musl.a(__pop_int.o)
 .debug_abbrev  0x0000afb5      0x12c c:/program files/microchip/xc32/v4.00/bin/bin/../../lib/gcc/pic32c/8.3.1/../../../../pic32c/lib/thumb/v7-a+simd/hard\libc-musl.a(__pop_ptr.o)
 .debug_abbrev  0x0000b0e1      0x126 c:/program files/microchip/xc32/v4.00/bin/bin/../../lib/gcc/pic32c/8.3.1/../../../../pic32c/lib/thumb/v7-a+simd/hard\libc-musl.a(toupper.o)
 .debug_abbrev  0x0000b207      0x10c c:/program files/microchip/xc32/v4.00/bin/bin/../../lib/gcc/pic32c/8.3.1/../../../../pic32c/lib/thumb/v7-a+simd/hard\libm-musl.a(floor.o)
 .debug_abbrev  0x0000b313      0x247 c:/program files/microchip/xc32/v4.00/bin/bin/../../lib/gcc/pic32c/8.3.1/../../../../pic32c/lib/thumb/v7-a+simd/hard\libm-musl.a(fma.o)
 .debug_abbrev  0x0000b55a       0xb4 c:/program files/microchip/xc32/v4.00/bin/bin/../../lib/gcc/pic32c/8.3.1/../../../../pic32c/lib/thumb/v7-a+simd/hard\libm-musl.a(scalbn.o)
 .debug_abbrev  0x0000b60e       0x2e c:/program files/microchip/xc32/v4.00/bin/bin/../../lib/gcc/pic32c/8.3.1/../../../../pic32c/lib/thumb/v7-a+simd/hard\libpic32c.a(sbrk.o)
 .debug_abbrev  0x0000b63c       0x14 c:/program files/microchip/xc32/v4.00/bin/bin/../../lib/gcc/pic32c/8.3.1/thumb/v7-a+simd/hard\libgcc.a(_arm_addsubdf3.o)
 .debug_abbrev  0x0000b650       0x14 c:/program files/microchip/xc32/v4.00/bin/bin/../../lib/gcc/pic32c/8.3.1/thumb/v7-a+simd/hard\libgcc.a(_aeabi_ldivmod.o)

.debug_loc      0x00000000    0x26cf8
 .debug_loc     0x00000000     0x2650 build/sam_a5d27_som1_winc1500/production/_ext/1971804060/drv_spi.o
 .debug_loc     0x00002650      0x196 build/sam_a5d27_som1_winc1500/production/_ext/1615170836/wdrv_winc_eint.o
 .debug_loc     0x000027e6      0x63a build/sam_a5d27_som1_winc1500/production/_ext/467732753/wdrv_winc_spi.o
 .debug_loc     0x00002e20       0xa8 build/sam_a5d27_som1_winc1500/production/_ext/461596885/nm_common.o
 .debug_loc     0x00002ec8      0xdc8 build/sam_a5d27_som1_winc1500/production/_ext/492885778/m2m_hif.o
 .debug_loc     0x00003c90      0x556 build/sam_a5d27_som1_winc1500/production/_ext/492885778/nmbus.o
 .debug_loc     0x000041e6      0x7b5 build/sam_a5d27_som1_winc1500/production/_ext/492885778/nmdrv.o
 .debug_loc     0x0000499b     0x45b8 build/sam_a5d27_som1_winc1500/production/_ext/492885778/m2m_wifi.o
 .debug_loc     0x00008f53      0xe0a build/sam_a5d27_som1_winc1500/production/_ext/492885778/m2m_ssl.o
 .debug_loc     0x00009d5d      0xe58 build/sam_a5d27_som1_winc1500/production/_ext/492885778/nmasic.o
 .debug_loc     0x0000abb5     0x1688 build/sam_a5d27_som1_winc1500/production/_ext/492885778/nmspi.o
 .debug_loc     0x0000c23d     0x1233 build/sam_a5d27_som1_winc1500/production/_ext/492885778/m2m_ota.o
 .debug_loc     0x0000d470      0x2eb build/sam_a5d27_som1_winc1500/production/_ext/919363165/inet_addr.o
 .debug_loc     0x0000d75b      0x3ef build/sam_a5d27_som1_winc1500/production/_ext/919363165/inet_ntop.o
 .debug_loc     0x0000db4a     0x2821 build/sam_a5d27_som1_winc1500/production/_ext/919363165/socket.o
 .debug_loc     0x0001036b      0x2b6 build/sam_a5d27_som1_winc1500/production/_ext/2123267981/flexible_flash.o
 .debug_loc     0x00010621      0xf7c build/sam_a5d27_som1_winc1500/production/_ext/2123267981/spi_flash.o
 .debug_loc     0x0001159d       0x5d build/sam_a5d27_som1_winc1500/production/_ext/141899762/wdrv_winc_osal.o
 .debug_loc     0x000115fa      0xac3 build/sam_a5d27_som1_winc1500/production/_ext/1528743604/wdrv_winc_sta.o
 .debug_loc     0x000120bd      0xad4 build/sam_a5d27_som1_winc1500/production/_ext/1528743604/wdrv_winc_authctx.o
 .debug_loc     0x00012b91     0x1b12 build/sam_a5d27_som1_winc1500/production/_ext/1528743604/wdrv_winc_host_file.o
 .debug_loc     0x000146a3      0x6ee build/sam_a5d27_som1_winc1500/production/_ext/1528743604/wdrv_winc_softap.o
 .debug_loc     0x00014d91      0x730 build/sam_a5d27_som1_winc1500/production/_ext/1528743604/wdrv_winc_systime.o
 .debug_loc     0x000154c1     0x1716 build/sam_a5d27_som1_winc1500/production/_ext/1528743604/wdrv_winc_socket.o
 .debug_loc     0x00016bd7      0x48d build/sam_a5d27_som1_winc1500/production/_ext/1528743604/wdrv_winc_bssctx.o
 .debug_loc     0x00017064     0x2c18 build/sam_a5d27_som1_winc1500/production/_ext/1528743604/wdrv_winc.o
 .debug_loc     0x00019c7c      0x162 build/sam_a5d27_som1_winc1500/production/_ext/192068182/plib_aic.o
 .debug_loc     0x00019dde      0x5a3 build/sam_a5d27_som1_winc1500/production/_ext/1834821283/plib_flexcom4_spi_master.o
 .debug_loc     0x0001a381       0x67 build/sam_a5d27_som1_winc1500/production/_ext/669990670/plib_matrix.o
 .debug_loc     0x0001a3e8      0x1e7 build/sam_a5d27_som1_winc1500/production/_ext/192056508/plib_mmu.o
 .debug_loc     0x0001a5cf      0x3e4 build/sam_a5d27_som1_winc1500/production/_ext/192053755/plib_pio.o
 .debug_loc     0x0001a9b3       0x66 build/sam_a5d27_som1_winc1500/production/_ext/6195168/plib_tc0.o
 .debug_loc     0x0001aa19      0x8ea build/sam_a5d27_som1_winc1500/production/_ext/1658557633/plib_uart1.o
 .debug_loc     0x0001b303      0x3df build/sam_a5d27_som1_winc1500/production/_ext/127175570/plib_xdmac0.o
 .debug_loc     0x0001b6e2      0xcd2 build/sam_a5d27_som1_winc1500/production/_ext/1238961202/sys_console.o
 .debug_loc     0x0001c3b4      0x9f9 build/sam_a5d27_som1_winc1500/production/_ext/1238961202/sys_console_uart.o
 .debug_loc     0x0001cdad       0xa1 build/sam_a5d27_som1_winc1500/production/_ext/931592374/sys_debug.o
 .debug_loc     0x0001ce4e      0x1a9 build/sam_a5d27_som1_winc1500/production/_ext/737894/sys_dma.o
 .debug_loc     0x0001cff7      0x55c build/sam_a5d27_som1_winc1500/production/_ext/1629436774/sys_int.o
 .debug_loc     0x0001d553     0x2529 build/sam_a5d27_som1_winc1500/production/_ext/668867648/sys_time.o
 .debug_loc     0x0001fa7c       0x20 build/sam_a5d27_som1_winc1500/production/_ext/1420715725/tasks.o
 .debug_loc     0x0001fa9c       0x45 build/sam_a5d27_som1_winc1500/production/_ext/1420715725/initialization.o
 .debug_loc     0x0001fae1       0x20 build/sam_a5d27_som1_winc1500/production/_ext/1360937237/main.o
 .debug_loc     0x0001fb01       0x20 build/sam_a5d27_som1_winc1500/production/_ext/1360937237/app.o
 .debug_loc     0x0001fb21      0x970 build/sam_a5d27_som1_winc1500/production/_ext/1360937237/example.o
 .debug_loc     0x00020491      0x2db c:/program files/microchip/xc32/v4.00/bin/bin/../../lib/gcc/pic32c/8.3.1/thumb/v7-a+simd/hard\libgcc.a(_udivmoddi4.o)
 .debug_loc     0x0002076c       0x51 c:/program files/microchip/xc32/v4.00/bin/bin/../../lib/gcc/pic32c/8.3.1/../../../../pic32c/lib/thumb/v7-a+simd/hard\libc-musl.a(__libc_start_main.o)
 .debug_loc     0x000207bd      0xbd2 c:/program files/microchip/xc32/v4.00/bin/bin/../../lib/gcc/pic32c/8.3.1/../../../../pic32c/lib/thumb/v7-a+simd/hard\libc-musl.a(malloc.o)
 .debug_loc     0x0002138f       0x7c c:/program files/microchip/xc32/v4.00/bin/bin/../../lib/gcc/pic32c/8.3.1/../../../../pic32c/lib/thumb/v7-a+simd/hard\libc-musl.a(expand_heap.o)
 .debug_loc     0x0002140b       0xeb c:/program files/microchip/xc32/v4.00/bin/bin/../../lib/gcc/pic32c/8.3.1/../../../../pic32c/lib/thumb/v7-a+simd/hard\libc-musl.a(vsnprintf.o)
 .debug_loc     0x000214f6       0xd8 c:/program files/microchip/xc32/v4.00/bin/bin/../../lib/gcc/pic32c/8.3.1/../../../../pic32c/lib/thumb/v7-a+simd/hard\libc-musl.a(atoi.o)
 .debug_loc     0x000215ce       0xca c:/program files/microchip/xc32/v4.00/bin/bin/../../lib/gcc/pic32c/8.3.1/../../../../pic32c/lib/thumb/v7-a+simd/hard\libc-musl.a(memcpy.o)
 .debug_loc     0x00021698       0x56 c:/program files/microchip/xc32/v4.00/bin/bin/../../lib/gcc/pic32c/8.3.1/../../../../pic32c/lib/thumb/v7-a+simd/hard\libc-musl.a(memset.o)
 .debug_loc     0x000216ee       0x47 c:/program files/microchip/xc32/v4.00/bin/bin/../../lib/gcc/pic32c/8.3.1/../../../../pic32c/lib/thumb/v7-a+simd/hard\libc-musl.a(strlen.o)
 .debug_loc     0x00021735       0x8c c:/program files/microchip/xc32/v4.00/bin/bin/../../lib/gcc/pic32c/8.3.1/../../../../pic32c/lib/thumb/v7-a+simd/hard\libc-musl.a(strchr.o)
 .debug_loc     0x000217c1      0x14c c:/program files/microchip/xc32/v4.00/bin/bin/../../lib/gcc/pic32c/8.3.1/../../../../pic32c/lib/thumb/v7-a+simd/hard\libc-musl.a(strchrnul.o)
 .debug_loc     0x0002190d       0x67 c:/program files/microchip/xc32/v4.00/bin/bin/../../lib/gcc/pic32c/8.3.1/../../../../pic32c/lib/thumb/v7-a+simd/hard\libc-musl.a(strcpy.o)
 .debug_loc     0x00021974      0x1a6 c:/program files/microchip/xc32/v4.00/bin/bin/../../lib/gcc/pic32c/8.3.1/../../../../pic32c/lib/thumb/v7-a+simd/hard\libc-musl.a(strncmp.o)
 .debug_loc     0x00021b1a       0x71 c:/program files/microchip/xc32/v4.00/bin/bin/../../lib/gcc/pic32c/8.3.1/../../../../pic32c/lib/thumb/v7-a+simd/hard\libc-musl.a(strtok.o)
 .debug_loc     0x00021b8b      0x6a7 c:/program files/microchip/xc32/v4.00/bin/bin/../../lib/gcc/pic32c/8.3.1/../../../../pic32c/lib/thumb/v7-a+simd/hard\libc-musl.a(__tz.o)
 .debug_loc     0x00022232       0xa6 c:/program files/microchip/xc32/v4.00/bin/bin/../../lib/gcc/pic32c/8.3.1/../../../../pic32c/lib/thumb/v7-a+simd/hard\libc-musl.a(mktime.o)
 .debug_loc     0x000222d8       0x88 c:/program files/microchip/xc32/v4.00/bin/bin/../../lib/gcc/pic32c/8.3.1/../../../../pic32c/lib/thumb/v7-a+simd/hard\libc-musl.a(vfprintf.o)
 .debug_loc     0x00022360       0x60 c:/program files/microchip/xc32/v4.00/bin/bin/../../lib/gcc/pic32c/8.3.1/../../../../pic32c/lib/thumb/v7-a+simd/hard\libc-musl.a(stpcpy.o)
 .debug_loc     0x000223c0      0x13d c:/program files/microchip/xc32/v4.00/bin/bin/../../lib/gcc/pic32c/8.3.1/../../../../pic32c/lib/thumb/v7-a+simd/hard\libc-musl.a(strcspn.o)
 .debug_loc     0x000224fd      0x18d c:/program files/microchip/xc32/v4.00/bin/bin/../../lib/gcc/pic32c/8.3.1/../../../../pic32c/lib/thumb/v7-a+simd/hard\libc-musl.a(strspn.o)
 .debug_loc     0x0002268a       0x5d c:/program files/microchip/xc32/v4.00/bin/bin/../../lib/gcc/pic32c/8.3.1/../../../../pic32c/lib/thumb/v7-a+simd/hard\libc-musl.a(__month_to_secs.o)
 .debug_loc     0x000226e7      0x2f9 c:/program files/microchip/xc32/v4.00/bin/bin/../../lib/gcc/pic32c/8.3.1/../../../../pic32c/lib/thumb/v7-a+simd/hard\libc-musl.a(__secs_to_tm.o)
 .debug_loc     0x000229e0       0xe0 c:/program files/microchip/xc32/v4.00/bin/bin/../../lib/gcc/pic32c/8.3.1/../../../../pic32c/lib/thumb/v7-a+simd/hard\libc-musl.a(__tm_to_secs.o)
 .debug_loc     0x00022ac0      0x230 c:/program files/microchip/xc32/v4.00/bin/bin/../../lib/gcc/pic32c/8.3.1/../../../../pic32c/lib/thumb/v7-a+simd/hard\libc-musl.a(__year_to_secs.o)
 .debug_loc     0x00022cf0      0x654 c:/program files/microchip/xc32/v4.00/bin/bin/../../lib/gcc/pic32c/8.3.1/../../../../pic32c/lib/thumb/v7-a+simd/hard\libc-musl.a(__printf_core.o)
 .debug_loc     0x00023344       0x4a c:/program files/microchip/xc32/v4.00/bin/bin/../../lib/gcc/pic32c/8.3.1/../../../../pic32c/lib/thumb/v7-a+simd/hard\libc-musl.a(tolower.o)
 .debug_loc     0x0002338e      0xbe2 c:/program files/microchip/xc32/v4.00/bin/bin/../../lib/gcc/pic32c/8.3.1/../../../../pic32c/lib/thumb/v7-a+simd/hard\libc-musl.a(__fmt_a.o)
 .debug_loc     0x00023f70      0x1ef c:/program files/microchip/xc32/v4.00/bin/bin/../../lib/gcc/pic32c/8.3.1/../../../../pic32c/lib/thumb/v7-a+simd/hard\libc-musl.a(__fmt_d.o)
 .debug_loc     0x0002415f      0xb45 c:/program files/microchip/xc32/v4.00/bin/bin/../../lib/gcc/pic32c/8.3.1/../../../../pic32c/lib/thumb/v7-a+simd/hard\libc-musl.a(__fmt_fp.o)
 .debug_loc     0x00024ca4      0x10a c:/program files/microchip/xc32/v4.00/bin/bin/../../lib/gcc/pic32c/8.3.1/../../../../pic32c/lib/thumb/v7-a+simd/hard\libc-musl.a(__fmt_o.o)
 .debug_loc     0x00024dae      0x14a c:/program files/microchip/xc32/v4.00/bin/bin/../../lib/gcc/pic32c/8.3.1/../../../../pic32c/lib/thumb/v7-a+simd/hard\libc-musl.a(__fmt_s.o)
 .debug_loc     0x00024ef8      0x2d3 c:/program files/microchip/xc32/v4.00/bin/bin/../../lib/gcc/pic32c/8.3.1/../../../../pic32c/lib/thumb/v7-a+simd/hard\libc-musl.a(__fmt_u.o)
 .debug_loc     0x000251cb      0x2b8 c:/program files/microchip/xc32/v4.00/bin/bin/../../lib/gcc/pic32c/8.3.1/../../../../pic32c/lib/thumb/v7-a+simd/hard\libc-musl.a(__fmt_x.o)
 .debug_loc     0x00025483       0xa6 c:/program files/microchip/xc32/v4.00/bin/bin/../../lib/gcc/pic32c/8.3.1/../../../../pic32c/lib/thumb/v7-a+simd/hard\libc-musl.a(__pop_float.o)
 .debug_loc     0x00025529      0x312 c:/program files/microchip/xc32/v4.00/bin/bin/../../lib/gcc/pic32c/8.3.1/../../../../pic32c/lib/thumb/v7-a+simd/hard\libc-musl.a(__pop_int.o)
 .debug_loc     0x0002583b      0x1db c:/program files/microchip/xc32/v4.00/bin/bin/../../lib/gcc/pic32c/8.3.1/../../../../pic32c/lib/thumb/v7-a+simd/hard\libc-musl.a(__pop_ptr.o)
 .debug_loc     0x00025a16       0x4a c:/program files/microchip/xc32/v4.00/bin/bin/../../lib/gcc/pic32c/8.3.1/../../../../pic32c/lib/thumb/v7-a+simd/hard\libc-musl.a(toupper.o)
 .debug_loc     0x00025a60      0x12f c:/program files/microchip/xc32/v4.00/bin/bin/../../lib/gcc/pic32c/8.3.1/../../../../pic32c/lib/thumb/v7-a+simd/hard\libm-musl.a(floor.o)
 .debug_loc     0x00025b8f      0xfbc c:/program files/microchip/xc32/v4.00/bin/bin/../../lib/gcc/pic32c/8.3.1/../../../../pic32c/lib/thumb/v7-a+simd/hard\libm-musl.a(fma.o)
 .debug_loc     0x00026b4b      0x1ad c:/program files/microchip/xc32/v4.00/bin/bin/../../lib/gcc/pic32c/8.3.1/../../../../pic32c/lib/thumb/v7-a+simd/hard\libm-musl.a(scalbn.o)

.debug_aranges  0x00000000     0x1b70
 .debug_aranges
                0x00000000       0xb8 build/sam_a5d27_som1_winc1500/production/_ext/1971804060/drv_spi.o
 .debug_aranges
                0x000000b8       0x28 build/sam_a5d27_som1_winc1500/production/_ext/1615170836/wdrv_winc_eint.o
 .debug_aranges
                0x000000e0       0x38 build/sam_a5d27_som1_winc1500/production/_ext/1615170836/wdrv_winc_gpio.o
 .debug_aranges
                0x00000118       0x48 build/sam_a5d27_som1_winc1500/production/_ext/467732753/wdrv_winc_spi.o
 .debug_aranges
                0x00000160       0x28 build/sam_a5d27_som1_winc1500/production/_ext/461596885/nm_common.o
 .debug_aranges
                0x00000188       0x80 build/sam_a5d27_som1_winc1500/production/_ext/492885778/m2m_hif.o
 .debug_aranges
                0x00000208       0x60 build/sam_a5d27_som1_winc1500/production/_ext/492885778/nmbus.o
 .debug_aranges
                0x00000268       0x58 build/sam_a5d27_som1_winc1500/production/_ext/492885778/nmdrv.o
 .debug_aranges
                0x000002c0      0x290 build/sam_a5d27_som1_winc1500/production/_ext/492885778/m2m_wifi.o
 .debug_aranges
                0x00000550       0x70 build/sam_a5d27_som1_winc1500/production/_ext/492885778/m2m_ssl.o
 .debug_aranges
                0x000005c0       0xc8 build/sam_a5d27_som1_winc1500/production/_ext/492885778/nmasic.o
 .debug_aranges
                0x00000688       0x80 build/sam_a5d27_som1_winc1500/production/_ext/492885778/nmspi.o
 .debug_aranges
                0x00000708       0xa0 build/sam_a5d27_som1_winc1500/production/_ext/492885778/m2m_ota.o
 .debug_aranges
                0x000007a8       0x20 build/sam_a5d27_som1_winc1500/production/_ext/919363165/inet_addr.o
 .debug_aranges
                0x000007c8       0x20 build/sam_a5d27_som1_winc1500/production/_ext/919363165/inet_ntop.o
 .debug_aranges
                0x000007e8       0xe8 build/sam_a5d27_som1_winc1500/production/_ext/919363165/socket.o
 .debug_aranges
                0x000008d0       0x20 build/sam_a5d27_som1_winc1500/production/_ext/2123267981/flexible_flash.o
 .debug_aranges
                0x000008f0       0x60 build/sam_a5d27_som1_winc1500/production/_ext/2123267981/spi_flash.o
 .debug_aranges
                0x00000950       0x20 build/sam_a5d27_som1_winc1500/production/_ext/141899762/wdrv_winc_osal.o
 .debug_aranges
                0x00000970       0x40 build/sam_a5d27_som1_winc1500/production/_ext/1528743604/wdrv_winc_sta.o
 .debug_aranges
                0x000009b0       0x48 build/sam_a5d27_som1_winc1500/production/_ext/1528743604/wdrv_winc_authctx.o
 .debug_aranges
                0x000009f8       0x48 build/sam_a5d27_som1_winc1500/production/_ext/1528743604/wdrv_winc_host_file.o
 .debug_aranges
                0x00000a40       0x30 build/sam_a5d27_som1_winc1500/production/_ext/1528743604/wdrv_winc_softap.o
 .debug_aranges
                0x00000a70       0x48 build/sam_a5d27_som1_winc1500/production/_ext/1528743604/wdrv_winc_systime.o
 .debug_aranges
                0x00000ab8       0xc0 build/sam_a5d27_som1_winc1500/production/_ext/1528743604/wdrv_winc_socket.o
 .debug_aranges
                0x00000b78       0x48 build/sam_a5d27_som1_winc1500/production/_ext/1528743604/wdrv_winc_bssctx.o
 .debug_aranges
                0x00000bc0       0xf8 build/sam_a5d27_som1_winc1500/production/_ext/1528743604/wdrv_winc.o
 .debug_aranges
                0x00000cb8       0x38 build/sam_a5d27_som1_winc1500/production/_ext/192068182/plib_aic.o
 .debug_aranges
                0x00000cf0       0x20 build/sam_a5d27_som1_winc1500/production/_ext/192066159/plib_clk.o
 .debug_aranges
                0x00000d10       0x60 build/sam_a5d27_som1_winc1500/production/_ext/1834821283/plib_flexcom4_spi_master.o
 .debug_aranges
                0x00000d70       0x20 build/sam_a5d27_som1_winc1500/production/_ext/669990670/plib_matrix.o
 .debug_aranges
                0x00000d90       0x38 build/sam_a5d27_som1_winc1500/production/_ext/192056508/plib_mmu.o
 .debug_aranges
                0x00000dc8       0x80 build/sam_a5d27_som1_winc1500/production/_ext/192053755/plib_pio.o
 .debug_aranges
                0x00000e48       0x70 build/sam_a5d27_som1_winc1500/production/_ext/6195168/plib_tc0.o
 .debug_aranges
                0x00000eb8       0xb8 build/sam_a5d27_som1_winc1500/production/_ext/1658557633/plib_uart1.o
 .debug_aranges
                0x00000f70       0x78 build/sam_a5d27_som1_winc1500/production/_ext/127175570/plib_xdmac0.o
 .debug_aranges
                0x00000fe8       0x88 build/sam_a5d27_som1_winc1500/production/_ext/1238961202/sys_console.o
 .debug_aranges
                0x00001070       0x68 build/sam_a5d27_som1_winc1500/production/_ext/1238961202/sys_console_uart.o
 .debug_aranges
                0x000010d8       0x48 build/sam_a5d27_som1_winc1500/production/_ext/931592374/sys_debug.o
 .debug_aranges
                0x00001120       0x28 build/sam_a5d27_som1_winc1500/production/_ext/737894/sys_dma.o
 .debug_aranges
                0x00001148       0x70 build/sam_a5d27_som1_winc1500/production/_ext/1629436774/sys_int.o
 .debug_aranges
                0x000011b8      0x130 build/sam_a5d27_som1_winc1500/production/_ext/668867648/sys_time.o
 .debug_aranges
                0x000012e8       0x30 build/sam_a5d27_som1_winc1500/production/_ext/1420715725/interrupts.o
 .debug_aranges
                0x00001318       0x38 build/sam_a5d27_som1_winc1500/production/_ext/1420715725/fault_handlers.o
 .debug_aranges
                0x00001350       0x30 build/sam_a5d27_som1_winc1500/production/_ext/1420715725/cstartup.o
 .debug_aranges
                0x00001380       0x20 build/sam_a5d27_som1_winc1500/production/_ext/1420715725/tasks.o
 .debug_aranges
                0x000013a0       0x20 build/sam_a5d27_som1_winc1500/production/_ext/1420715725/initialization.o
 .debug_aranges
                0x000013c0       0x20 build/sam_a5d27_som1_winc1500/production/_ext/1360937237/main.o
 .debug_aranges
                0x000013e0       0x28 build/sam_a5d27_som1_winc1500/production/_ext/1360937237/app.o
 .debug_aranges
                0x00001408       0x50 build/sam_a5d27_som1_winc1500/production/_ext/1360937237/example.o
 .debug_aranges
                0x00001458       0x20 c:/program files/microchip/xc32/v4.00/bin/bin/../../lib/gcc/pic32c/8.3.1/thumb/v7-a+simd/hard\libgcc.a(_udivsi3.o)
 .debug_aranges
                0x00001478       0x20 c:/program files/microchip/xc32/v4.00/bin/bin/../../lib/gcc/pic32c/8.3.1/thumb/v7-a+simd/hard\libgcc.a(_divsi3.o)
 .debug_aranges
                0x00001498       0x20 c:/program files/microchip/xc32/v4.00/bin/bin/../../lib/gcc/pic32c/8.3.1/thumb/v7-a+simd/hard\libgcc.a(_dvmd_tls.o)
 .debug_aranges
                0x000014b8       0x20 c:/program files/microchip/xc32/v4.00/bin/bin/../../lib/gcc/pic32c/8.3.1/thumb/v7-a+simd/hard\libgcc.a(_aeabi_uldivmod.o)
 .debug_aranges
                0x000014d8       0x20 c:/program files/microchip/xc32/v4.00/bin/bin/../../lib/gcc/pic32c/8.3.1/thumb/v7-a+simd/hard\libgcc.a(_udivmoddi4.o)
 .debug_aranges
                0x000014f8       0x28 c:/program files/microchip/xc32/v4.00/bin/bin/../../lib/gcc/pic32c/8.3.1/../../../../pic32c/lib/thumb/v7-a+simd/hard\libc-musl.a(__libc_start_main.o)
 .debug_aranges
                0x00001520       0x18 c:/program files/microchip/xc32/v4.00/bin/bin/../../lib/gcc/pic32c/8.3.1/../../../../pic32c/lib/thumb/v7-a+simd/hard\libc-musl.a(libc.o)
 .debug_aranges
                0x00001538       0x70 c:/program files/microchip/xc32/v4.00/bin/bin/../../lib/gcc/pic32c/8.3.1/../../../../pic32c/lib/thumb/v7-a+simd/hard\libc-musl.a(malloc.o)
 .debug_aranges
                0x000015a8       0x20 c:/program files/microchip/xc32/v4.00/bin/bin/../../lib/gcc/pic32c/8.3.1/../../../../pic32c/lib/thumb/v7-a+simd/hard\libc-musl.a(expand_heap.o)
 .debug_aranges
                0x000015c8       0x20 c:/program files/microchip/xc32/v4.00/bin/bin/../../lib/gcc/pic32c/8.3.1/../../../../pic32c/lib/thumb/v7-a+simd/hard\libc-musl.a(vsnprintf.o)
 .debug_aranges
                0x000015e8       0x20 c:/program files/microchip/xc32/v4.00/bin/bin/../../lib/gcc/pic32c/8.3.1/../../../../pic32c/lib/thumb/v7-a+simd/hard\libc-musl.a(atoi.o)
 .debug_aranges
                0x00001608       0x20 c:/program files/microchip/xc32/v4.00/bin/bin/../../lib/gcc/pic32c/8.3.1/../../../../pic32c/lib/thumb/v7-a+simd/hard\libc-musl.a(memcpy.o)
 .debug_aranges
                0x00001628       0x20 c:/program files/microchip/xc32/v4.00/bin/bin/../../lib/gcc/pic32c/8.3.1/../../../../pic32c/lib/thumb/v7-a+simd/hard\libc-musl.a(memset.o)
 .debug_aranges
                0x00001648       0x20 c:/program files/microchip/xc32/v4.00/bin/bin/../../lib/gcc/pic32c/8.3.1/../../../../pic32c/lib/thumb/v7-a+simd/hard\libc-musl.a(strlen.o)
 .debug_aranges
                0x00001668       0x20 c:/program files/microchip/xc32/v4.00/bin/bin/../../lib/gcc/pic32c/8.3.1/../../../../pic32c/lib/thumb/v7-a+simd/hard\libc-musl.a(strchr.o)
 .debug_aranges
                0x00001688       0x20 c:/program files/microchip/xc32/v4.00/bin/bin/../../lib/gcc/pic32c/8.3.1/../../../../pic32c/lib/thumb/v7-a+simd/hard\libc-musl.a(strchrnul.o)
 .debug_aranges
                0x000016a8       0x20 c:/program files/microchip/xc32/v4.00/bin/bin/../../lib/gcc/pic32c/8.3.1/../../../../pic32c/lib/thumb/v7-a+simd/hard\libc-musl.a(strcpy.o)
 .debug_aranges
                0x000016c8       0x20 c:/program files/microchip/xc32/v4.00/bin/bin/../../lib/gcc/pic32c/8.3.1/../../../../pic32c/lib/thumb/v7-a+simd/hard\libc-musl.a(strncmp.o)
 .debug_aranges
                0x000016e8       0x20 c:/program files/microchip/xc32/v4.00/bin/bin/../../lib/gcc/pic32c/8.3.1/../../../../pic32c/lib/thumb/v7-a+simd/hard\libc-musl.a(strtok.o)
 .debug_aranges
                0x00001708       0x60 c:/program files/microchip/xc32/v4.00/bin/bin/../../lib/gcc/pic32c/8.3.1/../../../../pic32c/lib/thumb/v7-a+simd/hard\libc-musl.a(__tz.o)
 .debug_aranges
                0x00001768       0x20 c:/program files/microchip/xc32/v4.00/bin/bin/../../lib/gcc/pic32c/8.3.1/../../../../pic32c/lib/thumb/v7-a+simd/hard\libc-musl.a(mktime.o)
 .debug_aranges
                0x00001788       0x18 c:/program files/microchip/xc32/v4.00/bin/bin/../../lib/gcc/pic32c/8.3.1/../../../../pic32c/lib/thumb/v7-a+simd/hard\libc-musl.a(__environ.o)
 .debug_aranges
                0x000017a0       0x18 c:/program files/microchip/xc32/v4.00/bin/bin/../../lib/gcc/pic32c/8.3.1/../../../../pic32c/lib/thumb/v7-a+simd/hard\libc-musl.a(__errno_location.o)
 .debug_aranges
                0x000017b8       0x28 c:/program files/microchip/xc32/v4.00/bin/bin/../../lib/gcc/pic32c/8.3.1/../../../../pic32c/lib/thumb/v7-a+simd/hard\libc-musl.a(vfprintf.o)
 .debug_aranges
                0x000017e0       0x20 c:/program files/microchip/xc32/v4.00/bin/bin/../../lib/gcc/pic32c/8.3.1/../../../../pic32c/lib/thumb/v7-a+simd/hard\libc-musl.a(stpcpy.o)
 .debug_aranges
                0x00001800       0x20 c:/program files/microchip/xc32/v4.00/bin/bin/../../lib/gcc/pic32c/8.3.1/../../../../pic32c/lib/thumb/v7-a+simd/hard\libc-musl.a(strcspn.o)
 .debug_aranges
                0x00001820       0x20 c:/program files/microchip/xc32/v4.00/bin/bin/../../lib/gcc/pic32c/8.3.1/../../../../pic32c/lib/thumb/v7-a+simd/hard\libc-musl.a(strspn.o)
 .debug_aranges
                0x00001840       0x20 c:/program files/microchip/xc32/v4.00/bin/bin/../../lib/gcc/pic32c/8.3.1/../../../../pic32c/lib/thumb/v7-a+simd/hard\libc-musl.a(__month_to_secs.o)
 .debug_aranges
                0x00001860       0x20 c:/program files/microchip/xc32/v4.00/bin/bin/../../lib/gcc/pic32c/8.3.1/../../../../pic32c/lib/thumb/v7-a+simd/hard\libc-musl.a(__secs_to_tm.o)
 .debug_aranges
                0x00001880       0x20 c:/program files/microchip/xc32/v4.00/bin/bin/../../lib/gcc/pic32c/8.3.1/../../../../pic32c/lib/thumb/v7-a+simd/hard\libc-musl.a(__tm_to_secs.o)
 .debug_aranges
                0x000018a0       0x20 c:/program files/microchip/xc32/v4.00/bin/bin/../../lib/gcc/pic32c/8.3.1/../../../../pic32c/lib/thumb/v7-a+simd/hard\libc-musl.a(__year_to_secs.o)
 .debug_aranges
                0x000018c0       0x50 c:/program files/microchip/xc32/v4.00/bin/bin/../../lib/gcc/pic32c/8.3.1/../../../../pic32c/lib/thumb/v7-a+simd/hard\libc-musl.a(__printf_core.o)
 .debug_aranges
                0x00001910       0x28 c:/program files/microchip/xc32/v4.00/bin/bin/../../lib/gcc/pic32c/8.3.1/../../../../pic32c/lib/thumb/v7-a+simd/hard\libc-musl.a(tolower.o)
 .debug_aranges
                0x00001938       0x20 c:/program files/microchip/xc32/v4.00/bin/bin/../../lib/gcc/pic32c/8.3.1/../../../../pic32c/lib/thumb/v7-a+simd/hard\libc-musl.a(__fmt_a.o)
 .debug_aranges
                0x00001958       0x20 c:/program files/microchip/xc32/v4.00/bin/bin/../../lib/gcc/pic32c/8.3.1/../../../../pic32c/lib/thumb/v7-a+simd/hard\libc-musl.a(__fmt_d.o)
 .debug_aranges
                0x00001978       0x20 c:/program files/microchip/xc32/v4.00/bin/bin/../../lib/gcc/pic32c/8.3.1/../../../../pic32c/lib/thumb/v7-a+simd/hard\libc-musl.a(__fmt_fp.o)
 .debug_aranges
                0x00001998       0x20 c:/program files/microchip/xc32/v4.00/bin/bin/../../lib/gcc/pic32c/8.3.1/../../../../pic32c/lib/thumb/v7-a+simd/hard\libc-musl.a(__fmt_o.o)
 .debug_aranges
                0x000019b8       0x20 c:/program files/microchip/xc32/v4.00/bin/bin/../../lib/gcc/pic32c/8.3.1/../../../../pic32c/lib/thumb/v7-a+simd/hard\libc-musl.a(__fmt_s.o)
 .debug_aranges
                0x000019d8       0x28 c:/program files/microchip/xc32/v4.00/bin/bin/../../lib/gcc/pic32c/8.3.1/../../../../pic32c/lib/thumb/v7-a+simd/hard\libc-musl.a(__fmt_u.o)
 .debug_aranges
                0x00001a00       0x20 c:/program files/microchip/xc32/v4.00/bin/bin/../../lib/gcc/pic32c/8.3.1/../../../../pic32c/lib/thumb/v7-a+simd/hard\libc-musl.a(__fmt_x.o)
 .debug_aranges
                0x00001a20       0x20 c:/program files/microchip/xc32/v4.00/bin/bin/../../lib/gcc/pic32c/8.3.1/../../../../pic32c/lib/thumb/v7-a+simd/hard\libc-musl.a(__pop_float.o)
 .debug_aranges
                0x00001a40       0x20 c:/program files/microchip/xc32/v4.00/bin/bin/../../lib/gcc/pic32c/8.3.1/../../../../pic32c/lib/thumb/v7-a+simd/hard\libc-musl.a(__pop_int.o)
 .debug_aranges
                0x00001a60       0x20 c:/program files/microchip/xc32/v4.00/bin/bin/../../lib/gcc/pic32c/8.3.1/../../../../pic32c/lib/thumb/v7-a+simd/hard\libc-musl.a(__pop_ptr.o)
 .debug_aranges
                0x00001a80       0x28 c:/program files/microchip/xc32/v4.00/bin/bin/../../lib/gcc/pic32c/8.3.1/../../../../pic32c/lib/thumb/v7-a+simd/hard\libc-musl.a(toupper.o)
 .debug_aranges
                0x00001aa8       0x20 c:/program files/microchip/xc32/v4.00/bin/bin/../../lib/gcc/pic32c/8.3.1/../../../../pic32c/lib/thumb/v7-a+simd/hard\libm-musl.a(floor.o)
 .debug_aranges
                0x00001ac8       0x28 c:/program files/microchip/xc32/v4.00/bin/bin/../../lib/gcc/pic32c/8.3.1/../../../../pic32c/lib/thumb/v7-a+simd/hard\libm-musl.a(fma.o)
 .debug_aranges
                0x00001af0       0x20 c:/program files/microchip/xc32/v4.00/bin/bin/../../lib/gcc/pic32c/8.3.1/../../../../pic32c/lib/thumb/v7-a+simd/hard\libm-musl.a(scalbn.o)
 .debug_aranges
                0x00001b10       0x20 c:/program files/microchip/xc32/v4.00/bin/bin/../../lib/gcc/pic32c/8.3.1/../../../../pic32c/lib/thumb/v7-a+simd/hard\libpic32c.a(sbrk.o)
 .debug_aranges
                0x00001b30       0x20 c:/program files/microchip/xc32/v4.00/bin/bin/../../lib/gcc/pic32c/8.3.1/thumb/v7-a+simd/hard\libgcc.a(_arm_addsubdf3.o)
 .debug_aranges
                0x00001b50       0x20 c:/program files/microchip/xc32/v4.00/bin/bin/../../lib/gcc/pic32c/8.3.1/thumb/v7-a+simd/hard\libgcc.a(_aeabi_ldivmod.o)

.debug_ranges   0x00000000     0x23f8
 .debug_ranges  0x00000000      0x190 build/sam_a5d27_som1_winc1500/production/_ext/1971804060/drv_spi.o
 .debug_ranges  0x00000190       0x18 build/sam_a5d27_som1_winc1500/production/_ext/1615170836/wdrv_winc_eint.o
 .debug_ranges  0x000001a8       0x28 build/sam_a5d27_som1_winc1500/production/_ext/1615170836/wdrv_winc_gpio.o
 .debug_ranges  0x000001d0       0x68 build/sam_a5d27_som1_winc1500/production/_ext/467732753/wdrv_winc_spi.o
 .debug_ranges  0x00000238       0x18 build/sam_a5d27_som1_winc1500/production/_ext/461596885/nm_common.o
 .debug_ranges  0x00000250       0xe0 build/sam_a5d27_som1_winc1500/production/_ext/492885778/m2m_hif.o
 .debug_ranges  0x00000330       0x80 build/sam_a5d27_som1_winc1500/production/_ext/492885778/nmbus.o
 .debug_ranges  0x000003b0       0x48 build/sam_a5d27_som1_winc1500/production/_ext/492885778/nmdrv.o
 .debug_ranges  0x000003f8      0x3b0 build/sam_a5d27_som1_winc1500/production/_ext/492885778/m2m_wifi.o
 .debug_ranges  0x000007a8       0xb8 build/sam_a5d27_som1_winc1500/production/_ext/492885778/m2m_ssl.o
 .debug_ranges  0x00000860       0xd0 build/sam_a5d27_som1_winc1500/production/_ext/492885778/nmasic.o
 .debug_ranges  0x00000930      0x228 build/sam_a5d27_som1_winc1500/production/_ext/492885778/nmspi.o
 .debug_ranges  0x00000b58       0xa8 build/sam_a5d27_som1_winc1500/production/_ext/492885778/m2m_ota.o
 .debug_ranges  0x00000c00       0x10 build/sam_a5d27_som1_winc1500/production/_ext/919363165/inet_addr.o
 .debug_ranges  0x00000c10       0x10 build/sam_a5d27_som1_winc1500/production/_ext/919363165/inet_ntop.o
 .debug_ranges  0x00000c20      0x230 build/sam_a5d27_som1_winc1500/production/_ext/919363165/socket.o
 .debug_ranges  0x00000e50       0x10 build/sam_a5d27_som1_winc1500/production/_ext/2123267981/flexible_flash.o
 .debug_ranges  0x00000e60       0x98 build/sam_a5d27_som1_winc1500/production/_ext/2123267981/spi_flash.o
 .debug_ranges  0x00000ef8       0x10 build/sam_a5d27_som1_winc1500/production/_ext/141899762/wdrv_winc_osal.o
 .debug_ranges  0x00000f08       0x78 build/sam_a5d27_som1_winc1500/production/_ext/1528743604/wdrv_winc_sta.o
 .debug_ranges  0x00000f80       0x88 build/sam_a5d27_som1_winc1500/production/_ext/1528743604/wdrv_winc_authctx.o
 .debug_ranges  0x00001008       0xc8 build/sam_a5d27_som1_winc1500/production/_ext/1528743604/wdrv_winc_host_file.o
 .debug_ranges  0x000010d0       0x20 build/sam_a5d27_som1_winc1500/production/_ext/1528743604/wdrv_winc_softap.o
 .debug_ranges  0x000010f0       0x38 build/sam_a5d27_som1_winc1500/production/_ext/1528743604/wdrv_winc_systime.o
 .debug_ranges  0x00001128       0xb0 build/sam_a5d27_som1_winc1500/production/_ext/1528743604/wdrv_winc_socket.o
 .debug_ranges  0x000011d8       0x50 build/sam_a5d27_som1_winc1500/production/_ext/1528743604/wdrv_winc_bssctx.o
 .debug_ranges  0x00001228      0x1b0 build/sam_a5d27_som1_winc1500/production/_ext/1528743604/wdrv_winc.o
 .debug_ranges  0x000013d8       0x70 build/sam_a5d27_som1_winc1500/production/_ext/192068182/plib_aic.o
 .debug_ranges  0x00001448       0x10 build/sam_a5d27_som1_winc1500/production/_ext/192066159/plib_clk.o
 .debug_ranges  0x00001458       0x50 build/sam_a5d27_som1_winc1500/production/_ext/1834821283/plib_flexcom4_spi_master.o
 .debug_ranges  0x000014a8       0x10 build/sam_a5d27_som1_winc1500/production/_ext/669990670/plib_matrix.o
 .debug_ranges  0x000014b8      0x118 build/sam_a5d27_som1_winc1500/production/_ext/192056508/plib_mmu.o
 .debug_ranges  0x000015d0       0x70 build/sam_a5d27_som1_winc1500/production/_ext/192053755/plib_pio.o
 .debug_ranges  0x00001640       0x60 build/sam_a5d27_som1_winc1500/production/_ext/6195168/plib_tc0.o
 .debug_ranges  0x000016a0      0x138 build/sam_a5d27_som1_winc1500/production/_ext/1658557633/plib_uart1.o
 .debug_ranges  0x000017d8       0x68 build/sam_a5d27_som1_winc1500/production/_ext/127175570/plib_xdmac0.o
 .debug_ranges  0x00001840       0x90 build/sam_a5d27_som1_winc1500/production/_ext/1238961202/sys_console.o
 .debug_ranges  0x000018d0      0x1a8 build/sam_a5d27_som1_winc1500/production/_ext/1238961202/sys_console_uart.o
 .debug_ranges  0x00001a78       0x38 build/sam_a5d27_som1_winc1500/production/_ext/931592374/sys_debug.o
 .debug_ranges  0x00001ab0       0x18 build/sam_a5d27_som1_winc1500/production/_ext/737894/sys_dma.o
 .debug_ranges  0x00001ac8       0x98 build/sam_a5d27_som1_winc1500/production/_ext/1629436774/sys_int.o
 .debug_ranges  0x00001b60      0x180 build/sam_a5d27_som1_winc1500/production/_ext/668867648/sys_time.o
 .debug_ranges  0x00001ce0       0x20 build/sam_a5d27_som1_winc1500/production/_ext/1420715725/interrupts.o
 .debug_ranges  0x00001d00       0x28 build/sam_a5d27_som1_winc1500/production/_ext/1420715725/fault_handlers.o
 .debug_ranges  0x00001d28       0x28 build/sam_a5d27_som1_winc1500/production/_ext/1420715725/cstartup.o
 .debug_ranges  0x00001d50       0x10 build/sam_a5d27_som1_winc1500/production/_ext/1420715725/tasks.o
 .debug_ranges  0x00001d60       0x10 build/sam_a5d27_som1_winc1500/production/_ext/1420715725/initialization.o
 .debug_ranges  0x00001d70       0x10 build/sam_a5d27_som1_winc1500/production/_ext/1360937237/main.o
 .debug_ranges  0x00001d80       0x18 build/sam_a5d27_som1_winc1500/production/_ext/1360937237/app.o
 .debug_ranges  0x00001d98       0x88 build/sam_a5d27_som1_winc1500/production/_ext/1360937237/example.o
 .debug_ranges  0x00001e20       0x38 c:/program files/microchip/xc32/v4.00/bin/bin/../../lib/gcc/pic32c/8.3.1/../../../../pic32c/lib/thumb/v7-a+simd/hard\libc-musl.a(__libc_start_main.o)
 .debug_ranges  0x00001e58      0x1d0 c:/program files/microchip/xc32/v4.00/bin/bin/../../lib/gcc/pic32c/8.3.1/../../../../pic32c/lib/thumb/v7-a+simd/hard\libc-musl.a(malloc.o)
 .debug_ranges  0x00002028       0x10 c:/program files/microchip/xc32/v4.00/bin/bin/../../lib/gcc/pic32c/8.3.1/../../../../pic32c/lib/thumb/v7-a+simd/hard\libc-musl.a(expand_heap.o)
 .debug_ranges  0x00002038       0x10 c:/program files/microchip/xc32/v4.00/bin/bin/../../lib/gcc/pic32c/8.3.1/../../../../pic32c/lib/thumb/v7-a+simd/hard\libc-musl.a(vsnprintf.o)
 .debug_ranges  0x00002048       0x10 c:/program files/microchip/xc32/v4.00/bin/bin/../../lib/gcc/pic32c/8.3.1/../../../../pic32c/lib/thumb/v7-a+simd/hard\libc-musl.a(atoi.o)
 .debug_ranges  0x00002058       0x10 c:/program files/microchip/xc32/v4.00/bin/bin/../../lib/gcc/pic32c/8.3.1/../../../../pic32c/lib/thumb/v7-a+simd/hard\libc-musl.a(memcpy.o)
 .debug_ranges  0x00002068       0x10 c:/program files/microchip/xc32/v4.00/bin/bin/../../lib/gcc/pic32c/8.3.1/../../../../pic32c/lib/thumb/v7-a+simd/hard\libc-musl.a(memset.o)
 .debug_ranges  0x00002078       0x10 c:/program files/microchip/xc32/v4.00/bin/bin/../../lib/gcc/pic32c/8.3.1/../../../../pic32c/lib/thumb/v7-a+simd/hard\libc-musl.a(strlen.o)
 .debug_ranges  0x00002088       0x10 c:/program files/microchip/xc32/v4.00/bin/bin/../../lib/gcc/pic32c/8.3.1/../../../../pic32c/lib/thumb/v7-a+simd/hard\libc-musl.a(strchr.o)
 .debug_ranges  0x00002098       0x10 c:/program files/microchip/xc32/v4.00/bin/bin/../../lib/gcc/pic32c/8.3.1/../../../../pic32c/lib/thumb/v7-a+simd/hard\libc-musl.a(strchrnul.o)
 .debug_ranges  0x000020a8       0x10 c:/program files/microchip/xc32/v4.00/bin/bin/../../lib/gcc/pic32c/8.3.1/../../../../pic32c/lib/thumb/v7-a+simd/hard\libc-musl.a(strcpy.o)
 .debug_ranges  0x000020b8       0x10 c:/program files/microchip/xc32/v4.00/bin/bin/../../lib/gcc/pic32c/8.3.1/../../../../pic32c/lib/thumb/v7-a+simd/hard\libc-musl.a(strncmp.o)
 .debug_ranges  0x000020c8       0x10 c:/program files/microchip/xc32/v4.00/bin/bin/../../lib/gcc/pic32c/8.3.1/../../../../pic32c/lib/thumb/v7-a+simd/hard\libc-musl.a(strtok.o)
 .debug_ranges  0x000020d8       0x68 c:/program files/microchip/xc32/v4.00/bin/bin/../../lib/gcc/pic32c/8.3.1/../../../../pic32c/lib/thumb/v7-a+simd/hard\libc-musl.a(__tz.o)
 .debug_ranges  0x00002140       0x10 c:/program files/microchip/xc32/v4.00/bin/bin/../../lib/gcc/pic32c/8.3.1/../../../../pic32c/lib/thumb/v7-a+simd/hard\libc-musl.a(mktime.o)
 .debug_ranges  0x00002150       0x18 c:/program files/microchip/xc32/v4.00/bin/bin/../../lib/gcc/pic32c/8.3.1/../../../../pic32c/lib/thumb/v7-a+simd/hard\libc-musl.a(vfprintf.o)
 .debug_ranges  0x00002168       0x10 c:/program files/microchip/xc32/v4.00/bin/bin/../../lib/gcc/pic32c/8.3.1/../../../../pic32c/lib/thumb/v7-a+simd/hard\libc-musl.a(stpcpy.o)
 .debug_ranges  0x00002178       0x10 c:/program files/microchip/xc32/v4.00/bin/bin/../../lib/gcc/pic32c/8.3.1/../../../../pic32c/lib/thumb/v7-a+simd/hard\libc-musl.a(strcspn.o)
 .debug_ranges  0x00002188       0x10 c:/program files/microchip/xc32/v4.00/bin/bin/../../lib/gcc/pic32c/8.3.1/../../../../pic32c/lib/thumb/v7-a+simd/hard\libc-musl.a(strspn.o)
 .debug_ranges  0x00002198       0x10 c:/program files/microchip/xc32/v4.00/bin/bin/../../lib/gcc/pic32c/8.3.1/../../../../pic32c/lib/thumb/v7-a+simd/hard\libc-musl.a(__month_to_secs.o)
 .debug_ranges  0x000021a8       0x10 c:/program files/microchip/xc32/v4.00/bin/bin/../../lib/gcc/pic32c/8.3.1/../../../../pic32c/lib/thumb/v7-a+simd/hard\libc-musl.a(__secs_to_tm.o)
 .debug_ranges  0x000021b8       0x10 c:/program files/microchip/xc32/v4.00/bin/bin/../../lib/gcc/pic32c/8.3.1/../../../../pic32c/lib/thumb/v7-a+simd/hard\libc-musl.a(__tm_to_secs.o)
 .debug_ranges  0x000021c8       0x28 c:/program files/microchip/xc32/v4.00/bin/bin/../../lib/gcc/pic32c/8.3.1/../../../../pic32c/lib/thumb/v7-a+simd/hard\libc-musl.a(__year_to_secs.o)
 .debug_ranges  0x000021f0       0x68 c:/program files/microchip/xc32/v4.00/bin/bin/../../lib/gcc/pic32c/8.3.1/../../../../pic32c/lib/thumb/v7-a+simd/hard\libc-musl.a(__printf_core.o)
 .debug_ranges  0x00002258       0x18 c:/program files/microchip/xc32/v4.00/bin/bin/../../lib/gcc/pic32c/8.3.1/../../../../pic32c/lib/thumb/v7-a+simd/hard\libc-musl.a(tolower.o)
 .debug_ranges  0x00002270       0x10 c:/program files/microchip/xc32/v4.00/bin/bin/../../lib/gcc/pic32c/8.3.1/../../../../pic32c/lib/thumb/v7-a+simd/hard\libc-musl.a(__fmt_a.o)
 .debug_ranges  0x00002280       0x10 c:/program files/microchip/xc32/v4.00/bin/bin/../../lib/gcc/pic32c/8.3.1/../../../../pic32c/lib/thumb/v7-a+simd/hard\libc-musl.a(__fmt_d.o)
 .debug_ranges  0x00002290       0x10 c:/program files/microchip/xc32/v4.00/bin/bin/../../lib/gcc/pic32c/8.3.1/../../../../pic32c/lib/thumb/v7-a+simd/hard\libc-musl.a(__fmt_fp.o)
 .debug_ranges  0x000022a0       0x10 c:/program files/microchip/xc32/v4.00/bin/bin/../../lib/gcc/pic32c/8.3.1/../../../../pic32c/lib/thumb/v7-a+simd/hard\libc-musl.a(__fmt_o.o)
 .debug_ranges  0x000022b0       0x10 c:/program files/microchip/xc32/v4.00/bin/bin/../../lib/gcc/pic32c/8.3.1/../../../../pic32c/lib/thumb/v7-a+simd/hard\libc-musl.a(__fmt_s.o)
 .debug_ranges  0x000022c0       0x18 c:/program files/microchip/xc32/v4.00/bin/bin/../../lib/gcc/pic32c/8.3.1/../../../../pic32c/lib/thumb/v7-a+simd/hard\libc-musl.a(__fmt_u.o)
 .debug_ranges  0x000022d8       0x10 c:/program files/microchip/xc32/v4.00/bin/bin/../../lib/gcc/pic32c/8.3.1/../../../../pic32c/lib/thumb/v7-a+simd/hard\libc-musl.a(__fmt_x.o)
 .debug_ranges  0x000022e8       0x10 c:/program files/microchip/xc32/v4.00/bin/bin/../../lib/gcc/pic32c/8.3.1/../../../../pic32c/lib/thumb/v7-a+simd/hard\libc-musl.a(__pop_float.o)
 .debug_ranges  0x000022f8       0x10 c:/program files/microchip/xc32/v4.00/bin/bin/../../lib/gcc/pic32c/8.3.1/../../../../pic32c/lib/thumb/v7-a+simd/hard\libc-musl.a(__pop_int.o)
 .debug_ranges  0x00002308       0x10 c:/program files/microchip/xc32/v4.00/bin/bin/../../lib/gcc/pic32c/8.3.1/../../../../pic32c/lib/thumb/v7-a+simd/hard\libc-musl.a(__pop_ptr.o)
 .debug_ranges  0x00002318       0x18 c:/program files/microchip/xc32/v4.00/bin/bin/../../lib/gcc/pic32c/8.3.1/../../../../pic32c/lib/thumb/v7-a+simd/hard\libc-musl.a(toupper.o)
 .debug_ranges  0x00002330       0x10 c:/program files/microchip/xc32/v4.00/bin/bin/../../lib/gcc/pic32c/8.3.1/../../../../pic32c/lib/thumb/v7-a+simd/hard\libm-musl.a(floor.o)
 .debug_ranges  0x00002340       0x98 c:/program files/microchip/xc32/v4.00/bin/bin/../../lib/gcc/pic32c/8.3.1/../../../../pic32c/lib/thumb/v7-a+simd/hard\libm-musl.a(fma.o)
 .debug_ranges  0x000023d8       0x10 c:/program files/microchip/xc32/v4.00/bin/bin/../../lib/gcc/pic32c/8.3.1/../../../../pic32c/lib/thumb/v7-a+simd/hard\libm-musl.a(scalbn.o)
 .debug_ranges  0x000023e8       0x10 c:/program files/microchip/xc32/v4.00/bin/bin/../../lib/gcc/pic32c/8.3.1/../../../../pic32c/lib/thumb/v7-a+simd/hard\libpic32c.a(sbrk.o)

.debug_line     0x00000000    0x1f067
 .debug_line    0x00000000     0x1660 build/sam_a5d27_som1_winc1500/production/_ext/1971804060/drv_spi.o
 .debug_line    0x00001660      0x224 build/sam_a5d27_som1_winc1500/production/_ext/1615170836/wdrv_winc_eint.o
 .debug_line    0x00001884      0x207 build/sam_a5d27_som1_winc1500/production/_ext/1615170836/wdrv_winc_gpio.o
 .debug_line    0x00001a8b      0x6fe build/sam_a5d27_som1_winc1500/production/_ext/467732753/wdrv_winc_spi.o
 .debug_line    0x00002189      0x2b4 build/sam_a5d27_som1_winc1500/production/_ext/461596885/nm_common.o
 .debug_line    0x0000243d      0xdcf build/sam_a5d27_som1_winc1500/production/_ext/492885778/m2m_hif.o
 .debug_line    0x0000320c      0x4d7 build/sam_a5d27_som1_winc1500/production/_ext/492885778/nmbus.o
 .debug_line    0x000036e3      0x6fc build/sam_a5d27_som1_winc1500/production/_ext/492885778/nmdrv.o
 .debug_line    0x00003ddf     0x2048 build/sam_a5d27_som1_winc1500/production/_ext/492885778/m2m_wifi.o
 .debug_line    0x00005e27      0x89b build/sam_a5d27_som1_winc1500/production/_ext/492885778/m2m_ssl.o
 .debug_line    0x000066c2      0xc46 build/sam_a5d27_som1_winc1500/production/_ext/492885778/nmasic.o
 .debug_line    0x00007308      0xfee build/sam_a5d27_som1_winc1500/production/_ext/492885778/nmspi.o
 .debug_line    0x000082f6      0xa69 build/sam_a5d27_som1_winc1500/production/_ext/492885778/m2m_ota.o
 .debug_line    0x00008d5f      0x31c build/sam_a5d27_som1_winc1500/production/_ext/919363165/inet_addr.o
 .debug_line    0x0000907b      0x2f3 build/sam_a5d27_som1_winc1500/production/_ext/919363165/inet_ntop.o
 .debug_line    0x0000936e     0x138e build/sam_a5d27_som1_winc1500/production/_ext/919363165/socket.o
 .debug_line    0x0000a6fc      0x2ca build/sam_a5d27_som1_winc1500/production/_ext/2123267981/flexible_flash.o
 .debug_line    0x0000a9c6      0x96b build/sam_a5d27_som1_winc1500/production/_ext/2123267981/spi_flash.o
 .debug_line    0x0000b331      0x227 build/sam_a5d27_som1_winc1500/production/_ext/141899762/wdrv_winc_osal.o
 .debug_line    0x0000b558      0x917 build/sam_a5d27_som1_winc1500/production/_ext/1528743604/wdrv_winc_sta.o
 .debug_line    0x0000be6f      0x6a6 build/sam_a5d27_som1_winc1500/production/_ext/1528743604/wdrv_winc_authctx.o
 .debug_line    0x0000c515      0xf51 build/sam_a5d27_som1_winc1500/production/_ext/1528743604/wdrv_winc_host_file.o
 .debug_line    0x0000d466      0x726 build/sam_a5d27_som1_winc1500/production/_ext/1528743604/wdrv_winc_softap.o
 .debug_line    0x0000db8c      0x671 build/sam_a5d27_som1_winc1500/production/_ext/1528743604/wdrv_winc_systime.o
 .debug_line    0x0000e1fd      0xb4a build/sam_a5d27_som1_winc1500/production/_ext/1528743604/wdrv_winc_socket.o
 .debug_line    0x0000ed47      0x42c build/sam_a5d27_som1_winc1500/production/_ext/1528743604/wdrv_winc_bssctx.o
 .debug_line    0x0000f173     0x1cce build/sam_a5d27_som1_winc1500/production/_ext/1528743604/wdrv_winc.o
 .debug_line    0x00010e41      0x4cf build/sam_a5d27_som1_winc1500/production/_ext/192068182/plib_aic.o
 .debug_line    0x00011310      0x11e build/sam_a5d27_som1_winc1500/production/_ext/192066159/plib_clk.o
 .debug_line    0x0001142e      0x666 build/sam_a5d27_som1_winc1500/production/_ext/1834821283/plib_flexcom4_spi_master.o
 .debug_line    0x00011a94      0x152 build/sam_a5d27_som1_winc1500/production/_ext/669990670/plib_matrix.o
 .debug_line    0x00011be6      0x4fd build/sam_a5d27_som1_winc1500/production/_ext/192056508/plib_mmu.o
 .debug_line    0x000120e3      0x3c9 build/sam_a5d27_som1_winc1500/production/_ext/192053755/plib_pio.o
 .debug_line    0x000124ac      0x25c build/sam_a5d27_som1_winc1500/production/_ext/6195168/plib_tc0.o
 .debug_line    0x00012708      0x817 build/sam_a5d27_som1_winc1500/production/_ext/1658557633/plib_uart1.o
 .debug_line    0x00012f1f      0x475 build/sam_a5d27_som1_winc1500/production/_ext/127175570/plib_xdmac0.o
 .debug_line    0x00013394      0x6be build/sam_a5d27_som1_winc1500/production/_ext/1238961202/sys_console.o
 .debug_line    0x00013a52      0x712 build/sam_a5d27_som1_winc1500/production/_ext/1238961202/sys_console_uart.o
 .debug_line    0x00014164      0x25e build/sam_a5d27_som1_winc1500/production/_ext/931592374/sys_debug.o
 .debug_line    0x000143c2      0x180 build/sam_a5d27_som1_winc1500/production/_ext/737894/sys_dma.o
 .debug_line    0x00014542      0x55f build/sam_a5d27_som1_winc1500/production/_ext/1629436774/sys_int.o
 .debug_line    0x00014aa1     0x1211 build/sam_a5d27_som1_winc1500/production/_ext/668867648/sys_time.o
 .debug_line    0x00015cb2      0x234 build/sam_a5d27_som1_winc1500/production/_ext/1420715725/interrupts.o
 .debug_line    0x00015ee6       0xab build/sam_a5d27_som1_winc1500/production/_ext/1420715725/fault_handlers.o
 .debug_line    0x00015f91      0x111 build/sam_a5d27_som1_winc1500/production/_ext/1420715725/cstartup.o
 .debug_line    0x000160a2      0x1a9 build/sam_a5d27_som1_winc1500/production/_ext/1420715725/tasks.o
 .debug_line    0x0001624b      0x7e9 build/sam_a5d27_som1_winc1500/production/_ext/1420715725/initialization.o
 .debug_line    0x00016a34      0x14c build/sam_a5d27_som1_winc1500/production/_ext/1360937237/main.o
 .debug_line    0x00016b80      0x37d build/sam_a5d27_som1_winc1500/production/_ext/1360937237/app.o
 .debug_line    0x00016efd      0x80f build/sam_a5d27_som1_winc1500/production/_ext/1360937237/example.o
 .debug_line    0x0001770c       0xbb c:/program files/microchip/xc32/v4.00/bin/bin/../../lib/gcc/pic32c/8.3.1/thumb/v7-a+simd/hard\libgcc.a(_udivsi3.o)
 .debug_line    0x000177c7       0xcc c:/program files/microchip/xc32/v4.00/bin/bin/../../lib/gcc/pic32c/8.3.1/thumb/v7-a+simd/hard\libgcc.a(_divsi3.o)
 .debug_line    0x00017893       0x9c c:/program files/microchip/xc32/v4.00/bin/bin/../../lib/gcc/pic32c/8.3.1/thumb/v7-a+simd/hard\libgcc.a(_dvmd_tls.o)
 .debug_line    0x0001792f       0x9c c:/program files/microchip/xc32/v4.00/bin/bin/../../lib/gcc/pic32c/8.3.1/thumb/v7-a+simd/hard\libgcc.a(_aeabi_uldivmod.o)
 .debug_line    0x000179cb      0x395 c:/program files/microchip/xc32/v4.00/bin/bin/../../lib/gcc/pic32c/8.3.1/thumb/v7-a+simd/hard\libgcc.a(_udivmoddi4.o)
 .debug_line    0x00017d60      0x245 c:/program files/microchip/xc32/v4.00/bin/bin/../../lib/gcc/pic32c/8.3.1/../../../../pic32c/lib/thumb/v7-a+simd/hard\libc-musl.a(__libc_start_main.o)
 .debug_line    0x00017fa5      0x132 c:/program files/microchip/xc32/v4.00/bin/bin/../../lib/gcc/pic32c/8.3.1/../../../../pic32c/lib/thumb/v7-a+simd/hard\libc-musl.a(libc.o)
 .debug_line    0x000180d7      0xb00 c:/program files/microchip/xc32/v4.00/bin/bin/../../lib/gcc/pic32c/8.3.1/../../../../pic32c/lib/thumb/v7-a+simd/hard\libc-musl.a(malloc.o)
 .debug_line    0x00018bd7      0x1eb c:/program files/microchip/xc32/v4.00/bin/bin/../../lib/gcc/pic32c/8.3.1/../../../../pic32c/lib/thumb/v7-a+simd/hard\libc-musl.a(expand_heap.o)
 .debug_line    0x00018dc2      0x243 c:/program files/microchip/xc32/v4.00/bin/bin/../../lib/gcc/pic32c/8.3.1/../../../../pic32c/lib/thumb/v7-a+simd/hard\libc-musl.a(vsnprintf.o)
 .debug_line    0x00019005      0x173 c:/program files/microchip/xc32/v4.00/bin/bin/../../lib/gcc/pic32c/8.3.1/../../../../pic32c/lib/thumb/v7-a+simd/hard\libc-musl.a(atoi.o)
 .debug_line    0x00019178       0xf2 c:/program files/microchip/xc32/v4.00/bin/bin/../../lib/gcc/pic32c/8.3.1/../../../../pic32c/lib/thumb/v7-a+simd/hard\libc-musl.a(memcpy.o)
 .debug_line    0x0001926a       0xea c:/program files/microchip/xc32/v4.00/bin/bin/../../lib/gcc/pic32c/8.3.1/../../../../pic32c/lib/thumb/v7-a+simd/hard\libc-musl.a(memset.o)
 .debug_line    0x00019354       0xe6 c:/program files/microchip/xc32/v4.00/bin/bin/../../lib/gcc/pic32c/8.3.1/../../../../pic32c/lib/thumb/v7-a+simd/hard\libc-musl.a(strlen.o)
 .debug_line    0x0001943a       0xbb c:/program files/microchip/xc32/v4.00/bin/bin/../../lib/gcc/pic32c/8.3.1/../../../../pic32c/lib/thumb/v7-a+simd/hard\libc-musl.a(strchr.o)
 .debug_line    0x000194f5      0x287 c:/program files/microchip/xc32/v4.00/bin/bin/../../lib/gcc/pic32c/8.3.1/../../../../pic32c/lib/thumb/v7-a+simd/hard\libc-musl.a(strchrnul.o)
 .debug_line    0x0001977c       0xb5 c:/program files/microchip/xc32/v4.00/bin/bin/../../lib/gcc/pic32c/8.3.1/../../../../pic32c/lib/thumb/v7-a+simd/hard\libc-musl.a(strcpy.o)
 .debug_line    0x00019831       0xee c:/program files/microchip/xc32/v4.00/bin/bin/../../lib/gcc/pic32c/8.3.1/../../../../pic32c/lib/thumb/v7-a+simd/hard\libc-musl.a(strncmp.o)
 .debug_line    0x0001991f      0x175 c:/program files/microchip/xc32/v4.00/bin/bin/../../lib/gcc/pic32c/8.3.1/../../../../pic32c/lib/thumb/v7-a+simd/hard\libc-musl.a(strtok.o)
 .debug_line    0x00019a94      0x813 c:/program files/microchip/xc32/v4.00/bin/bin/../../lib/gcc/pic32c/8.3.1/../../../../pic32c/lib/thumb/v7-a+simd/hard\libc-musl.a(__tz.o)
 .debug_line    0x0001a2a7      0x240 c:/program files/microchip/xc32/v4.00/bin/bin/../../lib/gcc/pic32c/8.3.1/../../../../pic32c/lib/thumb/v7-a+simd/hard\libc-musl.a(mktime.o)
 .debug_line    0x0001a4e7      0x19f c:/program files/microchip/xc32/v4.00/bin/bin/../../lib/gcc/pic32c/8.3.1/../../../../pic32c/lib/thumb/v7-a+simd/hard\libc-musl.a(__environ.o)
 .debug_line    0x0001a686      0x1ad c:/program files/microchip/xc32/v4.00/bin/bin/../../lib/gcc/pic32c/8.3.1/../../../../pic32c/lib/thumb/v7-a+simd/hard\libc-musl.a(__errno_location.o)
 .debug_line    0x0001a833      0x209 c:/program files/microchip/xc32/v4.00/bin/bin/../../lib/gcc/pic32c/8.3.1/../../../../pic32c/lib/thumb/v7-a+simd/hard\libc-musl.a(vfprintf.o)
 .debug_line    0x0001aa3c      0x1d4 c:/program files/microchip/xc32/v4.00/bin/bin/../../lib/gcc/pic32c/8.3.1/../../../../pic32c/lib/thumb/v7-a+simd/hard\libc-musl.a(stpcpy.o)
 .debug_line    0x0001ac10      0x191 c:/program files/microchip/xc32/v4.00/bin/bin/../../lib/gcc/pic32c/8.3.1/../../../../pic32c/lib/thumb/v7-a+simd/hard\libc-musl.a(strcspn.o)
 .debug_line    0x0001ada1      0x126 c:/program files/microchip/xc32/v4.00/bin/bin/../../lib/gcc/pic32c/8.3.1/../../../../pic32c/lib/thumb/v7-a+simd/hard\libc-musl.a(strspn.o)
 .debug_line    0x0001aec7       0xcf c:/program files/microchip/xc32/v4.00/bin/bin/../../lib/gcc/pic32c/8.3.1/../../../../pic32c/lib/thumb/v7-a+simd/hard\libc-musl.a(__month_to_secs.o)
 .debug_line    0x0001af96      0x2f9 c:/program files/microchip/xc32/v4.00/bin/bin/../../lib/gcc/pic32c/8.3.1/../../../../pic32c/lib/thumb/v7-a+simd/hard\libc-musl.a(__secs_to_tm.o)
 .debug_line    0x0001b28f      0x1bc c:/program files/microchip/xc32/v4.00/bin/bin/../../lib/gcc/pic32c/8.3.1/../../../../pic32c/lib/thumb/v7-a+simd/hard\libc-musl.a(__tm_to_secs.o)
 .debug_line    0x0001b44b      0x1f6 c:/program files/microchip/xc32/v4.00/bin/bin/../../lib/gcc/pic32c/8.3.1/../../../../pic32c/lib/thumb/v7-a+simd/hard\libc-musl.a(__year_to_secs.o)
 .debug_line    0x0001b641      0x70b c:/program files/microchip/xc32/v4.00/bin/bin/../../lib/gcc/pic32c/8.3.1/../../../../pic32c/lib/thumb/v7-a+simd/hard\libc-musl.a(__printf_core.o)
 .debug_line    0x0001bd4c      0x1dc c:/program files/microchip/xc32/v4.00/bin/bin/../../lib/gcc/pic32c/8.3.1/../../../../pic32c/lib/thumb/v7-a+simd/hard\libc-musl.a(tolower.o)
 .debug_line    0x0001bf28      0x6ac c:/program files/microchip/xc32/v4.00/bin/bin/../../lib/gcc/pic32c/8.3.1/../../../../pic32c/lib/thumb/v7-a+simd/hard\libc-musl.a(__fmt_a.o)
 .debug_line    0x0001c5d4      0x2ab c:/program files/microchip/xc32/v4.00/bin/bin/../../lib/gcc/pic32c/8.3.1/../../../../pic32c/lib/thumb/v7-a+simd/hard\libc-musl.a(__fmt_d.o)
 .debug_line    0x0001c87f      0x68b c:/program files/microchip/xc32/v4.00/bin/bin/../../lib/gcc/pic32c/8.3.1/../../../../pic32c/lib/thumb/v7-a+simd/hard\libc-musl.a(__fmt_fp.o)
 .debug_line    0x0001cf0a      0x267 c:/program files/microchip/xc32/v4.00/bin/bin/../../lib/gcc/pic32c/8.3.1/../../../../pic32c/lib/thumb/v7-a+simd/hard\libc-musl.a(__fmt_o.o)
 .debug_line    0x0001d171      0x29a c:/program files/microchip/xc32/v4.00/bin/bin/../../lib/gcc/pic32c/8.3.1/../../../../pic32c/lib/thumb/v7-a+simd/hard\libc-musl.a(__fmt_s.o)
 .debug_line    0x0001d40b      0x2e1 c:/program files/microchip/xc32/v4.00/bin/bin/../../lib/gcc/pic32c/8.3.1/../../../../pic32c/lib/thumb/v7-a+simd/hard\libc-musl.a(__fmt_u.o)
 .debug_line    0x0001d6ec      0x37f c:/program files/microchip/xc32/v4.00/bin/bin/../../lib/gcc/pic32c/8.3.1/../../../../pic32c/lib/thumb/v7-a+simd/hard\libc-musl.a(__fmt_x.o)
 .debug_line    0x0001da6b      0x1f7 c:/program files/microchip/xc32/v4.00/bin/bin/../../lib/gcc/pic32c/8.3.1/../../../../pic32c/lib/thumb/v7-a+simd/hard\libc-musl.a(__pop_float.o)
 .debug_line    0x0001dc62      0x28d c:/program files/microchip/xc32/v4.00/bin/bin/../../lib/gcc/pic32c/8.3.1/../../../../pic32c/lib/thumb/v7-a+simd/hard\libc-musl.a(__pop_int.o)
 .debug_line    0x0001deef      0x277 c:/program files/microchip/xc32/v4.00/bin/bin/../../lib/gcc/pic32c/8.3.1/../../../../pic32c/lib/thumb/v7-a+simd/hard\libc-musl.a(__pop_ptr.o)
 .debug_line    0x0001e166      0x1dc c:/program files/microchip/xc32/v4.00/bin/bin/../../lib/gcc/pic32c/8.3.1/../../../../pic32c/lib/thumb/v7-a+simd/hard\libc-musl.a(toupper.o)
 .debug_line    0x0001e342      0x1aa c:/program files/microchip/xc32/v4.00/bin/bin/../../lib/gcc/pic32c/8.3.1/../../../../pic32c/lib/thumb/v7-a+simd/hard\libm-musl.a(floor.o)
 .debug_line    0x0001e4ec      0x6a2 c:/program files/microchip/xc32/v4.00/bin/bin/../../lib/gcc/pic32c/8.3.1/../../../../pic32c/lib/thumb/v7-a+simd/hard\libm-musl.a(fma.o)
 .debug_line    0x0001eb8e      0x1aa c:/program files/microchip/xc32/v4.00/bin/bin/../../lib/gcc/pic32c/8.3.1/../../../../pic32c/lib/thumb/v7-a+simd/hard\libm-musl.a(scalbn.o)
 .debug_line    0x0001ed38       0xb4 c:/program files/microchip/xc32/v4.00/bin/bin/../../lib/gcc/pic32c/8.3.1/../../../../pic32c/lib/thumb/v7-a+simd/hard\libpic32c.a(sbrk.o)
 .debug_line    0x0001edec      0x1c1 c:/program files/microchip/xc32/v4.00/bin/bin/../../lib/gcc/pic32c/8.3.1/thumb/v7-a+simd/hard\libgcc.a(_arm_addsubdf3.o)
 .debug_line    0x0001efad       0xba c:/program files/microchip/xc32/v4.00/bin/bin/../../lib/gcc/pic32c/8.3.1/thumb/v7-a+simd/hard\libgcc.a(_aeabi_ldivmod.o)

.debug_str      0x00000000     0x2ebb
 .debug_str     0x00000000      0x298 build/sam_a5d27_som1_winc1500/production/_ext/1971804060/drv_spi.o
 .debug_str     0x00000298       0x52 build/sam_a5d27_som1_winc1500/production/_ext/1615170836/wdrv_winc_eint.o
 .debug_str     0x000002ea       0x14 build/sam_a5d27_som1_winc1500/production/_ext/1615170836/wdrv_winc_gpio.o
 .debug_str     0x000002fe      0x11f build/sam_a5d27_som1_winc1500/production/_ext/467732753/wdrv_winc_spi.o
 .debug_str     0x0000041d       0x83 build/sam_a5d27_som1_winc1500/production/_ext/461596885/nm_common.o
 .debug_str     0x000004a0      0x12d build/sam_a5d27_som1_winc1500/production/_ext/492885778/m2m_hif.o
 .debug_str     0x000005cd       0xac build/sam_a5d27_som1_winc1500/production/_ext/492885778/nmbus.o
 .debug_str     0x00000679      0x170 build/sam_a5d27_som1_winc1500/production/_ext/492885778/nmdrv.o
 .debug_str     0x000007e9      0x458 build/sam_a5d27_som1_winc1500/production/_ext/492885778/m2m_wifi.o
 .debug_str     0x00000c41       0xb7 build/sam_a5d27_som1_winc1500/production/_ext/492885778/m2m_ssl.o
 .debug_str     0x00000cf8       0xc6 build/sam_a5d27_som1_winc1500/production/_ext/492885778/nmasic.o
 .debug_str     0x00000dbe       0xd5 build/sam_a5d27_som1_winc1500/production/_ext/492885778/nmspi.o
 .debug_str     0x00000e93      0x17d build/sam_a5d27_som1_winc1500/production/_ext/492885778/m2m_ota.o
 .debug_str     0x00001010        0x0 build/sam_a5d27_som1_winc1500/production/_ext/919363165/inet_addr.o
 .debug_str     0x00001010        0x0 build/sam_a5d27_som1_winc1500/production/_ext/919363165/inet_ntop.o
 .debug_str     0x00001010      0x1cf build/sam_a5d27_som1_winc1500/production/_ext/919363165/socket.o
 .debug_str     0x000011df        0xf build/sam_a5d27_som1_winc1500/production/_ext/2123267981/flexible_flash.o
 .debug_str     0x000011ee       0xce build/sam_a5d27_som1_winc1500/production/_ext/2123267981/spi_flash.o
 .debug_str     0x000012bc       0x2a build/sam_a5d27_som1_winc1500/production/_ext/141899762/wdrv_winc_osal.o
 .debug_str     0x000012e6      0x1c1 build/sam_a5d27_som1_winc1500/production/_ext/1528743604/wdrv_winc_sta.o
 .debug_str     0x000014a7       0x7d build/sam_a5d27_som1_winc1500/production/_ext/1528743604/wdrv_winc_authctx.o
 .debug_str     0x00001524      0x183 build/sam_a5d27_som1_winc1500/production/_ext/1528743604/wdrv_winc_host_file.o
 .debug_str     0x000016a7       0xfb build/sam_a5d27_som1_winc1500/production/_ext/1528743604/wdrv_winc_softap.o
 .debug_str     0x000017a2       0xb5 build/sam_a5d27_som1_winc1500/production/_ext/1528743604/wdrv_winc_systime.o
 .debug_str     0x00001857      0x1ef build/sam_a5d27_som1_winc1500/production/_ext/1528743604/wdrv_winc_socket.o
 .debug_str     0x00001a46        0x8 build/sam_a5d27_som1_winc1500/production/_ext/1528743604/wdrv_winc_bssctx.o
 .debug_str     0x00001a4e      0x486 build/sam_a5d27_som1_winc1500/production/_ext/1528743604/wdrv_winc.o
 .debug_str     0x00001ed4       0x28 build/sam_a5d27_som1_winc1500/production/_ext/192068182/plib_aic.o
 .debug_str     0x00001efc        0x0 build/sam_a5d27_som1_winc1500/production/_ext/192066159/plib_clk.o
 .debug_str     0x00001efc       0x3b build/sam_a5d27_som1_winc1500/production/_ext/1834821283/plib_flexcom4_spi_master.o
 .debug_str     0x00001f37       0x3c build/sam_a5d27_som1_winc1500/production/_ext/669990670/plib_matrix.o
 .debug_str     0x00001f73        0x0 build/sam_a5d27_som1_winc1500/production/_ext/192056508/plib_mmu.o
 .debug_str     0x00001f73       0x27 build/sam_a5d27_som1_winc1500/production/_ext/192053755/plib_pio.o
 .debug_str     0x00001f9a        0xa build/sam_a5d27_som1_winc1500/production/_ext/6195168/plib_tc0.o
 .debug_str     0x00001fa4       0xa5 build/sam_a5d27_som1_winc1500/production/_ext/1658557633/plib_uart1.o
 .debug_str     0x00002049       0x2b build/sam_a5d27_som1_winc1500/production/_ext/127175570/plib_xdmac0.o
 .debug_str     0x00002074       0x38 build/sam_a5d27_som1_winc1500/production/_ext/1238961202/sys_console.o
 .debug_str     0x000020ac       0xa7 build/sam_a5d27_som1_winc1500/production/_ext/1238961202/sys_console_uart.o
 .debug_str     0x00002153        0x0 build/sam_a5d27_som1_winc1500/production/_ext/931592374/sys_debug.o
 .debug_str     0x00002153       0x34 build/sam_a5d27_som1_winc1500/production/_ext/737894/sys_dma.o
 .debug_str     0x00002187       0x64 build/sam_a5d27_som1_winc1500/production/_ext/1629436774/sys_int.o
 .debug_str     0x000021eb      0x155 build/sam_a5d27_som1_winc1500/production/_ext/668867648/sys_time.o
 .debug_str     0x00002340       0x28 build/sam_a5d27_som1_winc1500/production/_ext/1420715725/interrupts.o
 .debug_str     0x00002368        0x0 build/sam_a5d27_som1_winc1500/production/_ext/1420715725/fault_handlers.o
 .debug_str     0x00002368       0xa8 build/sam_a5d27_som1_winc1500/production/_ext/1420715725/cstartup.o
 .debug_str     0x00002410       0x1a build/sam_a5d27_som1_winc1500/production/_ext/1420715725/tasks.o
 .debug_str     0x0000242a      0x1ae build/sam_a5d27_som1_winc1500/production/_ext/1420715725/initialization.o
 .debug_str     0x000025d8       0x19 build/sam_a5d27_som1_winc1500/production/_ext/1360937237/main.o
 .debug_str     0x000025f1       0x71 build/sam_a5d27_som1_winc1500/production/_ext/1360937237/app.o
 .debug_str     0x00002662      0x1c6 build/sam_a5d27_som1_winc1500/production/_ext/1360937237/example.o
 .debug_str     0x00002828       0xf3 c:/program files/microchip/xc32/v4.00/bin/bin/../../lib/gcc/pic32c/8.3.1/thumb/v7-a+simd/hard\libgcc.a(_udivsi3.o)
 .debug_str     0x0000291b       0xf3 c:/program files/microchip/xc32/v4.00/bin/bin/../../lib/gcc/pic32c/8.3.1/thumb/v7-a+simd/hard\libgcc.a(_divsi3.o)
 .debug_str     0x00002a0e       0xf3 c:/program files/microchip/xc32/v4.00/bin/bin/../../lib/gcc/pic32c/8.3.1/thumb/v7-a+simd/hard\libgcc.a(_dvmd_tls.o)
 .debug_str     0x00002b01       0xef c:/program files/microchip/xc32/v4.00/bin/bin/../../lib/gcc/pic32c/8.3.1/thumb/v7-a+simd/hard\libgcc.a(_aeabi_uldivmod.o)
 .debug_str     0x00002bf0        0x0 c:/program files/microchip/xc32/v4.00/bin/bin/../../lib/gcc/pic32c/8.3.1/thumb/v7-a+simd/hard\libgcc.a(_udivmoddi4.o)
 .debug_str     0x00002bf0        0x0 c:/program files/microchip/xc32/v4.00/bin/bin/../../lib/gcc/pic32c/8.3.1/../../../../pic32c/lib/thumb/v7-a+simd/hard\libc-musl.a(__libc_start_main.o)
 .debug_str     0x00002bf0        0x0 c:/program files/microchip/xc32/v4.00/bin/bin/../../lib/gcc/pic32c/8.3.1/../../../../pic32c/lib/thumb/v7-a+simd/hard\libc-musl.a(libc.o)
 .debug_str     0x00002bf0       0x13 c:/program files/microchip/xc32/v4.00/bin/bin/../../lib/gcc/pic32c/8.3.1/../../../../pic32c/lib/thumb/v7-a+simd/hard\libc-musl.a(malloc.o)
 .debug_str     0x00002c03        0x0 c:/program files/microchip/xc32/v4.00/bin/bin/../../lib/gcc/pic32c/8.3.1/../../../../pic32c/lib/thumb/v7-a+simd/hard\libc-musl.a(expand_heap.o)
 .debug_str     0x00002c03        0x9 c:/program files/microchip/xc32/v4.00/bin/bin/../../lib/gcc/pic32c/8.3.1/../../../../pic32c/lib/thumb/v7-a+simd/hard\libc-musl.a(vsnprintf.o)
 .debug_str     0x00002c0c        0x0 c:/program files/microchip/xc32/v4.00/bin/bin/../../lib/gcc/pic32c/8.3.1/../../../../pic32c/lib/thumb/v7-a+simd/hard\libc-musl.a(atoi.o)
 .debug_str     0x00002c0c        0x0 c:/program files/microchip/xc32/v4.00/bin/bin/../../lib/gcc/pic32c/8.3.1/../../../../pic32c/lib/thumb/v7-a+simd/hard\libc-musl.a(memcpy.o)
 .debug_str     0x00002c0c        0x0 c:/program files/microchip/xc32/v4.00/bin/bin/../../lib/gcc/pic32c/8.3.1/../../../../pic32c/lib/thumb/v7-a+simd/hard\libc-musl.a(memset.o)
 .debug_str     0x00002c0c        0x0 c:/program files/microchip/xc32/v4.00/bin/bin/../../lib/gcc/pic32c/8.3.1/../../../../pic32c/lib/thumb/v7-a+simd/hard\libc-musl.a(strlen.o)
 .debug_str     0x00002c0c        0xc c:/program files/microchip/xc32/v4.00/bin/bin/../../lib/gcc/pic32c/8.3.1/../../../../pic32c/lib/thumb/v7-a+simd/hard\libc-musl.a(strchr.o)
 .debug_str     0x00002c18        0x0 c:/program files/microchip/xc32/v4.00/bin/bin/../../lib/gcc/pic32c/8.3.1/../../../../pic32c/lib/thumb/v7-a+simd/hard\libc-musl.a(strchrnul.o)
 .debug_str     0x00002c18        0x9 c:/program files/microchip/xc32/v4.00/bin/bin/../../lib/gcc/pic32c/8.3.1/../../../../pic32c/lib/thumb/v7-a+simd/hard\libc-musl.a(strcpy.o)
 .debug_str     0x00002c21        0x0 c:/program files/microchip/xc32/v4.00/bin/bin/../../lib/gcc/pic32c/8.3.1/../../../../pic32c/lib/thumb/v7-a+simd/hard\libc-musl.a(strncmp.o)
 .debug_str     0x00002c21        0x0 c:/program files/microchip/xc32/v4.00/bin/bin/../../lib/gcc/pic32c/8.3.1/../../../../pic32c/lib/thumb/v7-a+simd/hard\libc-musl.a(strtok.o)
 .debug_str     0x00002c21       0x1f c:/program files/microchip/xc32/v4.00/bin/bin/../../lib/gcc/pic32c/8.3.1/../../../../pic32c/lib/thumb/v7-a+simd/hard\libc-musl.a(__tz.o)
 .debug_str     0x00002c40       0x29 c:/program files/microchip/xc32/v4.00/bin/bin/../../lib/gcc/pic32c/8.3.1/../../../../pic32c/lib/thumb/v7-a+simd/hard\libc-musl.a(mktime.o)
 .debug_str     0x00002c69        0x0 c:/program files/microchip/xc32/v4.00/bin/bin/../../lib/gcc/pic32c/8.3.1/../../../../pic32c/lib/thumb/v7-a+simd/hard\libc-musl.a(__environ.o)
 .debug_str     0x00002c69        0x0 c:/program files/microchip/xc32/v4.00/bin/bin/../../lib/gcc/pic32c/8.3.1/../../../../pic32c/lib/thumb/v7-a+simd/hard\libc-musl.a(__errno_location.o)
 .debug_str     0x00002c69       0x1e c:/program files/microchip/xc32/v4.00/bin/bin/../../lib/gcc/pic32c/8.3.1/../../../../pic32c/lib/thumb/v7-a+simd/hard\libc-musl.a(vfprintf.o)
 .debug_str     0x00002c87        0x0 c:/program files/microchip/xc32/v4.00/bin/bin/../../lib/gcc/pic32c/8.3.1/../../../../pic32c/lib/thumb/v7-a+simd/hard\libc-musl.a(stpcpy.o)
 .debug_str     0x00002c87        0xc c:/program files/microchip/xc32/v4.00/bin/bin/../../lib/gcc/pic32c/8.3.1/../../../../pic32c/lib/thumb/v7-a+simd/hard\libc-musl.a(strcspn.o)
 .debug_str     0x00002c93        0x0 c:/program files/microchip/xc32/v4.00/bin/bin/../../lib/gcc/pic32c/8.3.1/../../../../pic32c/lib/thumb/v7-a+simd/hard\libc-musl.a(strspn.o)
 .debug_str     0x00002c93        0x0 c:/program files/microchip/xc32/v4.00/bin/bin/../../lib/gcc/pic32c/8.3.1/../../../../pic32c/lib/thumb/v7-a+simd/hard\libc-musl.a(__month_to_secs.o)
 .debug_str     0x00002c93        0x0 c:/program files/microchip/xc32/v4.00/bin/bin/../../lib/gcc/pic32c/8.3.1/../../../../pic32c/lib/thumb/v7-a+simd/hard\libc-musl.a(__secs_to_tm.o)
 .debug_str     0x00002c93       0x1f c:/program files/microchip/xc32/v4.00/bin/bin/../../lib/gcc/pic32c/8.3.1/../../../../pic32c/lib/thumb/v7-a+simd/hard\libc-musl.a(__tm_to_secs.o)
 .debug_str     0x00002cb2        0x0 c:/program files/microchip/xc32/v4.00/bin/bin/../../lib/gcc/pic32c/8.3.1/../../../../pic32c/lib/thumb/v7-a+simd/hard\libc-musl.a(__year_to_secs.o)
 .debug_str     0x00002cb2       0x20 c:/program files/microchip/xc32/v4.00/bin/bin/../../lib/gcc/pic32c/8.3.1/../../../../pic32c/lib/thumb/v7-a+simd/hard\libc-musl.a(__printf_core.o)
 .debug_str     0x00002cd2        0x0 c:/program files/microchip/xc32/v4.00/bin/bin/../../lib/gcc/pic32c/8.3.1/../../../../pic32c/lib/thumb/v7-a+simd/hard\libc-musl.a(tolower.o)
 .debug_str     0x00002cd2        0x0 c:/program files/microchip/xc32/v4.00/bin/bin/../../lib/gcc/pic32c/8.3.1/../../../../pic32c/lib/thumb/v7-a+simd/hard\libc-musl.a(__fmt_a.o)
 .debug_str     0x00002cd2        0x0 c:/program files/microchip/xc32/v4.00/bin/bin/../../lib/gcc/pic32c/8.3.1/../../../../pic32c/lib/thumb/v7-a+simd/hard\libc-musl.a(__fmt_d.o)
 .debug_str     0x00002cd2        0x0 c:/program files/microchip/xc32/v4.00/bin/bin/../../lib/gcc/pic32c/8.3.1/../../../../pic32c/lib/thumb/v7-a+simd/hard\libc-musl.a(__fmt_fp.o)
 .debug_str     0x00002cd2        0x0 c:/program files/microchip/xc32/v4.00/bin/bin/../../lib/gcc/pic32c/8.3.1/../../../../pic32c/lib/thumb/v7-a+simd/hard\libc-musl.a(__fmt_o.o)
 .debug_str     0x00002cd2        0x0 c:/program files/microchip/xc32/v4.00/bin/bin/../../lib/gcc/pic32c/8.3.1/../../../../pic32c/lib/thumb/v7-a+simd/hard\libc-musl.a(__fmt_s.o)
 .debug_str     0x00002cd2        0x6 c:/program files/microchip/xc32/v4.00/bin/bin/../../lib/gcc/pic32c/8.3.1/../../../../pic32c/lib/thumb/v7-a+simd/hard\libc-musl.a(__fmt_u.o)
 .debug_str     0x00002cd8        0x0 c:/program files/microchip/xc32/v4.00/bin/bin/../../lib/gcc/pic32c/8.3.1/../../../../pic32c/lib/thumb/v7-a+simd/hard\libc-musl.a(__fmt_x.o)
 .debug_str     0x00002cd8        0x0 c:/program files/microchip/xc32/v4.00/bin/bin/../../lib/gcc/pic32c/8.3.1/../../../../pic32c/lib/thumb/v7-a+simd/hard\libc-musl.a(__pop_float.o)
 .debug_str     0x00002cd8        0x0 c:/program files/microchip/xc32/v4.00/bin/bin/../../lib/gcc/pic32c/8.3.1/../../../../pic32c/lib/thumb/v7-a+simd/hard\libc-musl.a(__pop_int.o)
 .debug_str     0x00002cd8        0x0 c:/program files/microchip/xc32/v4.00/bin/bin/../../lib/gcc/pic32c/8.3.1/../../../../pic32c/lib/thumb/v7-a+simd/hard\libc-musl.a(__pop_ptr.o)
 .debug_str     0x00002cd8        0x0 c:/program files/microchip/xc32/v4.00/bin/bin/../../lib/gcc/pic32c/8.3.1/../../../../pic32c/lib/thumb/v7-a+simd/hard\libc-musl.a(toupper.o)
 .debug_str     0x00002cd8        0x0 c:/program files/microchip/xc32/v4.00/bin/bin/../../lib/gcc/pic32c/8.3.1/../../../../pic32c/lib/thumb/v7-a+simd/hard\libm-musl.a(floor.o)
 .debug_str     0x00002cd8        0x0 c:/program files/microchip/xc32/v4.00/bin/bin/../../lib/gcc/pic32c/8.3.1/../../../../pic32c/lib/thumb/v7-a+simd/hard\libm-musl.a(fma.o)
 .debug_str     0x00002cd8        0x0 c:/program files/microchip/xc32/v4.00/bin/bin/../../lib/gcc/pic32c/8.3.1/../../../../pic32c/lib/thumb/v7-a+simd/hard\libm-musl.a(scalbn.o)
 .debug_str     0x00002cd8        0x0 c:/program files/microchip/xc32/v4.00/bin/bin/../../lib/gcc/pic32c/8.3.1/../../../../pic32c/lib/thumb/v7-a+simd/hard\libpic32c.a(sbrk.o)
 .debug_str     0x00002cd8       0xf4 c:/program files/microchip/xc32/v4.00/bin/bin/../../lib/gcc/pic32c/8.3.1/thumb/v7-a+simd/hard\libgcc.a(_arm_addsubdf3.o)
 .debug_str     0x00002dcc       0xef c:/program files/microchip/xc32/v4.00/bin/bin/../../lib/gcc/pic32c/8.3.1/thumb/v7-a+simd/hard\libgcc.a(_aeabi_ldivmod.o)

.debug_frame    0x00000000     0x4648
 .debug_frame   0x00000000      0x254 build/sam_a5d27_som1_winc1500/production/_ext/1971804060/drv_spi.o
 .debug_frame   0x00000254       0x40 build/sam_a5d27_som1_winc1500/production/_ext/1615170836/wdrv_winc_eint.o
 .debug_frame   0x00000294       0x50 build/sam_a5d27_som1_winc1500/production/_ext/1615170836/wdrv_winc_gpio.o
 .debug_frame   0x000002e4       0x9c build/sam_a5d27_som1_winc1500/production/_ext/467732753/wdrv_winc_spi.o
 .debug_frame   0x00000380       0x40 build/sam_a5d27_som1_winc1500/production/_ext/461596885/nm_common.o
 .debug_frame   0x000003c0      0x150 build/sam_a5d27_som1_winc1500/production/_ext/492885778/m2m_hif.o
 .debug_frame   0x00000510       0xf0 build/sam_a5d27_som1_winc1500/production/_ext/492885778/nmbus.o
 .debug_frame   0x00000600      0x100 build/sam_a5d27_som1_winc1500/production/_ext/492885778/nmdrv.o
 .debug_frame   0x00000700      0x938 build/sam_a5d27_som1_winc1500/production/_ext/492885778/m2m_wifi.o
 .debug_frame   0x00001038      0x158 build/sam_a5d27_som1_winc1500/production/_ext/492885778/m2m_ssl.o
 .debug_frame   0x00001190      0x2e0 build/sam_a5d27_som1_winc1500/production/_ext/492885778/nmasic.o
 .debug_frame   0x00001470      0x1e4 build/sam_a5d27_som1_winc1500/production/_ext/492885778/nmspi.o
 .debug_frame   0x00001654      0x21c build/sam_a5d27_som1_winc1500/production/_ext/492885778/m2m_ota.o
 .debug_frame   0x00001870       0x38 build/sam_a5d27_som1_winc1500/production/_ext/919363165/inet_addr.o
 .debug_frame   0x000018a8       0x68 build/sam_a5d27_som1_winc1500/production/_ext/919363165/inet_ntop.o
 .debug_frame   0x00001910      0x31c build/sam_a5d27_som1_winc1500/production/_ext/919363165/socket.o
 .debug_frame   0x00001c2c       0x58 build/sam_a5d27_som1_winc1500/production/_ext/2123267981/flexible_flash.o
 .debug_frame   0x00001c84      0x15c build/sam_a5d27_som1_winc1500/production/_ext/2123267981/spi_flash.o
 .debug_frame   0x00001de0       0x2c build/sam_a5d27_som1_winc1500/production/_ext/141899762/wdrv_winc_osal.o
 .debug_frame   0x00001e0c       0xb4 build/sam_a5d27_som1_winc1500/production/_ext/1528743604/wdrv_winc_sta.o
 .debug_frame   0x00001ec0       0xdc build/sam_a5d27_som1_winc1500/production/_ext/1528743604/wdrv_winc_authctx.o
 .debug_frame   0x00001f9c       0xf4 build/sam_a5d27_som1_winc1500/production/_ext/1528743604/wdrv_winc_host_file.o
 .debug_frame   0x00002090       0x78 build/sam_a5d27_som1_winc1500/production/_ext/1528743604/wdrv_winc_softap.o
 .debug_frame   0x00002108       0xe8 build/sam_a5d27_som1_winc1500/production/_ext/1528743604/wdrv_winc_systime.o
 .debug_frame   0x000021f0      0x230 build/sam_a5d27_som1_winc1500/production/_ext/1528743604/wdrv_winc_socket.o
 .debug_frame   0x00002420       0xc4 build/sam_a5d27_som1_winc1500/production/_ext/1528743604/wdrv_winc_bssctx.o
 .debug_frame   0x000024e4      0x314 build/sam_a5d27_som1_winc1500/production/_ext/1528743604/wdrv_winc.o
 .debug_frame   0x000027f8       0x6c build/sam_a5d27_som1_winc1500/production/_ext/192068182/plib_aic.o
 .debug_frame   0x00002864       0x20 build/sam_a5d27_som1_winc1500/production/_ext/192066159/plib_clk.o
 .debug_frame   0x00002884       0xe8 build/sam_a5d27_som1_winc1500/production/_ext/1834821283/plib_flexcom4_spi_master.o
 .debug_frame   0x0000296c       0x20 build/sam_a5d27_som1_winc1500/production/_ext/669990670/plib_matrix.o
 .debug_frame   0x0000298c       0x5c build/sam_a5d27_som1_winc1500/production/_ext/192056508/plib_mmu.o
 .debug_frame   0x000029e8      0x124 build/sam_a5d27_som1_winc1500/production/_ext/192053755/plib_pio.o
 .debug_frame   0x00002b0c       0xd0 build/sam_a5d27_som1_winc1500/production/_ext/6195168/plib_tc0.o
 .debug_frame   0x00002bdc      0x1cc build/sam_a5d27_som1_winc1500/production/_ext/1658557633/plib_uart1.o
 .debug_frame   0x00002da8      0x11c build/sam_a5d27_som1_winc1500/production/_ext/127175570/plib_xdmac0.o
 .debug_frame   0x00002ec4      0x1c0 build/sam_a5d27_som1_winc1500/production/_ext/1238961202/sys_console.o
 .debug_frame   0x00003084       0xf8 build/sam_a5d27_som1_winc1500/production/_ext/1238961202/sys_console_uart.o
 .debug_frame   0x0000317c       0x70 build/sam_a5d27_som1_winc1500/production/_ext/931592374/sys_debug.o
 .debug_frame   0x000031ec       0x48 build/sam_a5d27_som1_winc1500/production/_ext/737894/sys_dma.o
 .debug_frame   0x00003234      0x118 build/sam_a5d27_som1_winc1500/production/_ext/1629436774/sys_int.o
 .debug_frame   0x0000334c      0x3fc build/sam_a5d27_som1_winc1500/production/_ext/668867648/sys_time.o
 .debug_frame   0x00003748       0x40 build/sam_a5d27_som1_winc1500/production/_ext/1420715725/interrupts.o
 .debug_frame   0x00003788       0x50 build/sam_a5d27_som1_winc1500/production/_ext/1420715725/fault_handlers.o
 .debug_frame   0x000037d8       0x28 build/sam_a5d27_som1_winc1500/production/_ext/1420715725/tasks.o
 .debug_frame   0x00003800       0x28 build/sam_a5d27_som1_winc1500/production/_ext/1420715725/initialization.o
 .debug_frame   0x00003828       0x28 build/sam_a5d27_som1_winc1500/production/_ext/1360937237/main.o
 .debug_frame   0x00003850       0x38 build/sam_a5d27_som1_winc1500/production/_ext/1360937237/app.o
 .debug_frame   0x00003888       0xf8 build/sam_a5d27_som1_winc1500/production/_ext/1360937237/example.o
 .debug_frame   0x00003980       0x20 c:/program files/microchip/xc32/v4.00/bin/bin/../../lib/gcc/pic32c/8.3.1/thumb/v7-a+simd/hard\libgcc.a(_udivsi3.o)
 .debug_frame   0x000039a0       0x20 c:/program files/microchip/xc32/v4.00/bin/bin/../../lib/gcc/pic32c/8.3.1/thumb/v7-a+simd/hard\libgcc.a(_divsi3.o)
 .debug_frame   0x000039c0       0x2c c:/program files/microchip/xc32/v4.00/bin/bin/../../lib/gcc/pic32c/8.3.1/thumb/v7-a+simd/hard\libgcc.a(_aeabi_uldivmod.o)
 .debug_frame   0x000039ec       0x40 c:/program files/microchip/xc32/v4.00/bin/bin/../../lib/gcc/pic32c/8.3.1/thumb/v7-a+simd/hard\libgcc.a(_udivmoddi4.o)
 .debug_frame   0x00003a2c       0x3c c:/program files/microchip/xc32/v4.00/bin/bin/../../lib/gcc/pic32c/8.3.1/../../../../pic32c/lib/thumb/v7-a+simd/hard\libc-musl.a(__libc_start_main.o)
 .debug_frame   0x00003a68      0x154 c:/program files/microchip/xc32/v4.00/bin/bin/../../lib/gcc/pic32c/8.3.1/../../../../pic32c/lib/thumb/v7-a+simd/hard\libc-musl.a(malloc.o)
 .debug_frame   0x00003bbc       0x28 c:/program files/microchip/xc32/v4.00/bin/bin/../../lib/gcc/pic32c/8.3.1/../../../../pic32c/lib/thumb/v7-a+simd/hard\libc-musl.a(expand_heap.o)
 .debug_frame   0x00003be4       0x38 c:/program files/microchip/xc32/v4.00/bin/bin/../../lib/gcc/pic32c/8.3.1/../../../../pic32c/lib/thumb/v7-a+simd/hard\libc-musl.a(vsnprintf.o)
 .debug_frame   0x00003c1c       0x28 c:/program files/microchip/xc32/v4.00/bin/bin/../../lib/gcc/pic32c/8.3.1/../../../../pic32c/lib/thumb/v7-a+simd/hard\libc-musl.a(atoi.o)
 .debug_frame   0x00003c44       0x28 c:/program files/microchip/xc32/v4.00/bin/bin/../../lib/gcc/pic32c/8.3.1/../../../../pic32c/lib/thumb/v7-a+simd/hard\libc-musl.a(memcpy.o)
 .debug_frame   0x00003c6c       0x20 c:/program files/microchip/xc32/v4.00/bin/bin/../../lib/gcc/pic32c/8.3.1/../../../../pic32c/lib/thumb/v7-a+simd/hard\libc-musl.a(memset.o)
 .debug_frame   0x00003c8c       0x20 c:/program files/microchip/xc32/v4.00/bin/bin/../../lib/gcc/pic32c/8.3.1/../../../../pic32c/lib/thumb/v7-a+simd/hard\libc-musl.a(strlen.o)
 .debug_frame   0x00003cac       0x28 c:/program files/microchip/xc32/v4.00/bin/bin/../../lib/gcc/pic32c/8.3.1/../../../../pic32c/lib/thumb/v7-a+simd/hard\libc-musl.a(strchr.o)
 .debug_frame   0x00003cd4       0x30 c:/program files/microchip/xc32/v4.00/bin/bin/../../lib/gcc/pic32c/8.3.1/../../../../pic32c/lib/thumb/v7-a+simd/hard\libc-musl.a(strchrnul.o)
 .debug_frame   0x00003d04       0x28 c:/program files/microchip/xc32/v4.00/bin/bin/../../lib/gcc/pic32c/8.3.1/../../../../pic32c/lib/thumb/v7-a+simd/hard\libc-musl.a(strcpy.o)
 .debug_frame   0x00003d2c       0x28 c:/program files/microchip/xc32/v4.00/bin/bin/../../lib/gcc/pic32c/8.3.1/../../../../pic32c/lib/thumb/v7-a+simd/hard\libc-musl.a(strncmp.o)
 .debug_frame   0x00003d54       0x2c c:/program files/microchip/xc32/v4.00/bin/bin/../../lib/gcc/pic32c/8.3.1/../../../../pic32c/lib/thumb/v7-a+simd/hard\libc-musl.a(strtok.o)
 .debug_frame   0x00003d80      0x118 c:/program files/microchip/xc32/v4.00/bin/bin/../../lib/gcc/pic32c/8.3.1/../../../../pic32c/lib/thumb/v7-a+simd/hard\libc-musl.a(__tz.o)
 .debug_frame   0x00003e98       0x40 c:/program files/microchip/xc32/v4.00/bin/bin/../../lib/gcc/pic32c/8.3.1/../../../../pic32c/lib/thumb/v7-a+simd/hard\libc-musl.a(mktime.o)
 .debug_frame   0x00003ed8       0x3c c:/program files/microchip/xc32/v4.00/bin/bin/../../lib/gcc/pic32c/8.3.1/../../../../pic32c/lib/thumb/v7-a+simd/hard\libc-musl.a(vfprintf.o)
 .debug_frame   0x00003f14       0x20 c:/program files/microchip/xc32/v4.00/bin/bin/../../lib/gcc/pic32c/8.3.1/../../../../pic32c/lib/thumb/v7-a+simd/hard\libc-musl.a(stpcpy.o)
 .debug_frame   0x00003f34       0x34 c:/program files/microchip/xc32/v4.00/bin/bin/../../lib/gcc/pic32c/8.3.1/../../../../pic32c/lib/thumb/v7-a+simd/hard\libc-musl.a(strcspn.o)
 .debug_frame   0x00003f68       0x34 c:/program files/microchip/xc32/v4.00/bin/bin/../../lib/gcc/pic32c/8.3.1/../../../../pic32c/lib/thumb/v7-a+simd/hard\libc-musl.a(strspn.o)
 .debug_frame   0x00003f9c       0x20 c:/program files/microchip/xc32/v4.00/bin/bin/../../lib/gcc/pic32c/8.3.1/../../../../pic32c/lib/thumb/v7-a+simd/hard\libc-musl.a(__month_to_secs.o)
 .debug_frame   0x00003fbc       0x38 c:/program files/microchip/xc32/v4.00/bin/bin/../../lib/gcc/pic32c/8.3.1/../../../../pic32c/lib/thumb/v7-a+simd/hard\libc-musl.a(__secs_to_tm.o)
 .debug_frame   0x00003ff4       0x30 c:/program files/microchip/xc32/v4.00/bin/bin/../../lib/gcc/pic32c/8.3.1/../../../../pic32c/lib/thumb/v7-a+simd/hard\libc-musl.a(__tm_to_secs.o)
 .debug_frame   0x00004024       0x38 c:/program files/microchip/xc32/v4.00/bin/bin/../../lib/gcc/pic32c/8.3.1/../../../../pic32c/lib/thumb/v7-a+simd/hard\libc-musl.a(__year_to_secs.o)
 .debug_frame   0x0000405c       0xd8 c:/program files/microchip/xc32/v4.00/bin/bin/../../lib/gcc/pic32c/8.3.1/../../../../pic32c/lib/thumb/v7-a+simd/hard\libc-musl.a(__printf_core.o)
 .debug_frame   0x00004134       0x30 c:/program files/microchip/xc32/v4.00/bin/bin/../../lib/gcc/pic32c/8.3.1/../../../../pic32c/lib/thumb/v7-a+simd/hard\libc-musl.a(tolower.o)
 .debug_frame   0x00004164       0x84 c:/program files/microchip/xc32/v4.00/bin/bin/../../lib/gcc/pic32c/8.3.1/../../../../pic32c/lib/thumb/v7-a+simd/hard\libc-musl.a(__fmt_a.o)
 .debug_frame   0x000041e8       0x38 c:/program files/microchip/xc32/v4.00/bin/bin/../../lib/gcc/pic32c/8.3.1/../../../../pic32c/lib/thumb/v7-a+simd/hard\libc-musl.a(__fmt_d.o)
 .debug_frame   0x00004220       0x84 c:/program files/microchip/xc32/v4.00/bin/bin/../../lib/gcc/pic32c/8.3.1/../../../../pic32c/lib/thumb/v7-a+simd/hard\libc-musl.a(__fmt_fp.o)
 .debug_frame   0x000042a4       0x34 c:/program files/microchip/xc32/v4.00/bin/bin/../../lib/gcc/pic32c/8.3.1/../../../../pic32c/lib/thumb/v7-a+simd/hard\libc-musl.a(__fmt_o.o)
 .debug_frame   0x000042d8       0x34 c:/program files/microchip/xc32/v4.00/bin/bin/../../lib/gcc/pic32c/8.3.1/../../../../pic32c/lib/thumb/v7-a+simd/hard\libc-musl.a(__fmt_s.o)
 .debug_frame   0x0000430c       0x6c c:/program files/microchip/xc32/v4.00/bin/bin/../../lib/gcc/pic32c/8.3.1/../../../../pic32c/lib/thumb/v7-a+simd/hard\libc-musl.a(__fmt_u.o)
 .debug_frame   0x00004378       0x40 c:/program files/microchip/xc32/v4.00/bin/bin/../../lib/gcc/pic32c/8.3.1/../../../../pic32c/lib/thumb/v7-a+simd/hard\libc-musl.a(__fmt_x.o)
 .debug_frame   0x000043b8       0x20 c:/program files/microchip/xc32/v4.00/bin/bin/../../lib/gcc/pic32c/8.3.1/../../../../pic32c/lib/thumb/v7-a+simd/hard\libc-musl.a(__pop_float.o)
 .debug_frame   0x000043d8       0x2c c:/program files/microchip/xc32/v4.00/bin/bin/../../lib/gcc/pic32c/8.3.1/../../../../pic32c/lib/thumb/v7-a+simd/hard\libc-musl.a(__pop_int.o)
 .debug_frame   0x00004404       0x28 c:/program files/microchip/xc32/v4.00/bin/bin/../../lib/gcc/pic32c/8.3.1/../../../../pic32c/lib/thumb/v7-a+simd/hard\libc-musl.a(__pop_ptr.o)
 .debug_frame   0x0000442c       0x30 c:/program files/microchip/xc32/v4.00/bin/bin/../../lib/gcc/pic32c/8.3.1/../../../../pic32c/lib/thumb/v7-a+simd/hard\libc-musl.a(toupper.o)
 .debug_frame   0x0000445c       0x30 c:/program files/microchip/xc32/v4.00/bin/bin/../../lib/gcc/pic32c/8.3.1/../../../../pic32c/lib/thumb/v7-a+simd/hard\libm-musl.a(floor.o)
 .debug_frame   0x0000448c       0x8c c:/program files/microchip/xc32/v4.00/bin/bin/../../lib/gcc/pic32c/8.3.1/../../../../pic32c/lib/thumb/v7-a+simd/hard\libm-musl.a(fma.o)
 .debug_frame   0x00004518       0x20 c:/program files/microchip/xc32/v4.00/bin/bin/../../lib/gcc/pic32c/8.3.1/../../../../pic32c/lib/thumb/v7-a+simd/hard\libm-musl.a(scalbn.o)
 .debug_frame   0x00004538       0x20 c:/program files/microchip/xc32/v4.00/bin/bin/../../lib/gcc/pic32c/8.3.1/../../../../pic32c/lib/thumb/v7-a+simd/hard\libpic32c.a(sbrk.o)
 .debug_frame   0x00004558       0xac c:/program files/microchip/xc32/v4.00/bin/bin/../../lib/gcc/pic32c/8.3.1/thumb/v7-a+simd/hard\libgcc.a(_arm_addsubdf3.o)
 .debug_frame   0x00004604       0x44 c:/program files/microchip/xc32/v4.00/bin/bin/../../lib/gcc/pic32c/8.3.1/thumb/v7-a+simd/hard\libgcc.a(_aeabi_ldivmod.o)

.note.GNU-stack
                0x00000000        0x0
 .note.GNU-stack
                0x00000000        0x0 c:/program files/microchip/xc32/v4.00/bin/bin/../../lib/gcc/pic32c/8.3.1/../../../../pic32c/lib/thumb/v7-a+simd/hard\libc-musl.a(__libc_start_main.o)
 .note.GNU-stack
                0x00000000        0x0 c:/program files/microchip/xc32/v4.00/bin/bin/../../lib/gcc/pic32c/8.3.1/../../../../pic32c/lib/thumb/v7-a+simd/hard\libc-musl.a(libc.o)
 .note.GNU-stack
                0x00000000        0x0 c:/program files/microchip/xc32/v4.00/bin/bin/../../lib/gcc/pic32c/8.3.1/../../../../pic32c/lib/thumb/v7-a+simd/hard\libc-musl.a(malloc.o)
 .note.GNU-stack
                0x00000000        0x0 c:/program files/microchip/xc32/v4.00/bin/bin/../../lib/gcc/pic32c/8.3.1/../../../../pic32c/lib/thumb/v7-a+simd/hard\libc-musl.a(expand_heap.o)
 .note.GNU-stack
                0x00000000        0x0 c:/program files/microchip/xc32/v4.00/bin/bin/../../lib/gcc/pic32c/8.3.1/../../../../pic32c/lib/thumb/v7-a+simd/hard\libc-musl.a(vsnprintf.o)
 .note.GNU-stack
                0x00000000        0x0 c:/program files/microchip/xc32/v4.00/bin/bin/../../lib/gcc/pic32c/8.3.1/../../../../pic32c/lib/thumb/v7-a+simd/hard\libc-musl.a(atoi.o)
 .note.GNU-stack
                0x00000000        0x0 c:/program files/microchip/xc32/v4.00/bin/bin/../../lib/gcc/pic32c/8.3.1/../../../../pic32c/lib/thumb/v7-a+simd/hard\libc-musl.a(memcpy.o)
 .note.GNU-stack
                0x00000000        0x0 c:/program files/microchip/xc32/v4.00/bin/bin/../../lib/gcc/pic32c/8.3.1/../../../../pic32c/lib/thumb/v7-a+simd/hard\libc-musl.a(memset.o)
 .note.GNU-stack
                0x00000000        0x0 c:/program files/microchip/xc32/v4.00/bin/bin/../../lib/gcc/pic32c/8.3.1/../../../../pic32c/lib/thumb/v7-a+simd/hard\libc-musl.a(strlen.o)
 .note.GNU-stack
                0x00000000        0x0 c:/program files/microchip/xc32/v4.00/bin/bin/../../lib/gcc/pic32c/8.3.1/../../../../pic32c/lib/thumb/v7-a+simd/hard\libc-musl.a(strchr.o)
 .note.GNU-stack
                0x00000000        0x0 c:/program files/microchip/xc32/v4.00/bin/bin/../../lib/gcc/pic32c/8.3.1/../../../../pic32c/lib/thumb/v7-a+simd/hard\libc-musl.a(strchrnul.o)
 .note.GNU-stack
                0x00000000        0x0 c:/program files/microchip/xc32/v4.00/bin/bin/../../lib/gcc/pic32c/8.3.1/../../../../pic32c/lib/thumb/v7-a+simd/hard\libc-musl.a(strcpy.o)
 .note.GNU-stack
                0x00000000        0x0 c:/program files/microchip/xc32/v4.00/bin/bin/../../lib/gcc/pic32c/8.3.1/../../../../pic32c/lib/thumb/v7-a+simd/hard\libc-musl.a(strncmp.o)
 .note.GNU-stack
                0x00000000        0x0 c:/program files/microchip/xc32/v4.00/bin/bin/../../lib/gcc/pic32c/8.3.1/../../../../pic32c/lib/thumb/v7-a+simd/hard\libc-musl.a(strtok.o)
 .note.GNU-stack
                0x00000000        0x0 c:/program files/microchip/xc32/v4.00/bin/bin/../../lib/gcc/pic32c/8.3.1/../../../../pic32c/lib/thumb/v7-a+simd/hard\libc-musl.a(__tz.o)
 .note.GNU-stack
                0x00000000        0x0 c:/program files/microchip/xc32/v4.00/bin/bin/../../lib/gcc/pic32c/8.3.1/../../../../pic32c/lib/thumb/v7-a+simd/hard\libc-musl.a(mktime.o)
 .note.GNU-stack
                0x00000000        0x0 c:/program files/microchip/xc32/v4.00/bin/bin/../../lib/gcc/pic32c/8.3.1/../../../../pic32c/lib/thumb/v7-a+simd/hard\libc-musl.a(__environ.o)
 .note.GNU-stack
                0x00000000        0x0 c:/program files/microchip/xc32/v4.00/bin/bin/../../lib/gcc/pic32c/8.3.1/../../../../pic32c/lib/thumb/v7-a+simd/hard\libc-musl.a(__errno_location.o)
 .note.GNU-stack
                0x00000000        0x0 c:/program files/microchip/xc32/v4.00/bin/bin/../../lib/gcc/pic32c/8.3.1/../../../../pic32c/lib/thumb/v7-a+simd/hard\libc-musl.a(vfprintf.o)
 .note.GNU-stack
                0x00000000        0x0 c:/program files/microchip/xc32/v4.00/bin/bin/../../lib/gcc/pic32c/8.3.1/../../../../pic32c/lib/thumb/v7-a+simd/hard\libc-musl.a(stpcpy.o)
 .note.GNU-stack
                0x00000000        0x0 c:/program files/microchip/xc32/v4.00/bin/bin/../../lib/gcc/pic32c/8.3.1/../../../../pic32c/lib/thumb/v7-a+simd/hard\libc-musl.a(strcspn.o)
 .note.GNU-stack
                0x00000000        0x0 c:/program files/microchip/xc32/v4.00/bin/bin/../../lib/gcc/pic32c/8.3.1/../../../../pic32c/lib/thumb/v7-a+simd/hard\libc-musl.a(strspn.o)
 .note.GNU-stack
                0x00000000        0x0 c:/program files/microchip/xc32/v4.00/bin/bin/../../lib/gcc/pic32c/8.3.1/../../../../pic32c/lib/thumb/v7-a+simd/hard\libc-musl.a(__month_to_secs.o)
 .note.GNU-stack
                0x00000000        0x0 c:/program files/microchip/xc32/v4.00/bin/bin/../../lib/gcc/pic32c/8.3.1/../../../../pic32c/lib/thumb/v7-a+simd/hard\libc-musl.a(__secs_to_tm.o)
 .note.GNU-stack
                0x00000000        0x0 c:/program files/microchip/xc32/v4.00/bin/bin/../../lib/gcc/pic32c/8.3.1/../../../../pic32c/lib/thumb/v7-a+simd/hard\libc-musl.a(__tm_to_secs.o)
 .note.GNU-stack
                0x00000000        0x0 c:/program files/microchip/xc32/v4.00/bin/bin/../../lib/gcc/pic32c/8.3.1/../../../../pic32c/lib/thumb/v7-a+simd/hard\libc-musl.a(__year_to_secs.o)
 .note.GNU-stack
                0x00000000        0x0 c:/program files/microchip/xc32/v4.00/bin/bin/../../lib/gcc/pic32c/8.3.1/../../../../pic32c/lib/thumb/v7-a+simd/hard\libc-musl.a(__printf_core.o)
 .note.GNU-stack
                0x00000000        0x0 c:/program files/microchip/xc32/v4.00/bin/bin/../../lib/gcc/pic32c/8.3.1/../../../../pic32c/lib/thumb/v7-a+simd/hard\libc-musl.a(tolower.o)
 .note.GNU-stack
                0x00000000        0x0 c:/program files/microchip/xc32/v4.00/bin/bin/../../lib/gcc/pic32c/8.3.1/../../../../pic32c/lib/thumb/v7-a+simd/hard\libc-musl.a(__fmt_a.o)
 .note.GNU-stack
                0x00000000        0x0 c:/program files/microchip/xc32/v4.00/bin/bin/../../lib/gcc/pic32c/8.3.1/../../../../pic32c/lib/thumb/v7-a+simd/hard\libc-musl.a(__fmt_d.o)
 .note.GNU-stack
                0x00000000        0x0 c:/program files/microchip/xc32/v4.00/bin/bin/../../lib/gcc/pic32c/8.3.1/../../../../pic32c/lib/thumb/v7-a+simd/hard\libc-musl.a(__fmt_fp.o)
 .note.GNU-stack
                0x00000000        0x0 c:/program files/microchip/xc32/v4.00/bin/bin/../../lib/gcc/pic32c/8.3.1/../../../../pic32c/lib/thumb/v7-a+simd/hard\libc-musl.a(__fmt_o.o)
 .note.GNU-stack
                0x00000000        0x0 c:/program files/microchip/xc32/v4.00/bin/bin/../../lib/gcc/pic32c/8.3.1/../../../../pic32c/lib/thumb/v7-a+simd/hard\libc-musl.a(__fmt_s.o)
 .note.GNU-stack
                0x00000000        0x0 c:/program files/microchip/xc32/v4.00/bin/bin/../../lib/gcc/pic32c/8.3.1/../../../../pic32c/lib/thumb/v7-a+simd/hard\libc-musl.a(__fmt_u.o)
 .note.GNU-stack
                0x00000000        0x0 c:/program files/microchip/xc32/v4.00/bin/bin/../../lib/gcc/pic32c/8.3.1/../../../../pic32c/lib/thumb/v7-a+simd/hard\libc-musl.a(__fmt_x.o)
 .note.GNU-stack
                0x00000000        0x0 c:/program files/microchip/xc32/v4.00/bin/bin/../../lib/gcc/pic32c/8.3.1/../../../../pic32c/lib/thumb/v7-a+simd/hard\libc-musl.a(__pop_float.o)
 .note.GNU-stack
                0x00000000        0x0 c:/program files/microchip/xc32/v4.00/bin/bin/../../lib/gcc/pic32c/8.3.1/../../../../pic32c/lib/thumb/v7-a+simd/hard\libc-musl.a(__pop_int.o)
 .note.GNU-stack
                0x00000000        0x0 c:/program files/microchip/xc32/v4.00/bin/bin/../../lib/gcc/pic32c/8.3.1/../../../../pic32c/lib/thumb/v7-a+simd/hard\libc-musl.a(__pop_ptr.o)
 .note.GNU-stack
                0x00000000        0x0 c:/program files/microchip/xc32/v4.00/bin/bin/../../lib/gcc/pic32c/8.3.1/../../../../pic32c/lib/thumb/v7-a+simd/hard\libc-musl.a(toupper.o)
 .note.GNU-stack
                0x00000000        0x0 c:/program files/microchip/xc32/v4.00/bin/bin/../../lib/gcc/pic32c/8.3.1/../../../../pic32c/lib/thumb/v7-a+simd/hard\libm-musl.a(floor.o)
 .note.GNU-stack
                0x00000000        0x0 c:/program files/microchip/xc32/v4.00/bin/bin/../../lib/gcc/pic32c/8.3.1/../../../../pic32c/lib/thumb/v7-a+simd/hard\libm-musl.a(fma.o)
 .note.GNU-stack
                0x00000000        0x0 c:/program files/microchip/xc32/v4.00/bin/bin/../../lib/gcc/pic32c/8.3.1/../../../../pic32c/lib/thumb/v7-a+simd/hard\libm-musl.a(scalbn.o)

__xc_reference_data
                0x00000000       0x44
 __xc_reference_data
                0x00000000        0x4 c:/program files/microchip/xc32/v4.00/bin/bin/../../lib/gcc/pic32c/8.3.1/../../../../pic32c/lib/thumb/v7-a+simd/hard\libc-musl.a(vfprintf.o)
                0x00000000                __vfprintf_needs_fmt
 __xc_reference_data
                0x00000004       0x40 c:/program files/microchip/xc32/v4.00/bin/bin/../../lib/gcc/pic32c/8.3.1/../../../../pic32c/lib/thumb/v7-a+simd/hard\libc-musl.a(__io_fmt_needed.o)
                0x00000004                __io_fmt_needed

.stack          0x21000220      0x100
 .stack         0x21000220      0x100 stack

.eh_frame%z1    0x00000000        0x0
 .eh_frame      0x00000000        0x0 c:/program files/microchip/xc32/v4.00/bin/bin/../../lib/gcc/pic32c/8.3.1/thumb/v7-a+simd/hard/crtbegin.o
