Archive member included to satisfy reference by file (symbol)

c:/program files/microchip/xc32/v4.10/bin/bin/../../lib/gcc/pic32c/8.3.1/arm/v7-a+simd/hard\libgcc.a(_udivsi3.o)
                              build/sam_a5d27_som1_winc3400/production/_ext/1895127654/plib_flexcom4_spi_master.o (__aeabi_uidiv)
c:/program files/microchip/xc32/v4.10/bin/bin/../../lib/gcc/pic32c/8.3.1/arm/v7-a+simd/hard\libgcc.a(_divsi3.o)
                              build/sam_a5d27_som1_winc3400/production/_ext/695691069/sys_time.o (__aeabi_idiv)
c:/program files/microchip/xc32/v4.10/bin/bin/../../lib/gcc/pic32c/8.3.1/arm/v7-a+simd/hard\libgcc.a(_dvmd_tls.o)
                              c:/program files/microchip/xc32/v4.10/bin/bin/../../lib/gcc/pic32c/8.3.1/arm/v7-a+simd/hard\libgcc.a(_udivsi3.o) (__aeabi_idiv0)
c:/program files/microchip/xc32/v4.10/bin/bin/../../lib/gcc/pic32c/8.3.1/arm/v7-a+simd/hard\libgcc.a(_aeabi_uldivmod.o)
                              build/sam_a5d27_som1_winc3400/production/_ext/695691069/sys_time.o (__aeabi_uldivmod)
c:/program files/microchip/xc32/v4.10/bin/bin/../../lib/gcc/pic32c/8.3.1/arm/v7-a+simd/hard\libgcc.a(_udivmoddi4.o)
                              c:/program files/microchip/xc32/v4.10/bin/bin/../../lib/gcc/pic32c/8.3.1/arm/v7-a+simd/hard\libgcc.a(_aeabi_uldivmod.o) (__udivmoddi4)
c:/program files/microchip/xc32/v4.10/bin/bin/../../lib/gcc/pic32c/8.3.1/../../../../pic32c/lib/arm/v7-a+simd/hard\libc-musl.a(__libc_start_main.o)
                              build/sam_a5d27_som1_winc3400/production/_ext/1420774346/cstartup.o (__libc_init_array)
c:/program files/microchip/xc32/v4.10/bin/bin/../../lib/gcc/pic32c/8.3.1/../../../../pic32c/lib/arm/v7-a+simd/hard\libc-musl.a(libc.o)
                              c:/program files/microchip/xc32/v4.10/bin/bin/../../lib/gcc/pic32c/8.3.1/../../../../pic32c/lib/arm/v7-a+simd/hard\libc-musl.a(__libc_start_main.o) (__progname_full)
c:/program files/microchip/xc32/v4.10/bin/bin/../../lib/gcc/pic32c/8.3.1/../../../../pic32c/lib/arm/v7-a+simd/hard\libc-musl.a(malloc.o)
                              build/sam_a5d27_som1_winc3400/production/_ext/1909873291/m2m_wifi.o (free)
c:/program files/microchip/xc32/v4.10/bin/bin/../../lib/gcc/pic32c/8.3.1/../../../../pic32c/lib/arm/v7-a+simd/hard\libc-musl.a(expand_heap.o)
                              c:/program files/microchip/xc32/v4.10/bin/bin/../../lib/gcc/pic32c/8.3.1/../../../../pic32c/lib/arm/v7-a+simd/hard\libc-musl.a(malloc.o) (__expand_heap)
c:/program files/microchip/xc32/v4.10/bin/bin/../../lib/gcc/pic32c/8.3.1/../../../../pic32c/lib/arm/v7-a+simd/hard\libc-musl.a(vsnprintf.o)
                              build/sam_a5d27_som1_winc3400/production/_ext/1006343247/sys_console.o (vsnprintf)
c:/program files/microchip/xc32/v4.10/bin/bin/../../lib/gcc/pic32c/8.3.1/../../../../pic32c/lib/arm/v7-a+simd/hard\libc-musl.a(sprintf.o)
                              (sprintf)
c:/program files/microchip/xc32/v4.10/bin/bin/../../lib/gcc/pic32c/8.3.1/../../../../pic32c/lib/arm/v7-a+simd/hard\libc-musl.a(vsprintf.o)
                              c:/program files/microchip/xc32/v4.10/bin/bin/../../lib/gcc/pic32c/8.3.1/../../../../pic32c/lib/arm/v7-a+simd/hard\libc-musl.a(sprintf.o) (vsprintf)
c:/program files/microchip/xc32/v4.10/bin/bin/../../lib/gcc/pic32c/8.3.1/../../../../pic32c/lib/arm/v7-a+simd/hard\libc-musl.a(memcmp.o)
                              build/sam_a5d27_som1_winc3400/production/_ext/1909873291/m2m_flash.o (memcmp)
c:/program files/microchip/xc32/v4.10/bin/bin/../../lib/gcc/pic32c/8.3.1/../../../../pic32c/lib/arm/v7-a+simd/hard\libc-musl.a(memcpy.o)
                              build/sam_a5d27_som1_winc3400/production/_ext/1909873291/m2m_ota.o (memcpy)
c:/program files/microchip/xc32/v4.10/bin/bin/../../lib/gcc/pic32c/8.3.1/../../../../pic32c/lib/arm/v7-a+simd/hard\libc-musl.a(memset.o)
                              build/sam_a5d27_som1_winc3400/production/_ext/1909873291/m2m_ota.o (memset)
c:/program files/microchip/xc32/v4.10/bin/bin/../../lib/gcc/pic32c/8.3.1/../../../../pic32c/lib/arm/v7-a+simd/hard\libc-musl.a(strlen.o)
                              build/sam_a5d27_som1_winc3400/production/_ext/1909873291/m2m_ota.o (strlen)
c:/program files/microchip/xc32/v4.10/bin/bin/../../lib/gcc/pic32c/8.3.1/../../../../pic32c/lib/arm/v7-a+simd/hard\libc-musl.a(strchr.o)
                              build/sam_a5d27_som1_winc3400/production/_ext/237603529/wdrv_winc_sta.o (strchr)
c:/program files/microchip/xc32/v4.10/bin/bin/../../lib/gcc/pic32c/8.3.1/../../../../pic32c/lib/arm/v7-a+simd/hard\libc-musl.a(strchrnul.o)
                              c:/program files/microchip/xc32/v4.10/bin/bin/../../lib/gcc/pic32c/8.3.1/../../../../pic32c/lib/arm/v7-a+simd/hard\libc-musl.a(strchr.o) (__strchrnul)
c:/program files/microchip/xc32/v4.10/bin/bin/../../lib/gcc/pic32c/8.3.1/../../../../pic32c/lib/arm/v7-a+simd/hard\libc-musl.a(gmtime.o)
                              build/sam_a5d27_som1_winc3400/production/_ext/237603529/wdrv_winc_systime.o (gmtime)
c:/program files/microchip/xc32/v4.10/bin/bin/../../lib/gcc/pic32c/8.3.1/../../../../pic32c/lib/arm/v7-a+simd/hard\libc-musl.a(gmtime_r.o)
                              c:/program files/microchip/xc32/v4.10/bin/bin/../../lib/gcc/pic32c/8.3.1/../../../../pic32c/lib/arm/v7-a+simd/hard\libc-musl.a(gmtime.o) (__gmtime_r)
c:/program files/microchip/xc32/v4.10/bin/bin/../../lib/gcc/pic32c/8.3.1/../../../../pic32c/lib/arm/v7-a+simd/hard\libc-musl.a(mktime.o)
                              build/sam_a5d27_som1_winc3400/production/_ext/237603529/wdrv_winc_systime.o (mktime)
c:/program files/microchip/xc32/v4.10/bin/bin/../../lib/gcc/pic32c/8.3.1/../../../../pic32c/lib/arm/v7-a+simd/hard\libc-musl.a(__environ.o)
                              c:/program files/microchip/xc32/v4.10/bin/bin/../../lib/gcc/pic32c/8.3.1/../../../../pic32c/lib/arm/v7-a+simd/hard\libc-musl.a(__libc_start_main.o) (__environ)
c:/program files/microchip/xc32/v4.10/bin/bin/../../lib/gcc/pic32c/8.3.1/../../../../pic32c/lib/arm/v7-a+simd/hard\libc-musl.a(__errno_location.o)
                              c:/program files/microchip/xc32/v4.10/bin/bin/../../lib/gcc/pic32c/8.3.1/../../../../pic32c/lib/arm/v7-a+simd/hard\libc-musl.a(malloc.o) (__errno_val)
c:/program files/microchip/xc32/v4.10/bin/bin/../../lib/gcc/pic32c/8.3.1/../../../../pic32c/lib/arm/v7-a+simd/hard\libc-musl.a(vfprintf.o)
                              c:/program files/microchip/xc32/v4.10/bin/bin/../../lib/gcc/pic32c/8.3.1/../../../../pic32c/lib/arm/v7-a+simd/hard\libc-musl.a(vsnprintf.o) (vfprintf)
c:/program files/microchip/xc32/v4.10/bin/bin/../../lib/gcc/pic32c/8.3.1/../../../../pic32c/lib/arm/v7-a+simd/hard\libc-musl.a(__tm_to_secs.o)
                              c:/program files/microchip/xc32/v4.10/bin/bin/../../lib/gcc/pic32c/8.3.1/../../../../pic32c/lib/arm/v7-a+simd/hard\libc-musl.a(mktime.o) (__tm_to_secs)
c:/program files/microchip/xc32/v4.10/bin/bin/../../lib/gcc/pic32c/8.3.1/../../../../pic32c/lib/arm/v7-a+simd/hard\libc-musl.a(__year_to_secs.o)
                              c:/program files/microchip/xc32/v4.10/bin/bin/../../lib/gcc/pic32c/8.3.1/../../../../pic32c/lib/arm/v7-a+simd/hard\libc-musl.a(__tm_to_secs.o) (__year_to_secs)
c:/program files/microchip/xc32/v4.10/bin/bin/../../lib/gcc/pic32c/8.3.1/../../../../pic32c/lib/arm/v7-a+simd/hard\libc-musl.a(__secs_to_tm.o)
                              c:/program files/microchip/xc32/v4.10/bin/bin/../../lib/gcc/pic32c/8.3.1/../../../../pic32c/lib/arm/v7-a+simd/hard\libc-musl.a(gmtime_r.o) (__secs_to_tm)
c:/program files/microchip/xc32/v4.10/bin/bin/../../lib/gcc/pic32c/8.3.1/../../../../pic32c/lib/arm/v7-a+simd/hard\libc-musl.a(__io_fmt_needed.o)
                              c:/program files/microchip/xc32/v4.10/bin/bin/../../lib/gcc/pic32c/8.3.1/../../../../pic32c/lib/arm/v7-a+simd/hard\libc-musl.a(vfprintf.o) (__io_fmt_needed)
c:/program files/microchip/xc32/v4.10/bin/bin/../../lib/gcc/pic32c/8.3.1/../../../../pic32c/lib/arm/v7-a+simd/hard\libc-musl.a(__printf_core.o)
                              c:/program files/microchip/xc32/v4.10/bin/bin/../../lib/gcc/pic32c/8.3.1/../../../../pic32c/lib/arm/v7-a+simd/hard\libc-musl.a(vfprintf.o) (__printf_core)
c:/program files/microchip/xc32/v4.10/bin/bin/../../lib/gcc/pic32c/8.3.1/../../../../pic32c/lib/arm/v7-a+simd/hard\libc-musl.a(atoi.o)
                              c:/program files/microchip/xc32/v4.10/bin/bin/../../lib/gcc/pic32c/8.3.1/../../../../pic32c/lib/arm/v7-a+simd/hard\libc-musl.a(__printf_core.o) (atoi)
c:/program files/microchip/xc32/v4.10/bin/bin/../../lib/gcc/pic32c/8.3.1/../../../../pic32c/lib/arm/v7-a+simd/hard\libc-musl.a(__month_to_secs.o)
                              c:/program files/microchip/xc32/v4.10/bin/bin/../../lib/gcc/pic32c/8.3.1/../../../../pic32c/lib/arm/v7-a+simd/hard\libc-musl.a(__tm_to_secs.o) (__month_to_secs)
c:/program files/microchip/xc32/v4.10/bin/bin/../../lib/gcc/pic32c/8.3.1/../../../../pic32c/lib/arm/v7-a+simd/hard\libc-musl.a(tolower.o)
                              c:/program files/microchip/xc32/v4.10/bin/bin/../../lib/gcc/pic32c/8.3.1/../../../../pic32c/lib/arm/v7-a+simd/hard\libc-musl.a(__printf_core.o) (tolower)
c:/program files/microchip/xc32/v4.10/bin/bin/../../lib/gcc/pic32c/8.3.1/../../../../pic32c/lib/arm/v7-a+simd/hard\libc-musl.a(__fmt_a.o)
                              c:/program files/microchip/xc32/v4.10/bin/bin/../../lib/gcc/pic32c/8.3.1/../../../../pic32c/lib/arm/v7-a+simd/hard\libc-musl.a(__io_fmt_needed.o) (__fmt_a_needed)
c:/program files/microchip/xc32/v4.10/bin/bin/../../lib/gcc/pic32c/8.3.1/../../../../pic32c/lib/arm/v7-a+simd/hard\libc-musl.a(__fmt_d.o)
                              c:/program files/microchip/xc32/v4.10/bin/bin/../../lib/gcc/pic32c/8.3.1/../../../../pic32c/lib/arm/v7-a+simd/hard\libc-musl.a(__io_fmt_needed.o) (__fmt_d_needed)
c:/program files/microchip/xc32/v4.10/bin/bin/../../lib/gcc/pic32c/8.3.1/../../../../pic32c/lib/arm/v7-a+simd/hard\libc-musl.a(__fmt_fp.o)
                              c:/program files/microchip/xc32/v4.10/bin/bin/../../lib/gcc/pic32c/8.3.1/../../../../pic32c/lib/arm/v7-a+simd/hard\libc-musl.a(__io_fmt_needed.o) (__fmt_f_needed)
c:/program files/microchip/xc32/v4.10/bin/bin/../../lib/gcc/pic32c/8.3.1/../../../../pic32c/lib/arm/v7-a+simd/hard\libc-musl.a(__fmt_o.o)
                              c:/program files/microchip/xc32/v4.10/bin/bin/../../lib/gcc/pic32c/8.3.1/../../../../pic32c/lib/arm/v7-a+simd/hard\libc-musl.a(__io_fmt_needed.o) (__fmt_o_needed)
c:/program files/microchip/xc32/v4.10/bin/bin/../../lib/gcc/pic32c/8.3.1/../../../../pic32c/lib/arm/v7-a+simd/hard\libc-musl.a(__fmt_s.o)
                              c:/program files/microchip/xc32/v4.10/bin/bin/../../lib/gcc/pic32c/8.3.1/../../../../pic32c/lib/arm/v7-a+simd/hard\libc-musl.a(__io_fmt_needed.o) (__fmt_s_needed)
c:/program files/microchip/xc32/v4.10/bin/bin/../../lib/gcc/pic32c/8.3.1/../../../../pic32c/lib/arm/v7-a+simd/hard\libc-musl.a(__fmt_u.o)
                              c:/program files/microchip/xc32/v4.10/bin/bin/../../lib/gcc/pic32c/8.3.1/../../../../pic32c/lib/arm/v7-a+simd/hard\libc-musl.a(__fmt_d.o) (__cvt_u)
c:/program files/microchip/xc32/v4.10/bin/bin/../../lib/gcc/pic32c/8.3.1/../../../../pic32c/lib/arm/v7-a+simd/hard\libc-musl.a(__fmt_x.o)
                              c:/program files/microchip/xc32/v4.10/bin/bin/../../lib/gcc/pic32c/8.3.1/../../../../pic32c/lib/arm/v7-a+simd/hard\libc-musl.a(__io_fmt_needed.o) (__fmt_x_needed)
c:/program files/microchip/xc32/v4.10/bin/bin/../../lib/gcc/pic32c/8.3.1/../../../../pic32c/lib/arm/v7-a+simd/hard\libc-musl.a(__pop_float.o)
                              c:/program files/microchip/xc32/v4.10/bin/bin/../../lib/gcc/pic32c/8.3.1/../../../../pic32c/lib/arm/v7-a+simd/hard\libc-musl.a(__printf_core.o) (__pop_float)
c:/program files/microchip/xc32/v4.10/bin/bin/../../lib/gcc/pic32c/8.3.1/../../../../pic32c/lib/arm/v7-a+simd/hard\libc-musl.a(__pop_int.o)
                              c:/program files/microchip/xc32/v4.10/bin/bin/../../lib/gcc/pic32c/8.3.1/../../../../pic32c/lib/arm/v7-a+simd/hard\libc-musl.a(__printf_core.o) (__pop_int)
c:/program files/microchip/xc32/v4.10/bin/bin/../../lib/gcc/pic32c/8.3.1/../../../../pic32c/lib/arm/v7-a+simd/hard\libc-musl.a(__pop_ptr.o)
                              c:/program files/microchip/xc32/v4.10/bin/bin/../../lib/gcc/pic32c/8.3.1/../../../../pic32c/lib/arm/v7-a+simd/hard\libc-musl.a(__printf_core.o) (__pop_ptr)
c:/program files/microchip/xc32/v4.10/bin/bin/../../lib/gcc/pic32c/8.3.1/../../../../pic32c/lib/arm/v7-a+simd/hard\libc-musl.a(strcpy.o)
                              c:/program files/microchip/xc32/v4.10/bin/bin/../../lib/gcc/pic32c/8.3.1/../../../../pic32c/lib/arm/v7-a+simd/hard\libc-musl.a(__fmt_a.o) (strcpy)
c:/program files/microchip/xc32/v4.10/bin/bin/../../lib/gcc/pic32c/8.3.1/../../../../pic32c/lib/arm/v7-a+simd/hard\libc-musl.a(toupper.o)
                              c:/program files/microchip/xc32/v4.10/bin/bin/../../lib/gcc/pic32c/8.3.1/../../../../pic32c/lib/arm/v7-a+simd/hard\libc-musl.a(__fmt_a.o) (toupper)
c:/program files/microchip/xc32/v4.10/bin/bin/../../lib/gcc/pic32c/8.3.1/../../../../pic32c/lib/arm/v7-a+simd/hard\libc-musl.a(stpcpy.o)
                              c:/program files/microchip/xc32/v4.10/bin/bin/../../lib/gcc/pic32c/8.3.1/../../../../pic32c/lib/arm/v7-a+simd/hard\libc-musl.a(strcpy.o) (__stpcpy)
c:/program files/microchip/xc32/v4.10/bin/bin/../../lib/gcc/pic32c/8.3.1/../../../../pic32c/lib/arm/v7-a+simd/hard\libm-musl.a(floor.o)
                              c:/program files/microchip/xc32/v4.10/bin/bin/../../lib/gcc/pic32c/8.3.1/../../../../pic32c/lib/arm/v7-a+simd/hard\libc-musl.a(__fmt_a.o) (floor)
c:/program files/microchip/xc32/v4.10/bin/bin/../../lib/gcc/pic32c/8.3.1/../../../../pic32c/lib/arm/v7-a+simd/hard\libm-musl.a(fma.o)
                              c:/program files/microchip/xc32/v4.10/bin/bin/../../lib/gcc/pic32c/8.3.1/../../../../pic32c/lib/arm/v7-a+simd/hard\libc-musl.a(__fmt_fp.o) (fma)
c:/program files/microchip/xc32/v4.10/bin/bin/../../lib/gcc/pic32c/8.3.1/../../../../pic32c/lib/arm/v7-a+simd/hard\libm-musl.a(scalbn.o)
                              c:/program files/microchip/xc32/v4.10/bin/bin/../../lib/gcc/pic32c/8.3.1/../../../../pic32c/lib/arm/v7-a+simd/hard\libm-musl.a(fma.o) (scalbn)
c:/program files/microchip/xc32/v4.10/bin/bin/../../lib/gcc/pic32c/8.3.1/../../../../pic32c/lib/arm/v7-a+simd/hard\libpic32c.a(sbrk.o)
                              c:/program files/microchip/xc32/v4.10/bin/bin/../../lib/gcc/pic32c/8.3.1/../../../../pic32c/lib/arm/v7-a+simd/hard\libc-musl.a(expand_heap.o) (_sbrk)
c:/program files/microchip/xc32/v4.10/bin/bin/../../lib/gcc/pic32c/8.3.1/arm/v7-a+simd/hard\libgcc.a(_arm_addsubdf3.o)
                              c:/program files/microchip/xc32/v4.10/bin/bin/../../lib/gcc/pic32c/8.3.1/../../../../pic32c/lib/arm/v7-a+simd/hard\libm-musl.a(fma.o) (__aeabi_l2d)
c:/program files/microchip/xc32/v4.10/bin/bin/../../lib/gcc/pic32c/8.3.1/arm/v7-a+simd/hard\libgcc.a(_aeabi_ldivmod.o)
                              c:/program files/microchip/xc32/v4.10/bin/bin/../../lib/gcc/pic32c/8.3.1/../../../../pic32c/lib/arm/v7-a+simd/hard\libc-musl.a(__year_to_secs.o) (__aeabi_ldivmod)

Microchip PIC32 Memory-Usage Report
        --------------------------------------------------------------------------
         Total Program Memory used  :           0           0  
        --------------------------------------------------------------------------


RAM Data-Memory Usage
section                    address  length [bytes]      (dec)  Description
-------                 ----------  -------------------------  -----------
.text                   0x26f00000        0x1056c       66924   
.data                   0x26f1056c           0x78         120  Initialized data 
.ARM.exidx              0x26f105e4            0x8           8   
.relocate               0x26f105ec           0x3c          60   
.region_cache_aligned_c 0x26f10628           0x18          24   
.bss                    0x26f14000         0x8e08       36360  Uninitialized data 
.region_cache_aligned   0x26f1ce08           0x18          24   
.stacks                 0x26f1ce20         0x2140        8512   
         Total RAM used  :     0x1b5a0      112032  0.1% of 0x7000000
        --------------------------------------------------------------------------
            Total Data Memory used  :     0x1b5a0      112032  0.1% of 0x7000000
        --------------------------------------------------------------------------


Dynamic Data-Memory Reservation
section                    address  length [bytes]      (dec)  Description
-------                 ----------  -------------------------  -----------
heap                    0x21000008          0x200         512  Reserved for heap 
stack                   0x21000220      0x5effdd8    99614168  Reserved for stack 

        --------------------------------------------------------------------------

Discarded input sections

 .text          0x00000000        0x0 c:/program files/microchip/xc32/v4.10/bin/bin/../../lib/gcc/pic32c/8.3.1/arm/v7-a+simd/hard/crti.o
 .data          0x00000000        0x0 c:/program files/microchip/xc32/v4.10/bin/bin/../../lib/gcc/pic32c/8.3.1/arm/v7-a+simd/hard/crti.o
 .bss           0x00000000        0x0 c:/program files/microchip/xc32/v4.10/bin/bin/../../lib/gcc/pic32c/8.3.1/arm/v7-a+simd/hard/crti.o
 .xc_stack_usage.hdr
                0x00000000        0xe c:/program files/microchip/xc32/v4.10/bin/bin/../../lib/gcc/pic32c/8.3.1/arm/v7-a+simd/hard/crti.o
 .xc_stack_usage
                0x00000000       0x26 c:/program files/microchip/xc32/v4.10/bin/bin/../../lib/gcc/pic32c/8.3.1/arm/v7-a+simd/hard/crti.o
 .data          0x00000000        0x4 c:/program files/microchip/xc32/v4.10/bin/bin/../../lib/gcc/pic32c/8.3.1/arm/v7-a+simd/hard/crtbegin.o
 .xc_stack_usage
                0x00000000       0x3c c:/program files/microchip/xc32/v4.10/bin/bin/../../lib/gcc/pic32c/8.3.1/arm/v7-a+simd/hard/crtbegin.o
 .xc_stack_usage.hdr
                0x00000000        0xe c:/program files/microchip/xc32/v4.10/bin/bin/../../lib/gcc/pic32c/8.3.1/arm/v7-a+simd/hard/crtbegin.o
 .text          0x00000000        0x0 build/sam_a5d27_som1_winc3400/production/_ext/1279932671/drv_spi.o
 .data          0x00000000        0x0 build/sam_a5d27_som1_winc3400/production/_ext/1279932671/drv_spi.o
 .bss           0x00000000        0x0 build/sam_a5d27_som1_winc3400/production/_ext/1279932671/drv_spi.o
 .text.DRV_SPI_Status
                0x00000000       0x48 build/sam_a5d27_som1_winc3400/production/_ext/1279932671/drv_spi.o
 .text.DRV_SPI_Close
                0x00000000      0x1b0 build/sam_a5d27_som1_winc3400/production/_ext/1279932671/drv_spi.o
 .text.DRV_SPI_TransferSetup
                0x00000000      0x100 build/sam_a5d27_som1_winc3400/production/_ext/1279932671/drv_spi.o
 .text.DRV_SPI_ReadTransferAdd
                0x00000000       0x28 build/sam_a5d27_som1_winc3400/production/_ext/1279932671/drv_spi.o
 .text.DRV_SPI_TransferStatusGet
                0x00000000       0xa8 build/sam_a5d27_som1_winc3400/production/_ext/1279932671/drv_spi.o
 .text.DRV_SPI_Lock
                0x00000000      0x170 build/sam_a5d27_som1_winc3400/production/_ext/1279932671/drv_spi.o
 .text          0x00000000        0x0 build/sam_a5d27_som1_winc3400/production/_ext/1407615473/wdrv_winc_gpio.o
 .data          0x00000000        0x0 build/sam_a5d27_som1_winc3400/production/_ext/1407615473/wdrv_winc_gpio.o
 .bss           0x00000000        0x0 build/sam_a5d27_som1_winc3400/production/_ext/1407615473/wdrv_winc_gpio.o
 .text          0x00000000        0x0 build/sam_a5d27_som1_winc3400/production/_ext/1407615473/wdrv_winc_eint.o
 .data          0x00000000        0x0 build/sam_a5d27_som1_winc3400/production/_ext/1407615473/wdrv_winc_eint.o
 .bss           0x00000000        0x0 build/sam_a5d27_som1_winc3400/production/_ext/1407615473/wdrv_winc_eint.o
 .text          0x00000000        0x0 build/sam_a5d27_som1_winc3400/production/_ext/1846510740/wdrv_winc_spi.o
 .data          0x00000000        0x0 build/sam_a5d27_som1_winc3400/production/_ext/1846510740/wdrv_winc_spi.o
 .bss           0x00000000        0x0 build/sam_a5d27_som1_winc3400/production/_ext/1846510740/wdrv_winc_spi.o
 .text          0x00000000        0x0 build/sam_a5d27_som1_winc3400/production/_ext/1941162184/nm_common.o
 .data          0x00000000        0x0 build/sam_a5d27_som1_winc3400/production/_ext/1941162184/nm_common.o
 .bss           0x00000000        0x0 build/sam_a5d27_som1_winc3400/production/_ext/1941162184/nm_common.o
 .text          0x00000000        0x0 build/sam_a5d27_som1_winc3400/production/_ext/1909873291/nmspi.o
 .data          0x00000000        0x0 build/sam_a5d27_som1_winc3400/production/_ext/1909873291/nmspi.o
 .bss           0x00000000        0x0 build/sam_a5d27_som1_winc3400/production/_ext/1909873291/nmspi.o
 .text.nm_spi_reset
                0x00000000       0x6c build/sam_a5d27_som1_winc3400/production/_ext/1909873291/nmspi.o
 .text          0x00000000        0x0 build/sam_a5d27_som1_winc3400/production/_ext/1909873291/nmdrv.o
 .data          0x00000000        0x0 build/sam_a5d27_som1_winc3400/production/_ext/1909873291/nmdrv.o
 .bss           0x00000000        0x0 build/sam_a5d27_som1_winc3400/production/_ext/1909873291/nmdrv.o
 .text.nm_drv_init
                0x00000000       0x20 build/sam_a5d27_som1_winc3400/production/_ext/1909873291/nmdrv.o
 .text.nm_cpu_start
                0x00000000        0xc build/sam_a5d27_som1_winc3400/production/_ext/1909873291/nmdrv.o
 .text          0x00000000        0x0 build/sam_a5d27_som1_winc3400/production/_ext/1909873291/m2m_ota.o
 .data          0x00000000        0x0 build/sam_a5d27_som1_winc3400/production/_ext/1909873291/m2m_ota.o
 .bss           0x00000000        0x0 build/sam_a5d27_som1_winc3400/production/_ext/1909873291/m2m_ota.o
 .text.m2m_ota_start_update
                0x00000000      0x100 build/sam_a5d27_som1_winc3400/production/_ext/1909873291/m2m_ota.o
 .text.m2m_ota_rollback
                0x00000000       0x58 build/sam_a5d27_som1_winc3400/production/_ext/1909873291/m2m_ota.o
 .text.m2m_ota_abort
                0x00000000       0x30 build/sam_a5d27_som1_winc3400/production/_ext/1909873291/m2m_ota.o
 .text.m2m_ota_switch_firmware
                0x00000000       0x58 build/sam_a5d27_som1_winc3400/production/_ext/1909873291/m2m_ota.o
 .text.m2m_ota_set_ssl_option
                0x00000000      0x108 build/sam_a5d27_som1_winc3400/production/_ext/1909873291/m2m_ota.o
 .text.m2m_ota_get_ssl_option
                0x00000000       0xd4 build/sam_a5d27_som1_winc3400/production/_ext/1909873291/m2m_ota.o
 .bss.gu8OTASSLOpts
                0x00000000        0x1 build/sam_a5d27_som1_winc3400/production/_ext/1909873291/m2m_ota.o
 .bss.gu8SNIServerName
                0x00000000       0x40 build/sam_a5d27_som1_winc3400/production/_ext/1909873291/m2m_ota.o
 .text          0x00000000        0x0 build/sam_a5d27_som1_winc3400/production/_ext/1909873291/m2m_flash.o
 .data          0x00000000        0x0 build/sam_a5d27_som1_winc3400/production/_ext/1909873291/m2m_flash.o
 .bss           0x00000000        0x0 build/sam_a5d27_som1_winc3400/production/_ext/1909873291/m2m_flash.o
 .text.crc7     0x00000000       0x60 build/sam_a5d27_som1_winc3400/production/_ext/1909873291/m2m_flash.o
 .text.winc_flash_write_verify
                0x00000000       0xa8 build/sam_a5d27_som1_winc3400/production/_ext/1909873291/m2m_flash.o
 .text.read_control_structure
                0x00000000       0xa0 build/sam_a5d27_som1_winc3400/production/_ext/1909873291/m2m_flash.o
 .text.find_flash_section
                0x00000000      0x160 build/sam_a5d27_som1_winc3400/production/_ext/1909873291/m2m_flash.o
 .text.m2m_flash_erase_sector
                0x00000000       0xa8 build/sam_a5d27_som1_winc3400/production/_ext/1909873291/m2m_flash.o
 .text.m2m_flash_write
                0x00000000       0xbc build/sam_a5d27_som1_winc3400/production/_ext/1909873291/m2m_flash.o
 .text.m2m_flash_read
                0x00000000       0xbc build/sam_a5d27_som1_winc3400/production/_ext/1909873291/m2m_flash.o
 .text.m2m_flash_switch_firmware
                0x00000000       0xf8 build/sam_a5d27_som1_winc3400/production/_ext/1909873291/m2m_flash.o
 .rodata        0x00000000       0x24 build/sam_a5d27_som1_winc3400/production/_ext/1909873291/m2m_flash.o
 .rodata.flashMap
                0x00000000       0x50 build/sam_a5d27_som1_winc3400/production/_ext/1909873291/m2m_flash.o
 .debug_info    0x00000000     0x190a build/sam_a5d27_som1_winc3400/production/_ext/1909873291/m2m_flash.o
 .debug_abbrev  0x00000000      0x341 build/sam_a5d27_som1_winc3400/production/_ext/1909873291/m2m_flash.o
 .debug_loc     0x00000000      0x936 build/sam_a5d27_som1_winc3400/production/_ext/1909873291/m2m_flash.o
 .debug_aranges
                0x00000000       0x58 build/sam_a5d27_som1_winc3400/production/_ext/1909873291/m2m_flash.o
 .debug_ranges  0x00000000       0x90 build/sam_a5d27_som1_winc3400/production/_ext/1909873291/m2m_flash.o
 .debug_line    0x00000000      0x6f1 build/sam_a5d27_som1_winc3400/production/_ext/1909873291/m2m_flash.o
 .debug_str     0x00000000      0x106 build/sam_a5d27_som1_winc3400/production/_ext/1909873291/m2m_flash.o
 .comment       0x00000000       0x2c build/sam_a5d27_som1_winc3400/production/_ext/1909873291/m2m_flash.o
 .debug_frame   0x00000000      0x128 build/sam_a5d27_som1_winc3400/production/_ext/1909873291/m2m_flash.o
 .ARM.attributes
                0x00000000       0x39 build/sam_a5d27_som1_winc3400/production/_ext/1909873291/m2m_flash.o
 .text          0x00000000        0x0 build/sam_a5d27_som1_winc3400/production/_ext/1909873291/m2m_periph.o
 .data          0x00000000        0x0 build/sam_a5d27_som1_winc3400/production/_ext/1909873291/m2m_periph.o
 .bss           0x00000000        0x0 build/sam_a5d27_som1_winc3400/production/_ext/1909873291/m2m_periph.o
 .text.get_gpio_idx
                0x00000000       0x30 build/sam_a5d27_som1_winc3400/production/_ext/1909873291/m2m_periph.o
 .text.m2m_periph_init
                0x00000000        0x8 build/sam_a5d27_som1_winc3400/production/_ext/1909873291/m2m_periph.o
 .text.m2m_periph_gpio_set_dir
                0x00000000       0x3c build/sam_a5d27_som1_winc3400/production/_ext/1909873291/m2m_periph.o
 .text.m2m_periph_gpio_set_val
                0x00000000       0x3c build/sam_a5d27_som1_winc3400/production/_ext/1909873291/m2m_periph.o
 .text.m2m_periph_gpio_get_val
                0x00000000       0x3c build/sam_a5d27_som1_winc3400/production/_ext/1909873291/m2m_periph.o
 .text.m2m_periph_pullup_ctrl
                0x00000000        0xc build/sam_a5d27_som1_winc3400/production/_ext/1909873291/m2m_periph.o
 .debug_info    0x00000000      0x910 build/sam_a5d27_som1_winc3400/production/_ext/1909873291/m2m_periph.o
 .debug_abbrev  0x00000000      0x1dd build/sam_a5d27_som1_winc3400/production/_ext/1909873291/m2m_periph.o
 .debug_loc     0x00000000      0x3c7 build/sam_a5d27_som1_winc3400/production/_ext/1909873291/m2m_periph.o
 .debug_aranges
                0x00000000       0x48 build/sam_a5d27_som1_winc3400/production/_ext/1909873291/m2m_periph.o
 .debug_ranges  0x00000000       0x38 build/sam_a5d27_som1_winc3400/production/_ext/1909873291/m2m_periph.o
 .debug_line    0x00000000      0x2b7 build/sam_a5d27_som1_winc3400/production/_ext/1909873291/m2m_periph.o
 .debug_str     0x00000000       0x5a build/sam_a5d27_som1_winc3400/production/_ext/1909873291/m2m_periph.o
 .comment       0x00000000       0x2c build/sam_a5d27_som1_winc3400/production/_ext/1909873291/m2m_periph.o
 .debug_frame   0x00000000       0x9c build/sam_a5d27_som1_winc3400/production/_ext/1909873291/m2m_periph.o
 .ARM.attributes
                0x00000000       0x39 build/sam_a5d27_som1_winc3400/production/_ext/1909873291/m2m_periph.o
 .text          0x00000000        0x0 build/sam_a5d27_som1_winc3400/production/_ext/1909873291/m2m_ssl.o
 .data          0x00000000        0x0 build/sam_a5d27_som1_winc3400/production/_ext/1909873291/m2m_ssl.o
 .bss           0x00000000        0x0 build/sam_a5d27_som1_winc3400/production/_ext/1909873291/m2m_ssl.o
 .text.m2m_ssl_handshake_rsp
                0x00000000       0x30 build/sam_a5d27_som1_winc3400/production/_ext/1909873291/m2m_ssl.o
 .text.m2m_ssl_send_certs_to_winc
                0x00000000      0x1f0 build/sam_a5d27_som1_winc3400/production/_ext/1909873291/m2m_ssl.o
 .text.m2m_ssl_retrieve_next_for_verifying
                0x00000000      0x304 build/sam_a5d27_som1_winc3400/production/_ext/1909873291/m2m_ssl.o
 .text.m2m_ssl_retrieve_cert
                0x00000000       0x38 build/sam_a5d27_som1_winc3400/production/_ext/1909873291/m2m_ssl.o
 .text.m2m_ssl_retrieve_hash
                0x00000000       0x6c build/sam_a5d27_som1_winc3400/production/_ext/1909873291/m2m_ssl.o
 .text.m2m_ssl_stop_retrieving
                0x00000000       0x1c build/sam_a5d27_som1_winc3400/production/_ext/1909873291/m2m_ssl.o
 .text.m2m_ssl_stop_processing_certs
                0x00000000        0xc build/sam_a5d27_som1_winc3400/production/_ext/1909873291/m2m_ssl.o
 .text.m2m_ssl_ecc_process_done
                0x00000000       0x14 build/sam_a5d27_som1_winc3400/production/_ext/1909873291/m2m_ssl.o
 .text.m2m_ssl_set_active_ciphersuites
                0x00000000       0x38 build/sam_a5d27_som1_winc3400/production/_ext/1909873291/m2m_ssl.o
 .text          0x00000000        0x0 build/sam_a5d27_som1_winc3400/production/_ext/1909873291/m2m_hif.o
 .data          0x00000000        0x0 build/sam_a5d27_som1_winc3400/production/_ext/1909873291/m2m_hif.o
 .bss           0x00000000        0x0 build/sam_a5d27_som1_winc3400/production/_ext/1909873291/m2m_hif.o
 .text.hif_set_sleep_mode
                0x00000000       0x10 build/sam_a5d27_som1_winc3400/production/_ext/1909873291/m2m_hif.o
 .text.hif_get_sleep_mode
                0x00000000       0x10 build/sam_a5d27_som1_winc3400/production/_ext/1909873291/m2m_hif.o
 .text          0x00000000        0x0 build/sam_a5d27_som1_winc3400/production/_ext/1909873291/nmasic.o
 .data          0x00000000        0x0 build/sam_a5d27_som1_winc3400/production/_ext/1909873291/nmasic.o
 .bss           0x00000000        0x0 build/sam_a5d27_som1_winc3400/production/_ext/1909873291/nmasic.o
 .text.enable_rf_blocks
                0x00000000       0x60 build/sam_a5d27_som1_winc3400/production/_ext/1909873291/nmasic.o
 .text.nmi_get_rfrevid
                0x00000000       0x30 build/sam_a5d27_som1_winc3400/production/_ext/1909873291/nmasic.o
 .text.restore_pmu_settings_after_global_reset
                0x00000000       0x28 build/sam_a5d27_som1_winc3400/production/_ext/1909873291/nmasic.o
 .text.nmi_update_pll
                0x00000000       0x2c build/sam_a5d27_som1_winc3400/production/_ext/1909873291/nmasic.o
 .text.nmi_set_sys_clk_src_to_xo
                0x00000000       0x20 build/sam_a5d27_som1_winc3400/production/_ext/1909873291/nmasic.o
 .text.chip_reset
                0x00000000       0x24 build/sam_a5d27_som1_winc3400/production/_ext/1909873291/nmasic.o
 .text.chip_reset_and_cpu_halt
                0x00000000      0x10c build/sam_a5d27_som1_winc3400/production/_ext/1909873291/nmasic.o
 .text.set_gpio_dir
                0x00000000       0x54 build/sam_a5d27_som1_winc3400/production/_ext/1909873291/nmasic.o
 .text.set_gpio_val
                0x00000000       0x54 build/sam_a5d27_som1_winc3400/production/_ext/1909873291/nmasic.o
 .text.get_gpio_val
                0x00000000       0x40 build/sam_a5d27_som1_winc3400/production/_ext/1909873291/nmasic.o
 .text.pullup_ctrl
                0x00000000       0x94 build/sam_a5d27_som1_winc3400/production/_ext/1909873291/nmasic.o
 .text.nmi_get_otp_mac_address
                0x00000000      0x10c build/sam_a5d27_som1_winc3400/production/_ext/1909873291/nmasic.o
 .text          0x00000000        0x0 build/sam_a5d27_som1_winc3400/production/_ext/1909873291/nmbus.o
 .data          0x00000000        0x0 build/sam_a5d27_som1_winc3400/production/_ext/1909873291/nmbus.o
 .bss           0x00000000        0x0 build/sam_a5d27_som1_winc3400/production/_ext/1909873291/nmbus.o
 .text.nm_bus_reset
                0x00000000        0xc build/sam_a5d27_som1_winc3400/production/_ext/1909873291/nmbus.o
 .text.nm_bus_iface_reconfigure
                0x00000000        0x8 build/sam_a5d27_som1_winc3400/production/_ext/1909873291/nmbus.o
 .text          0x00000000        0x0 build/sam_a5d27_som1_winc3400/production/_ext/1909873291/m2m_wifi.o
 .data          0x00000000        0x0 build/sam_a5d27_som1_winc3400/production/_ext/1909873291/m2m_wifi.o
 .bss           0x00000000        0x0 build/sam_a5d27_som1_winc3400/production/_ext/1909873291/m2m_wifi.o
 .text.m2m_validate_ap_parameters
                0x00000000      0x150 build/sam_a5d27_som1_winc3400/production/_ext/1909873291/m2m_wifi.o
 .text.m2m_wifi_reinit_hold
                0x00000000       0x14 build/sam_a5d27_som1_winc3400/production/_ext/1909873291/m2m_wifi.o
 .text.m2m_wifi_delete_sc
                0x00000000       0x54 build/sam_a5d27_som1_winc3400/production/_ext/1909873291/m2m_wifi.o
 .text.m2m_wifi_connect_wep
                0x00000000        0x8 build/sam_a5d27_som1_winc3400/production/_ext/1909873291/m2m_wifi.o
 .text.m2m_wifi_1x_set_option
                0x00000000      0x2f0 build/sam_a5d27_som1_winc3400/production/_ext/1909873291/m2m_wifi.o
 .text.m2m_wifi_1x_get_option
                0x00000000      0x214 build/sam_a5d27_som1_winc3400/production/_ext/1909873291/m2m_wifi.o
 .text.m2m_wifi_connect_sc
                0x00000000      0x118 build/sam_a5d27_som1_winc3400/production/_ext/1909873291/m2m_wifi.o
 .text.m2m_wifi_connect
                0x00000000       0x24 build/sam_a5d27_som1_winc3400/production/_ext/1909873291/m2m_wifi.o
 .text.m2m_wifi_disconnect
                0x00000000       0x30 build/sam_a5d27_som1_winc3400/production/_ext/1909873291/m2m_wifi.o
 .text.m2m_wifi_set_mac_address
                0x00000000       0x48 build/sam_a5d27_som1_winc3400/production/_ext/1909873291/m2m_wifi.o
 .text.m2m_wifi_set_lsn_int
                0x00000000       0x34 build/sam_a5d27_som1_winc3400/production/_ext/1909873291/m2m_wifi.o
 .text.m2m_wifi_set_cust_InfoElement
                0x00000000       0x38 build/sam_a5d27_som1_winc3400/production/_ext/1909873291/m2m_wifi.o
 .text.m2m_wifi_set_stop_scan_on_first
                0x00000000       0x88 build/sam_a5d27_som1_winc3400/production/_ext/1909873291/m2m_wifi.o
 .text.m2m_wifi_set_scan_region
                0x00000000       0x38 build/sam_a5d27_som1_winc3400/production/_ext/1909873291/m2m_wifi.o
 .text.m2m_wifi_wps
                0x00000000       0x50 build/sam_a5d27_som1_winc3400/production/_ext/1909873291/m2m_wifi.o
 .text.m2m_wifi_wps_disable
                0x00000000       0x30 build/sam_a5d27_som1_winc3400/production/_ext/1909873291/m2m_wifi.o
 .text.m2m_wifi_p2p
                0x00000000       0x7c build/sam_a5d27_som1_winc3400/production/_ext/1909873291/m2m_wifi.o
 .text.m2m_wifi_p2p_disconnect
                0x00000000       0x30 build/sam_a5d27_som1_winc3400/production/_ext/1909873291/m2m_wifi.o
 .text.m2m_wifi_enable_ap_ext
                0x00000000       0x7c build/sam_a5d27_som1_winc3400/production/_ext/1909873291/m2m_wifi.o
 .text.m2m_wifi_enable_ap
                0x00000000       0x40 build/sam_a5d27_som1_winc3400/production/_ext/1909873291/m2m_wifi.o
 .text.m2m_wifi_disable_ap
                0x00000000       0x30 build/sam_a5d27_som1_winc3400/production/_ext/1909873291/m2m_wifi.o
 .text.m2m_wifi_req_curr_rssi
                0x00000000       0x30 build/sam_a5d27_som1_winc3400/production/_ext/1909873291/m2m_wifi.o
 .text.m2m_wifi_req_unrestrict_ble
                0x00000000       0x30 build/sam_a5d27_som1_winc3400/production/_ext/1909873291/m2m_wifi.o
 .text.m2m_wifi_send_ethernet_pkt
                0x00000000       0x60 build/sam_a5d27_som1_winc3400/production/_ext/1909873291/m2m_wifi.o
 .text.m2m_wifi_get_otp_mac_address
                0x00000000       0x38 build/sam_a5d27_som1_winc3400/production/_ext/1909873291/m2m_wifi.o
 .text.m2m_wifi_get_sleep_mode
                0x00000000        0xc build/sam_a5d27_som1_winc3400/production/_ext/1909873291/m2m_wifi.o
 .text.m2m_wifi_set_sleep_mode
                0x00000000       0x74 build/sam_a5d27_som1_winc3400/production/_ext/1909873291/m2m_wifi.o
 .text.m2m_wifi_request_sleep
                0x00000000       0x50 build/sam_a5d27_som1_winc3400/production/_ext/1909873291/m2m_wifi.o
 .text.m2m_wifi_set_device_name
                0x00000000       0x54 build/sam_a5d27_som1_winc3400/production/_ext/1909873291/m2m_wifi.o
 .text.m2m_wifi_configure_sntp
                0x00000000       0x6c build/sam_a5d27_som1_winc3400/production/_ext/1909873291/m2m_wifi.o
 .text.m2m_wifi_check_ota_rb
                0x00000000       0x34 build/sam_a5d27_som1_winc3400/production/_ext/1909873291/m2m_wifi.o
 .text.m2m_wifi_init
                0x00000000       0x20 build/sam_a5d27_som1_winc3400/production/_ext/1909873291/m2m_wifi.o
 .text.m2m_wifi_reinit_start
                0x00000000        0xc build/sam_a5d27_som1_winc3400/production/_ext/1909873291/m2m_wifi.o
 .text.m2m_wifi_reinit
                0x00000000       0x20 build/sam_a5d27_som1_winc3400/production/_ext/1909873291/m2m_wifi.o
 .text.m2m_wifi_start_provision_mode_ext
                0x00000000      0x124 build/sam_a5d27_som1_winc3400/production/_ext/1909873291/m2m_wifi.o
 .text.m2m_wifi_start_provision_mode
                0x00000000       0x50 build/sam_a5d27_som1_winc3400/production/_ext/1909873291/m2m_wifi.o
 .text.m2m_wifi_stop_provision_mode
                0x00000000       0x30 build/sam_a5d27_som1_winc3400/production/_ext/1909873291/m2m_wifi.o
 .text.m2m_wifi_get_connection_info
                0x00000000       0x30 build/sam_a5d27_som1_winc3400/production/_ext/1909873291/m2m_wifi.o
 .text.m2m_wifi_set_system_time
                0x00000000       0x38 build/sam_a5d27_som1_winc3400/production/_ext/1909873291/m2m_wifi.o
 .text.m2m_wifi_get_system_time
                0x00000000       0x30 build/sam_a5d27_som1_winc3400/production/_ext/1909873291/m2m_wifi.o
 .text.m2m_wifi_enable_sntp
                0x00000000       0x38 build/sam_a5d27_som1_winc3400/production/_ext/1909873291/m2m_wifi.o
 .text.m2m_wifi_set_power_profile
                0x00000000       0x38 build/sam_a5d27_som1_winc3400/production/_ext/1909873291/m2m_wifi.o
 .text.m2m_wifi_set_tx_power
                0x00000000       0x38 build/sam_a5d27_som1_winc3400/production/_ext/1909873291/m2m_wifi.o
 .text.m2m_wifi_enable_firmware_logs
                0x00000000       0x38 build/sam_a5d27_som1_winc3400/production/_ext/1909873291/m2m_wifi.o
 .text.m2m_wifi_set_battery_voltage
                0x00000000       0x3c build/sam_a5d27_som1_winc3400/production/_ext/1909873291/m2m_wifi.o
 .text.m2m_wifi_prng_get_random_bytes
                0x00000000       0x8c build/sam_a5d27_som1_winc3400/production/_ext/1909873291/m2m_wifi.o
 .text.m2m_wifi_enable_mac_mcast
                0x00000000       0xa0 build/sam_a5d27_som1_winc3400/production/_ext/1909873291/m2m_wifi.o
 .text.m2m_wifi_set_receive_buffer
                0x00000000       0x58 build/sam_a5d27_som1_winc3400/production/_ext/1909873291/m2m_wifi.o
 .text.m2m_wifi_enable_roaming
                0x00000000       0x50 build/sam_a5d27_som1_winc3400/production/_ext/1909873291/m2m_wifi.o
 .text.m2m_wifi_disable_roaming
                0x00000000       0x38 build/sam_a5d27_som1_winc3400/production/_ext/1909873291/m2m_wifi.o
 .text.m2m_wifi_ble_api_send
                0x00000000       0x38 build/sam_a5d27_som1_winc3400/production/_ext/1909873291/m2m_wifi.o
 .text          0x00000000        0x0 build/sam_a5d27_som1_winc3400/production/_ext/1483395904/inet_ntop.o
 .data          0x00000000        0x0 build/sam_a5d27_som1_winc3400/production/_ext/1483395904/inet_ntop.o
 .bss           0x00000000        0x0 build/sam_a5d27_som1_winc3400/production/_ext/1483395904/inet_ntop.o
 .text          0x00000000        0x0 build/sam_a5d27_som1_winc3400/production/_ext/1483395904/inet_addr.o
 .data          0x00000000        0x0 build/sam_a5d27_som1_winc3400/production/_ext/1483395904/inet_addr.o
 .bss           0x00000000        0x0 build/sam_a5d27_som1_winc3400/production/_ext/1483395904/inet_addr.o
 .text.inet_addr
                0x00000000      0x160 build/sam_a5d27_som1_winc3400/production/_ext/1483395904/inet_addr.o
 .debug_info    0x00000000      0x407 build/sam_a5d27_som1_winc3400/production/_ext/1483395904/inet_addr.o
 .debug_abbrev  0x00000000       0x95 build/sam_a5d27_som1_winc3400/production/_ext/1483395904/inet_addr.o
 .debug_loc     0x00000000      0x2d3 build/sam_a5d27_som1_winc3400/production/_ext/1483395904/inet_addr.o
 .debug_aranges
                0x00000000       0x20 build/sam_a5d27_som1_winc3400/production/_ext/1483395904/inet_addr.o
 .debug_ranges  0x00000000       0x10 build/sam_a5d27_som1_winc3400/production/_ext/1483395904/inet_addr.o
 .debug_line    0x00000000      0x21e build/sam_a5d27_som1_winc3400/production/_ext/1483395904/inet_addr.o
 .debug_str     0x00000000        0x0 build/sam_a5d27_som1_winc3400/production/_ext/1483395904/inet_addr.o
 .comment       0x00000000       0x2c build/sam_a5d27_som1_winc3400/production/_ext/1483395904/inet_addr.o
 .debug_frame   0x00000000       0x2c build/sam_a5d27_som1_winc3400/production/_ext/1483395904/inet_addr.o
 .ARM.attributes
                0x00000000       0x39 build/sam_a5d27_som1_winc3400/production/_ext/1483395904/inet_addr.o
 .text          0x00000000        0x0 build/sam_a5d27_som1_winc3400/production/_ext/1483395904/socket.o
 .data          0x00000000        0x0 build/sam_a5d27_som1_winc3400/production/_ext/1483395904/socket.o
 .bss           0x00000000        0x0 build/sam_a5d27_som1_winc3400/production/_ext/1483395904/socket.o
 .text.registerSocketCallback
                0x00000000       0x1c build/sam_a5d27_som1_winc3400/production/_ext/1483395904/socket.o
 .text.registerSocketEventCallback
                0x00000000       0x10 build/sam_a5d27_som1_winc3400/production/_ext/1483395904/socket.o
 .text.registerSocketResolveCallback
                0x00000000       0x10 build/sam_a5d27_som1_winc3400/production/_ext/1483395904/socket.o
 .text.socket   0x00000000      0x348 build/sam_a5d27_som1_winc3400/production/_ext/1483395904/socket.o
 .text.bind     0x00000000       0xc0 build/sam_a5d27_som1_winc3400/production/_ext/1483395904/socket.o
 .text.listen   0x00000000       0x90 build/sam_a5d27_som1_winc3400/production/_ext/1483395904/socket.o
 .text.accept   0x00000000       0x38 build/sam_a5d27_som1_winc3400/production/_ext/1483395904/socket.o
 .text.connect  0x00000000       0xf8 build/sam_a5d27_som1_winc3400/production/_ext/1483395904/socket.o
 .text.secure   0x00000000      0x10c build/sam_a5d27_som1_winc3400/production/_ext/1483395904/socket.o
 .text.send     0x00000000      0x118 build/sam_a5d27_som1_winc3400/production/_ext/1483395904/socket.o
 .text.sendto   0x00000000      0x100 build/sam_a5d27_som1_winc3400/production/_ext/1483395904/socket.o
 .text.recv     0x00000000      0x124 build/sam_a5d27_som1_winc3400/production/_ext/1483395904/socket.o
 .text.shutdown
                0x00000000       0xe8 build/sam_a5d27_som1_winc3400/production/_ext/1483395904/socket.o
 .text.recvfrom
                0x00000000      0x108 build/sam_a5d27_som1_winc3400/production/_ext/1483395904/socket.o
 .text.gethostbyname
                0x00000000       0x58 build/sam_a5d27_som1_winc3400/production/_ext/1483395904/socket.o
 .text.setsockopt
                0x00000000      0x300 build/sam_a5d27_som1_winc3400/production/_ext/1483395904/socket.o
 .text.getsockopt
                0x00000000        0x8 build/sam_a5d27_som1_winc3400/production/_ext/1483395904/socket.o
 .text.m2m_ping_req
                0x00000000       0x88 build/sam_a5d27_som1_winc3400/production/_ext/1483395904/socket.o
 .text.set_alpn_list
                0x00000000      0x108 build/sam_a5d27_som1_winc3400/production/_ext/1483395904/socket.o
 .text.get_alpn_index
                0x00000000       0x6c build/sam_a5d27_som1_winc3400/production/_ext/1483395904/socket.o
 .text.IsSocketReady
                0x00000000       0x10 build/sam_a5d27_som1_winc3400/production/_ext/1483395904/socket.o
 .text.get_error_detail
                0x00000000       0x60 build/sam_a5d27_som1_winc3400/production/_ext/1483395904/socket.o
 .bss.u8NextTcpSock.11486
                0x00000000        0x1 build/sam_a5d27_som1_winc3400/production/_ext/1483395904/socket.o
 .bss.u8NextUdpSock.11487
                0x00000000        0x1 build/sam_a5d27_som1_winc3400/production/_ext/1483395904/socket.o
 .text          0x00000000        0x0 build/sam_a5d27_som1_winc3400/production/_ext/1501229872/spi_flash.o
 .data          0x00000000        0x0 build/sam_a5d27_som1_winc3400/production/_ext/1501229872/spi_flash.o
 .bss           0x00000000        0x0 build/sam_a5d27_som1_winc3400/production/_ext/1501229872/spi_flash.o
 .text.spi_flash_load_to_cortus_mem
                0x00000000       0xf8 build/sam_a5d27_som1_winc3400/production/_ext/1501229872/spi_flash.o
 .text.spi_flash_write_enable
                0x00000000       0xc0 build/sam_a5d27_som1_winc3400/production/_ext/1501229872/spi_flash.o
 .text.spi_flash_read_status_reg
                0x00000000       0xd0 build/sam_a5d27_som1_winc3400/production/_ext/1501229872/spi_flash.o
 .text.spi_flash_pp
                0x00000000      0x210 build/sam_a5d27_som1_winc3400/production/_ext/1501229872/spi_flash.o
 .text.spi_flash_read
                0x00000000       0xb8 build/sam_a5d27_som1_winc3400/production/_ext/1501229872/spi_flash.o
 .text.spi_flash_write
                0x00000000       0xd8 build/sam_a5d27_som1_winc3400/production/_ext/1501229872/spi_flash.o
 .text.spi_flash_erase
                0x00000000      0x1f4 build/sam_a5d27_som1_winc3400/production/_ext/1501229872/spi_flash.o
 .text.spi_flash_get_size
                0x00000000      0x19c build/sam_a5d27_som1_winc3400/production/_ext/1501229872/spi_flash.o
 .rodata        0x00000000       0x70 build/sam_a5d27_som1_winc3400/production/_ext/1501229872/spi_flash.o
 .bss.gu32InternalFlashSize.10505
                0x00000000        0x4 build/sam_a5d27_som1_winc3400/production/_ext/1501229872/spi_flash.o
 .debug_info    0x00000000     0x1357 build/sam_a5d27_som1_winc3400/production/_ext/1501229872/spi_flash.o
 .debug_abbrev  0x00000000      0x2f2 build/sam_a5d27_som1_winc3400/production/_ext/1501229872/spi_flash.o
 .debug_loc     0x00000000      0xe18 build/sam_a5d27_som1_winc3400/production/_ext/1501229872/spi_flash.o
 .debug_aranges
                0x00000000       0x58 build/sam_a5d27_som1_winc3400/production/_ext/1501229872/spi_flash.o
 .debug_ranges  0x00000000       0xb8 build/sam_a5d27_som1_winc3400/production/_ext/1501229872/spi_flash.o
 .debug_line    0x00000000      0x830 build/sam_a5d27_som1_winc3400/production/_ext/1501229872/spi_flash.o
 .debug_str     0x00000000       0xbf build/sam_a5d27_som1_winc3400/production/_ext/1501229872/spi_flash.o
 .comment       0x00000000       0x2c build/sam_a5d27_som1_winc3400/production/_ext/1501229872/spi_flash.o
 .debug_frame   0x00000000      0x13c build/sam_a5d27_som1_winc3400/production/_ext/1501229872/spi_flash.o
 .ARM.attributes
                0x00000000       0x39 build/sam_a5d27_som1_winc3400/production/_ext/1501229872/spi_flash.o
 .text          0x00000000        0x0 build/sam_a5d27_som1_winc3400/production/_ext/973425813/wdrv_winc_osal.o
 .data          0x00000000        0x0 build/sam_a5d27_som1_winc3400/production/_ext/973425813/wdrv_winc_osal.o
 .bss           0x00000000        0x0 build/sam_a5d27_som1_winc3400/production/_ext/973425813/wdrv_winc_osal.o
 .text          0x00000000        0x0 build/sam_a5d27_som1_winc3400/production/_ext/237603529/wdrv_winc_softap.o
 .data          0x00000000        0x0 build/sam_a5d27_som1_winc3400/production/_ext/237603529/wdrv_winc_softap.o
 .bss           0x00000000        0x0 build/sam_a5d27_som1_winc3400/production/_ext/237603529/wdrv_winc_softap.o
 .text.WDRV_WINC_APStart
                0x00000000      0x228 build/sam_a5d27_som1_winc3400/production/_ext/237603529/wdrv_winc_softap.o
 .text.WDRV_WINC_APStop
                0x00000000       0xbc build/sam_a5d27_som1_winc3400/production/_ext/237603529/wdrv_winc_softap.o
 .text.WDRV_WINC_APSetCustIE
                0x00000000       0x7c build/sam_a5d27_som1_winc3400/production/_ext/237603529/wdrv_winc_softap.o
 .debug_info    0x00000000     0x2624 build/sam_a5d27_som1_winc3400/production/_ext/237603529/wdrv_winc_softap.o
 .debug_abbrev  0x00000000      0x2cd build/sam_a5d27_som1_winc3400/production/_ext/237603529/wdrv_winc_softap.o
 .debug_loc     0x00000000      0x623 build/sam_a5d27_som1_winc3400/production/_ext/237603529/wdrv_winc_softap.o
 .debug_aranges
                0x00000000       0x30 build/sam_a5d27_som1_winc3400/production/_ext/237603529/wdrv_winc_softap.o
 .debug_ranges  0x00000000       0x20 build/sam_a5d27_som1_winc3400/production/_ext/237603529/wdrv_winc_softap.o
 .debug_line    0x00000000      0x628 build/sam_a5d27_som1_winc3400/production/_ext/237603529/wdrv_winc_softap.o
 .debug_str     0x00000000       0xfb build/sam_a5d27_som1_winc3400/production/_ext/237603529/wdrv_winc_softap.o
 .comment       0x00000000       0x2c build/sam_a5d27_som1_winc3400/production/_ext/237603529/wdrv_winc_softap.o
 .debug_frame   0x00000000       0x8c build/sam_a5d27_som1_winc3400/production/_ext/237603529/wdrv_winc_softap.o
 .ARM.attributes
                0x00000000       0x39 build/sam_a5d27_som1_winc3400/production/_ext/237603529/wdrv_winc_softap.o
 .text          0x00000000        0x0 build/sam_a5d27_som1_winc3400/production/_ext/237603529/wdrv_winc_assoc.o
 .data          0x00000000        0x0 build/sam_a5d27_som1_winc3400/production/_ext/237603529/wdrv_winc_assoc.o
 .bss           0x00000000        0x0 build/sam_a5d27_som1_winc3400/production/_ext/237603529/wdrv_winc_assoc.o
 .text.WDRV_WINC_AssocSSIDGet
                0x00000000       0xcc build/sam_a5d27_som1_winc3400/production/_ext/237603529/wdrv_winc_assoc.o
 .text.WDRV_WINC_AssocPeerAddressGet
                0x00000000       0xa4 build/sam_a5d27_som1_winc3400/production/_ext/237603529/wdrv_winc_assoc.o
 .text.WDRV_WINC_AssocAuthTypeGet
                0x00000000       0x94 build/sam_a5d27_som1_winc3400/production/_ext/237603529/wdrv_winc_assoc.o
 .text.WDRV_WINC_AssocRSSIGet
                0x00000000       0xa8 build/sam_a5d27_som1_winc3400/production/_ext/237603529/wdrv_winc_assoc.o
 .text.WDRV_WINC_AssocDisconnect
                0x00000000       0x48 build/sam_a5d27_som1_winc3400/production/_ext/237603529/wdrv_winc_assoc.o
 .debug_info    0x00000000     0x2276 build/sam_a5d27_som1_winc3400/production/_ext/237603529/wdrv_winc_assoc.o
 .debug_abbrev  0x00000000      0x26e build/sam_a5d27_som1_winc3400/production/_ext/237603529/wdrv_winc_assoc.o
 .debug_loc     0x00000000      0x8c2 build/sam_a5d27_som1_winc3400/production/_ext/237603529/wdrv_winc_assoc.o
 .debug_aranges
                0x00000000       0x40 build/sam_a5d27_som1_winc3400/production/_ext/237603529/wdrv_winc_assoc.o
 .debug_ranges  0x00000000       0x30 build/sam_a5d27_som1_winc3400/production/_ext/237603529/wdrv_winc_assoc.o
 .debug_line    0x00000000      0x55a build/sam_a5d27_som1_winc3400/production/_ext/237603529/wdrv_winc_assoc.o
 .debug_str     0x00000000       0xc6 build/sam_a5d27_som1_winc3400/production/_ext/237603529/wdrv_winc_assoc.o
 .comment       0x00000000       0x2c build/sam_a5d27_som1_winc3400/production/_ext/237603529/wdrv_winc_assoc.o
 .debug_frame   0x00000000       0xa0 build/sam_a5d27_som1_winc3400/production/_ext/237603529/wdrv_winc_assoc.o
 .ARM.attributes
                0x00000000       0x39 build/sam_a5d27_som1_winc3400/production/_ext/237603529/wdrv_winc_assoc.o
 .text          0x00000000        0x0 build/sam_a5d27_som1_winc3400/production/_ext/237603529/wdrv_winc_httpprovctx.o
 .data          0x00000000        0x0 build/sam_a5d27_som1_winc3400/production/_ext/237603529/wdrv_winc_httpprovctx.o
 .bss           0x00000000        0x0 build/sam_a5d27_som1_winc3400/production/_ext/237603529/wdrv_winc_httpprovctx.o
 .text.WDRV_WINC_HTTPProvCtxSetDefaults
                0x00000000       0x28 build/sam_a5d27_som1_winc3400/production/_ext/237603529/wdrv_winc_httpprovctx.o
 .text.WDRV_WINC_HTTPProvCtxSetDomainName
                0x00000000       0x60 build/sam_a5d27_som1_winc3400/production/_ext/237603529/wdrv_winc_httpprovctx.o
 .text.WDRV_WINC_HTTPProvCtxSetURLWildcard
                0x00000000       0x1c build/sam_a5d27_som1_winc3400/production/_ext/237603529/wdrv_winc_httpprovctx.o
 .text.WDRV_WINC_HTTPProvCtxSetConnectCallback
                0x00000000       0x1c build/sam_a5d27_som1_winc3400/production/_ext/237603529/wdrv_winc_httpprovctx.o
 .debug_info    0x00000000      0xc7e build/sam_a5d27_som1_winc3400/production/_ext/237603529/wdrv_winc_httpprovctx.o
 .debug_abbrev  0x00000000      0x1f5 build/sam_a5d27_som1_winc3400/production/_ext/237603529/wdrv_winc_httpprovctx.o
 .debug_loc     0x00000000      0x1a3 build/sam_a5d27_som1_winc3400/production/_ext/237603529/wdrv_winc_httpprovctx.o
 .debug_aranges
                0x00000000       0x38 build/sam_a5d27_som1_winc3400/production/_ext/237603529/wdrv_winc_httpprovctx.o
 .debug_ranges  0x00000000       0x28 build/sam_a5d27_som1_winc3400/production/_ext/237603529/wdrv_winc_httpprovctx.o
 .debug_line    0x00000000      0x2c3 build/sam_a5d27_som1_winc3400/production/_ext/237603529/wdrv_winc_httpprovctx.o
 .debug_str     0x00000000       0x5a build/sam_a5d27_som1_winc3400/production/_ext/237603529/wdrv_winc_httpprovctx.o
 .comment       0x00000000       0x2c build/sam_a5d27_som1_winc3400/production/_ext/237603529/wdrv_winc_httpprovctx.o
 .debug_frame   0x00000000       0x5c build/sam_a5d27_som1_winc3400/production/_ext/237603529/wdrv_winc_httpprovctx.o
 .ARM.attributes
                0x00000000       0x39 build/sam_a5d27_som1_winc3400/production/_ext/237603529/wdrv_winc_httpprovctx.o
 .text          0x00000000        0x0 build/sam_a5d27_som1_winc3400/production/_ext/237603529/wdrv_winc_wps.o
 .data          0x00000000        0x0 build/sam_a5d27_som1_winc3400/production/_ext/237603529/wdrv_winc_wps.o
 .bss           0x00000000        0x0 build/sam_a5d27_som1_winc3400/production/_ext/237603529/wdrv_winc_wps.o
 .text.WDRV_WINC_WPSEnrolleeDiscoveryStartPIN
                0x00000000      0x194 build/sam_a5d27_som1_winc3400/production/_ext/237603529/wdrv_winc_wps.o
 .text.WDRV_WINC_WPSEnrolleeDiscoveryStartPBC
                0x00000000       0x60 build/sam_a5d27_som1_winc3400/production/_ext/237603529/wdrv_winc_wps.o
 .text.WDRV_WINC_WPSEnrolleeDiscoveryStop
                0x00000000       0x40 build/sam_a5d27_som1_winc3400/production/_ext/237603529/wdrv_winc_wps.o
 .rodata        0x00000000        0x8 build/sam_a5d27_som1_winc3400/production/_ext/237603529/wdrv_winc_wps.o
 .debug_info    0x00000000     0x224a build/sam_a5d27_som1_winc3400/production/_ext/237603529/wdrv_winc_wps.o
 .debug_abbrev  0x00000000      0x2af build/sam_a5d27_som1_winc3400/production/_ext/237603529/wdrv_winc_wps.o
 .debug_loc     0x00000000      0x76d build/sam_a5d27_som1_winc3400/production/_ext/237603529/wdrv_winc_wps.o
 .debug_aranges
                0x00000000       0x30 build/sam_a5d27_som1_winc3400/production/_ext/237603529/wdrv_winc_wps.o
 .debug_ranges  0x00000000       0x20 build/sam_a5d27_som1_winc3400/production/_ext/237603529/wdrv_winc_wps.o
 .debug_line    0x00000000      0x459 build/sam_a5d27_som1_winc3400/production/_ext/237603529/wdrv_winc_wps.o
 .debug_str     0x00000000       0x8c build/sam_a5d27_som1_winc3400/production/_ext/237603529/wdrv_winc_wps.o
 .comment       0x00000000       0x2c build/sam_a5d27_som1_winc3400/production/_ext/237603529/wdrv_winc_wps.o
 .debug_frame   0x00000000       0x88 build/sam_a5d27_som1_winc3400/production/_ext/237603529/wdrv_winc_wps.o
 .ARM.attributes
                0x00000000       0x39 build/sam_a5d27_som1_winc3400/production/_ext/237603529/wdrv_winc_wps.o
 .text          0x00000000        0x0 build/sam_a5d27_som1_winc3400/production/_ext/237603529/wdrv_winc_systime.o
 .data          0x00000000        0x0 build/sam_a5d27_som1_winc3400/production/_ext/237603529/wdrv_winc_systime.o
 .bss           0x00000000        0x0 build/sam_a5d27_som1_winc3400/production/_ext/237603529/wdrv_winc_systime.o
 .text.WDRV_WINC_UTCToLocalTime
                0x00000000       0x6c build/sam_a5d27_som1_winc3400/production/_ext/237603529/wdrv_winc_systime.o
 .text.WDRV_WINC_SystemTimeSNTPClientEnable
                0x00000000       0xa4 build/sam_a5d27_som1_winc3400/production/_ext/237603529/wdrv_winc_systime.o
 .text.WDRV_WINC_SystemTimeSNTPClientDisable
                0x00000000       0x44 build/sam_a5d27_som1_winc3400/production/_ext/237603529/wdrv_winc_systime.o
 .text.WDRV_WINC_SystemTimeSetCurrent
                0x00000000       0x4c build/sam_a5d27_som1_winc3400/production/_ext/237603529/wdrv_winc_systime.o
 .text.WDRV_WINC_SystemTimeGetCurrent
                0x00000000       0x58 build/sam_a5d27_som1_winc3400/production/_ext/237603529/wdrv_winc_systime.o
 .text          0x00000000        0x0 build/sam_a5d27_som1_winc3400/production/_ext/237603529/wdrv_winc_sta.o
 .data          0x00000000        0x0 build/sam_a5d27_som1_winc3400/production/_ext/237603529/wdrv_winc_sta.o
 .bss           0x00000000        0x0 build/sam_a5d27_som1_winc3400/production/_ext/237603529/wdrv_winc_sta.o
 .text.WDRV_WINC_BSSDisconnect
                0x00000000       0x88 build/sam_a5d27_som1_winc3400/production/_ext/237603529/wdrv_winc_sta.o
 .text.WDRV_WINC_BSSRoamingConfigure
                0x00000000       0x7c build/sam_a5d27_som1_winc3400/production/_ext/237603529/wdrv_winc_sta.o
 .text          0x00000000        0x0 build/sam_a5d27_som1_winc3400/production/_ext/237603529/wdrv_winc_bssctx.o
 .data          0x00000000        0x0 build/sam_a5d27_som1_winc3400/production/_ext/237603529/wdrv_winc_bssctx.o
 .bss           0x00000000        0x0 build/sam_a5d27_som1_winc3400/production/_ext/237603529/wdrv_winc_bssctx.o
 .text.WDRV_WINC_BSSCtxSetBSSID
                0x00000000       0x60 build/sam_a5d27_som1_winc3400/production/_ext/237603529/wdrv_winc_bssctx.o
 .text.WDRV_WINC_BSSCtxSetSSIDVisibility
                0x00000000       0x34 build/sam_a5d27_som1_winc3400/production/_ext/237603529/wdrv_winc_bssctx.o
 .text          0x00000000        0x0 build/sam_a5d27_som1_winc3400/production/_ext/237603529/wdrv_winc_bssfind.o
 .data          0x00000000        0x0 build/sam_a5d27_som1_winc3400/production/_ext/237603529/wdrv_winc_bssfind.o
 .bss           0x00000000        0x0 build/sam_a5d27_som1_winc3400/production/_ext/237603529/wdrv_winc_bssfind.o
 .text.WDRV_WINC_BSSFindReset
                0x00000000       0xa0 build/sam_a5d27_som1_winc3400/production/_ext/237603529/wdrv_winc_bssfind.o
 .text.WDRV_WINC_BSSFindSetScanParameters
                0x00000000       0xf4 build/sam_a5d27_som1_winc3400/production/_ext/237603529/wdrv_winc_bssfind.o
 .text.WDRV_WINC_BSSFindSetRSSIThreshold
                0x00000000       0x50 build/sam_a5d27_som1_winc3400/production/_ext/237603529/wdrv_winc_bssfind.o
 .text.WDRV_WINC_BSSFindSetEnabledChannels
                0x00000000       0x58 build/sam_a5d27_som1_winc3400/production/_ext/237603529/wdrv_winc_bssfind.o
 .text.WDRV_WINC_BSSFindSetScanMatchMode
                0x00000000       0x78 build/sam_a5d27_som1_winc3400/production/_ext/237603529/wdrv_winc_bssfind.o
 .text          0x00000000        0x0 build/sam_a5d27_som1_winc3400/production/_ext/237603529/wdrv_winc_custie.o
 .data          0x00000000        0x0 build/sam_a5d27_som1_winc3400/production/_ext/237603529/wdrv_winc_custie.o
 .bss           0x00000000        0x0 build/sam_a5d27_som1_winc3400/production/_ext/237603529/wdrv_winc_custie.o
 .text.WDRV_WINC_CustIEStoreCtxSetStorage
                0x00000000       0x60 build/sam_a5d27_som1_winc3400/production/_ext/237603529/wdrv_winc_custie.o
 .text.WDRV_WINC_CustIEStoreCtxAddIE
                0x00000000       0xc4 build/sam_a5d27_som1_winc3400/production/_ext/237603529/wdrv_winc_custie.o
 .text.WDRV_WINC_CustIEStoreCtxRemoveIE
                0x00000000       0xf0 build/sam_a5d27_som1_winc3400/production/_ext/237603529/wdrv_winc_custie.o
 .debug_info    0x00000000      0x8cb build/sam_a5d27_som1_winc3400/production/_ext/237603529/wdrv_winc_custie.o
 .debug_abbrev  0x00000000      0x13f build/sam_a5d27_som1_winc3400/production/_ext/237603529/wdrv_winc_custie.o
 .debug_loc     0x00000000      0x380 build/sam_a5d27_som1_winc3400/production/_ext/237603529/wdrv_winc_custie.o
 .debug_aranges
                0x00000000       0x30 build/sam_a5d27_som1_winc3400/production/_ext/237603529/wdrv_winc_custie.o
 .debug_ranges  0x00000000       0x20 build/sam_a5d27_som1_winc3400/production/_ext/237603529/wdrv_winc_custie.o
 .debug_line    0x00000000      0x2ca build/sam_a5d27_som1_winc3400/production/_ext/237603529/wdrv_winc_custie.o
 .debug_str     0x00000000       0x16 build/sam_a5d27_som1_winc3400/production/_ext/237603529/wdrv_winc_custie.o
 .comment       0x00000000       0x2c build/sam_a5d27_som1_winc3400/production/_ext/237603529/wdrv_winc_custie.o
 .debug_frame   0x00000000       0x64 build/sam_a5d27_som1_winc3400/production/_ext/237603529/wdrv_winc_custie.o
 .ARM.attributes
                0x00000000       0x39 build/sam_a5d27_som1_winc3400/production/_ext/237603529/wdrv_winc_custie.o
 .text          0x00000000        0x0 build/sam_a5d27_som1_winc3400/production/_ext/237603529/wdrv_winc_nvm.o
 .data          0x00000000        0x0 build/sam_a5d27_som1_winc3400/production/_ext/237603529/wdrv_winc_nvm.o
 .bss           0x00000000        0x0 build/sam_a5d27_som1_winc3400/production/_ext/237603529/wdrv_winc_nvm.o
 .text._WDRV_WINC_NVMCRC7
                0x00000000       0x70 build/sam_a5d27_som1_winc3400/production/_ext/237603529/wdrv_winc_nvm.o
 .text._WDRV_WINC_NVMFindSection
                0x00000000      0x1b4 build/sam_a5d27_som1_winc3400/production/_ext/237603529/wdrv_winc_nvm.o
 .text.WDRV_WINC_NVMEraseSector
                0x00000000       0xe8 build/sam_a5d27_som1_winc3400/production/_ext/237603529/wdrv_winc_nvm.o
 .text.WDRV_WINC_NVMWrite
                0x00000000       0xf8 build/sam_a5d27_som1_winc3400/production/_ext/237603529/wdrv_winc_nvm.o
 .text.WDRV_WINC_NVMRead
                0x00000000       0xe8 build/sam_a5d27_som1_winc3400/production/_ext/237603529/wdrv_winc_nvm.o
 .rodata        0x00000000       0x20 build/sam_a5d27_som1_winc3400/production/_ext/237603529/wdrv_winc_nvm.o
 .rodata.flashMap
                0x00000000       0x50 build/sam_a5d27_som1_winc3400/production/_ext/237603529/wdrv_winc_nvm.o
 .debug_info    0x00000000     0x34b7 build/sam_a5d27_som1_winc3400/production/_ext/237603529/wdrv_winc_nvm.o
 .debug_abbrev  0x00000000      0x389 build/sam_a5d27_som1_winc3400/production/_ext/237603529/wdrv_winc_nvm.o
 .debug_loc     0x00000000      0xa79 build/sam_a5d27_som1_winc3400/production/_ext/237603529/wdrv_winc_nvm.o
 .debug_aranges
                0x00000000       0x40 build/sam_a5d27_som1_winc3400/production/_ext/237603529/wdrv_winc_nvm.o
 .debug_ranges  0x00000000       0x50 build/sam_a5d27_som1_winc3400/production/_ext/237603529/wdrv_winc_nvm.o
 .debug_line    0x00000000      0x763 build/sam_a5d27_som1_winc3400/production/_ext/237603529/wdrv_winc_nvm.o
 .debug_str     0x00000000      0x117 build/sam_a5d27_som1_winc3400/production/_ext/237603529/wdrv_winc_nvm.o
 .comment       0x00000000       0x2c build/sam_a5d27_som1_winc3400/production/_ext/237603529/wdrv_winc_nvm.o
 .debug_frame   0x00000000       0xe4 build/sam_a5d27_som1_winc3400/production/_ext/237603529/wdrv_winc_nvm.o
 .ARM.attributes
                0x00000000       0x39 build/sam_a5d27_som1_winc3400/production/_ext/237603529/wdrv_winc_nvm.o
 .text          0x00000000        0x0 build/sam_a5d27_som1_winc3400/production/_ext/237603529/wdrv_winc_socket.o
 .data          0x00000000        0x0 build/sam_a5d27_som1_winc3400/production/_ext/237603529/wdrv_winc_socket.o
 .bss           0x00000000        0x0 build/sam_a5d27_som1_winc3400/production/_ext/237603529/wdrv_winc_socket.o
 .text._WDRV_WINC_ICMPEchoResponseCallback
                0x00000000       0x48 build/sam_a5d27_som1_winc3400/production/_ext/237603529/wdrv_winc_socket.o
 .text.WDRV_WINC_IPAddressSet
                0x00000000       0x6c build/sam_a5d27_som1_winc3400/production/_ext/237603529/wdrv_winc_socket.o
 .text.WDRV_WINC_IPAddressGet
                0x00000000       0x58 build/sam_a5d27_som1_winc3400/production/_ext/237603529/wdrv_winc_socket.o
 .text.WDRV_WINC_IPDNSServerAddressSet
                0x00000000       0x64 build/sam_a5d27_som1_winc3400/production/_ext/237603529/wdrv_winc_socket.o
 .text.WDRV_WINC_IPDefaultGatewaySet
                0x00000000       0x64 build/sam_a5d27_som1_winc3400/production/_ext/237603529/wdrv_winc_socket.o
 .text.WDRV_WINC_IPUseDHCPGet
                0x00000000       0x4c build/sam_a5d27_som1_winc3400/production/_ext/237603529/wdrv_winc_socket.o
 .text.WDRV_WINC_IPDHCPServerConfigure
                0x00000000       0x5c build/sam_a5d27_som1_winc3400/production/_ext/237603529/wdrv_winc_socket.o
 .text.WDRV_WINC_ICMPEchoRequest
                0x00000000       0x90 build/sam_a5d27_som1_winc3400/production/_ext/237603529/wdrv_winc_socket.o
 .text.WDRV_WINC_OTAUpdateFromURL
                0x00000000       0x9c build/sam_a5d27_som1_winc3400/production/_ext/237603529/wdrv_winc_socket.o
 .text.WDRV_WINC_OTAUpdateAbort
                0x00000000       0x68 build/sam_a5d27_som1_winc3400/production/_ext/237603529/wdrv_winc_socket.o
 .text.WDRV_WINC_RollbackActiveFirmwareImage
                0x00000000       0x68 build/sam_a5d27_som1_winc3400/production/_ext/237603529/wdrv_winc_socket.o
 .text.WDRV_WINC_SwitchActiveFirmwareImage
                0x00000000       0x68 build/sam_a5d27_som1_winc3400/production/_ext/237603529/wdrv_winc_socket.o
 .text.WDRV_WINC_SocketRegisterEventCallback
                0x00000000       0x24 build/sam_a5d27_som1_winc3400/production/_ext/237603529/wdrv_winc_socket.o
 .text.WDRV_WINC_SocketRegisterResolverCallback
                0x00000000       0x24 build/sam_a5d27_som1_winc3400/production/_ext/237603529/wdrv_winc_socket.o
 .text          0x00000000        0x0 build/sam_a5d27_som1_winc3400/production/_ext/237603529/wdrv_winc_powersave.o
 .data          0x00000000        0x0 build/sam_a5d27_som1_winc3400/production/_ext/237603529/wdrv_winc_powersave.o
 .bss           0x00000000        0x0 build/sam_a5d27_som1_winc3400/production/_ext/237603529/wdrv_winc_powersave.o
 .text.WDRV_WINC_PowerSaveSetMode
                0x00000000       0x68 build/sam_a5d27_som1_winc3400/production/_ext/237603529/wdrv_winc_powersave.o
 .text.WDRV_WINC_PowerSaveGetMode
                0x00000000       0x38 build/sam_a5d27_som1_winc3400/production/_ext/237603529/wdrv_winc_powersave.o
 .text.WDRV_WINC_PowerSaveSetBeaconInterval
                0x00000000       0xd0 build/sam_a5d27_som1_winc3400/production/_ext/237603529/wdrv_winc_powersave.o
 .debug_info    0x00000000     0x223e build/sam_a5d27_som1_winc3400/production/_ext/237603529/wdrv_winc_powersave.o
 .debug_abbrev  0x00000000      0x22a build/sam_a5d27_som1_winc3400/production/_ext/237603529/wdrv_winc_powersave.o
 .debug_loc     0x00000000      0x412 build/sam_a5d27_som1_winc3400/production/_ext/237603529/wdrv_winc_powersave.o
 .debug_aranges
                0x00000000       0x30 build/sam_a5d27_som1_winc3400/production/_ext/237603529/wdrv_winc_powersave.o
 .debug_ranges  0x00000000       0x20 build/sam_a5d27_som1_winc3400/production/_ext/237603529/wdrv_winc_powersave.o
 .debug_line    0x00000000      0x43d build/sam_a5d27_som1_winc3400/production/_ext/237603529/wdrv_winc_powersave.o
 .debug_str     0x00000000       0x8c build/sam_a5d27_som1_winc3400/production/_ext/237603529/wdrv_winc_powersave.o
 .comment       0x00000000       0x2c build/sam_a5d27_som1_winc3400/production/_ext/237603529/wdrv_winc_powersave.o
 .debug_frame   0x00000000       0x78 build/sam_a5d27_som1_winc3400/production/_ext/237603529/wdrv_winc_powersave.o
 .ARM.attributes
                0x00000000       0x39 build/sam_a5d27_som1_winc3400/production/_ext/237603529/wdrv_winc_powersave.o
 .text          0x00000000        0x0 build/sam_a5d27_som1_winc3400/production/_ext/237603529/wdrv_winc.o
 .data          0x00000000        0x0 build/sam_a5d27_som1_winc3400/production/_ext/237603529/wdrv_winc.o
 .bss           0x00000000        0x0 build/sam_a5d27_som1_winc3400/production/_ext/237603529/wdrv_winc.o
 .text.WDRV_WINC_Deinitialize
                0x00000000       0x68 build/sam_a5d27_som1_winc3400/production/_ext/237603529/wdrv_winc.o
 .text.WDRV_WINC_Reinitialize
                0x00000000        0x4 build/sam_a5d27_som1_winc3400/production/_ext/237603529/wdrv_winc.o
 .text.WDRV_WINC_StatusExt
                0x00000000       0x3c build/sam_a5d27_som1_winc3400/production/_ext/237603529/wdrv_winc.o
 .text.WDRV_WINC_Close
                0x00000000       0x44 build/sam_a5d27_som1_winc3400/production/_ext/237603529/wdrv_winc.o
 .text.WDRV_WINC_MulticastMACFilterAdd
                0x00000000       0x44 build/sam_a5d27_som1_winc3400/production/_ext/237603529/wdrv_winc.o
 .text.WDRV_WINC_MulticastMACFilterRemove
                0x00000000       0x44 build/sam_a5d27_som1_winc3400/production/_ext/237603529/wdrv_winc.o
 .text.WDRV_WINC_EthernetAddressGet
                0x00000000       0x50 build/sam_a5d27_som1_winc3400/production/_ext/237603529/wdrv_winc.o
 .text.WDRV_WINC_OperatingModeGet
                0x00000000       0x50 build/sam_a5d27_som1_winc3400/production/_ext/237603529/wdrv_winc.o
 .text.WDRV_WINC_UserHandleSet
                0x00000000       0x48 build/sam_a5d27_som1_winc3400/production/_ext/237603529/wdrv_winc.o
 .text.WDRV_WINC_UserHandleGet
                0x00000000       0x44 build/sam_a5d27_som1_winc3400/production/_ext/237603529/wdrv_winc.o
 .text.WDRV_WINC_InfoDriverVersionGet
                0x00000000       0x68 build/sam_a5d27_som1_winc3400/production/_ext/237603529/wdrv_winc.o
 .text.WDRV_WINC_InfoDeviceFirmwareVersionGet
                0x00000000       0xf8 build/sam_a5d27_som1_winc3400/production/_ext/237603529/wdrv_winc.o
 .text.WDRV_WINC_InfoDeviceIDGet
                0x00000000       0x34 build/sam_a5d27_som1_winc3400/production/_ext/237603529/wdrv_winc.o
 .text.WDRV_WINC_InfoDeviceMACAddressGet
                0x00000000       0x88 build/sam_a5d27_som1_winc3400/production/_ext/237603529/wdrv_winc.o
 .text.WDRV_WINC_InfoDeviceNameSet
                0x00000000       0x64 build/sam_a5d27_som1_winc3400/production/_ext/237603529/wdrv_winc.o
 .text.WDRV_WINC_GainTableIndexSet
                0x00000000       0x44 build/sam_a5d27_som1_winc3400/production/_ext/237603529/wdrv_winc.o
 .text          0x00000000        0x0 build/sam_a5d27_som1_winc3400/production/_ext/237603529/wdrv_winc_ssl.o
 .data          0x00000000        0x0 build/sam_a5d27_som1_winc3400/production/_ext/237603529/wdrv_winc_ssl.o
 .bss           0x00000000        0x0 build/sam_a5d27_som1_winc3400/production/_ext/237603529/wdrv_winc_ssl.o
 .text.WDRV_WINC_SSLCTXDefault
                0x00000000       0x20 build/sam_a5d27_som1_winc3400/production/_ext/237603529/wdrv_winc_ssl.o
 .text.WDRV_WINC_SSLCTXCipherSuitesSet
                0x00000000       0xdc build/sam_a5d27_som1_winc3400/production/_ext/237603529/wdrv_winc_ssl.o
 .text.WDRV_WINC_SSLCTXCipherSuitesGet
                0x00000000       0x98 build/sam_a5d27_som1_winc3400/production/_ext/237603529/wdrv_winc_ssl.o
 .text.WDRV_WINC_SSLActiveCipherSuitesSet
                0x00000000       0x6c build/sam_a5d27_som1_winc3400/production/_ext/237603529/wdrv_winc_ssl.o
 .text.WDRV_WINC_SSLECCReqCallbackSet
                0x00000000       0x48 build/sam_a5d27_som1_winc3400/production/_ext/237603529/wdrv_winc_ssl.o
 .text.WDRV_WINC_SSLECCHandShakeRsp
                0x00000000      0x298 build/sam_a5d27_som1_winc3400/production/_ext/237603529/wdrv_winc_ssl.o
 .text.WDRV_WINC_SSLRetrieveCert
                0x00000000      0x104 build/sam_a5d27_som1_winc3400/production/_ext/237603529/wdrv_winc_ssl.o
 .text.WDRV_WINC_SSLRetrieveHash
                0x00000000       0x54 build/sam_a5d27_som1_winc3400/production/_ext/237603529/wdrv_winc_ssl.o
 .text.WDRV_WINC_SSLStopRetrieveCert
                0x00000000       0x34 build/sam_a5d27_som1_winc3400/production/_ext/237603529/wdrv_winc_ssl.o
 .rodata._cipherSuiteMap
                0x00000000       0x40 build/sam_a5d27_som1_winc3400/production/_ext/237603529/wdrv_winc_ssl.o
 .debug_info    0x00000000     0x3295 build/sam_a5d27_som1_winc3400/production/_ext/237603529/wdrv_winc_ssl.o
 .debug_abbrev  0x00000000      0x347 build/sam_a5d27_som1_winc3400/production/_ext/237603529/wdrv_winc_ssl.o
 .debug_loc     0x00000000      0xdba build/sam_a5d27_som1_winc3400/production/_ext/237603529/wdrv_winc_ssl.o
 .debug_aranges
                0x00000000       0x60 build/sam_a5d27_som1_winc3400/production/_ext/237603529/wdrv_winc_ssl.o
 .debug_ranges  0x00000000       0x50 build/sam_a5d27_som1_winc3400/production/_ext/237603529/wdrv_winc_ssl.o
 .debug_line    0x00000000      0x71a build/sam_a5d27_som1_winc3400/production/_ext/237603529/wdrv_winc_ssl.o
 .debug_str     0x00000000      0x12e build/sam_a5d27_som1_winc3400/production/_ext/237603529/wdrv_winc_ssl.o
 .comment       0x00000000       0x2c build/sam_a5d27_som1_winc3400/production/_ext/237603529/wdrv_winc_ssl.o
 .debug_frame   0x00000000      0x114 build/sam_a5d27_som1_winc3400/production/_ext/237603529/wdrv_winc_ssl.o
 .ARM.attributes
                0x00000000       0x39 build/sam_a5d27_som1_winc3400/production/_ext/237603529/wdrv_winc_ssl.o
 .text          0x00000000        0x0 build/sam_a5d27_som1_winc3400/production/_ext/237603529/wdrv_winc_enterprise.o
 .data          0x00000000        0x0 build/sam_a5d27_som1_winc3400/production/_ext/237603529/wdrv_winc_enterprise.o
 .bss           0x00000000        0x0 build/sam_a5d27_som1_winc3400/production/_ext/237603529/wdrv_winc_enterprise.o
 .text.WDRV_WINC_EntSec802_1XServerAuthSet
                0x00000000       0x5c build/sam_a5d27_som1_winc3400/production/_ext/237603529/wdrv_winc_enterprise.o
 .text.WDRV_WINC_EntSec802_1XServerAuthGet
                0x00000000       0x64 build/sam_a5d27_som1_winc3400/production/_ext/237603529/wdrv_winc_enterprise.o
 .text.WDRV_WINC_EntSec802_1XRootCertHashSet
                0x00000000       0x50 build/sam_a5d27_som1_winc3400/production/_ext/237603529/wdrv_winc_enterprise.o
 .text.WDRV_WINC_EntSec802_1XRootCertHashGet
                0x00000000       0x78 build/sam_a5d27_som1_winc3400/production/_ext/237603529/wdrv_winc_enterprise.o
 .text.WDRV_WINC_EntSec802_1XCertExpCheckSet
                0x00000000       0x94 build/sam_a5d27_som1_winc3400/production/_ext/237603529/wdrv_winc_enterprise.o
 .text.WDRV_WINC_EntSec802_1XCertExpCheckGet
                0x00000000       0x90 build/sam_a5d27_som1_winc3400/production/_ext/237603529/wdrv_winc_enterprise.o
 .text.WDRV_WINC_EntSec802_1XSessionCacheSet
                0x00000000       0x58 build/sam_a5d27_som1_winc3400/production/_ext/237603529/wdrv_winc_enterprise.o
 .text.WDRV_WINC_EntSec802_1XSessionCache
                0x00000000       0x64 build/sam_a5d27_som1_winc3400/production/_ext/237603529/wdrv_winc_enterprise.o
 .debug_info    0x00000000     0x2721 build/sam_a5d27_som1_winc3400/production/_ext/237603529/wdrv_winc_enterprise.o
 .debug_abbrev  0x00000000      0x2a7 build/sam_a5d27_som1_winc3400/production/_ext/237603529/wdrv_winc_enterprise.o
 .debug_loc     0x00000000      0x9f5 build/sam_a5d27_som1_winc3400/production/_ext/237603529/wdrv_winc_enterprise.o
 .debug_aranges
                0x00000000       0x58 build/sam_a5d27_som1_winc3400/production/_ext/237603529/wdrv_winc_enterprise.o
 .debug_ranges  0x00000000       0x48 build/sam_a5d27_som1_winc3400/production/_ext/237603529/wdrv_winc_enterprise.o
 .debug_line    0x00000000      0x5e0 build/sam_a5d27_som1_winc3400/production/_ext/237603529/wdrv_winc_enterprise.o
 .debug_str     0x00000000       0x9e build/sam_a5d27_som1_winc3400/production/_ext/237603529/wdrv_winc_enterprise.o
 .comment       0x00000000       0x2c build/sam_a5d27_som1_winc3400/production/_ext/237603529/wdrv_winc_enterprise.o
 .debug_frame   0x00000000      0x11c build/sam_a5d27_som1_winc3400/production/_ext/237603529/wdrv_winc_enterprise.o
 .ARM.attributes
                0x00000000       0x39 build/sam_a5d27_som1_winc3400/production/_ext/237603529/wdrv_winc_enterprise.o
 .text          0x00000000        0x0 build/sam_a5d27_som1_winc3400/production/_ext/237603529/wdrv_winc_authctx.o
 .data          0x00000000        0x0 build/sam_a5d27_som1_winc3400/production/_ext/237603529/wdrv_winc_authctx.o
 .bss           0x00000000        0x0 build/sam_a5d27_som1_winc3400/production/_ext/237603529/wdrv_winc_authctx.o
 .text.WDRV_WINC_AuthCtxIsValid
                0x00000000       0x48 build/sam_a5d27_som1_winc3400/production/_ext/237603529/wdrv_winc_authctx.o
 .text.WDRV_WINC_AuthCtxSetDefaults
                0x00000000       0x1c build/sam_a5d27_som1_winc3400/production/_ext/237603529/wdrv_winc_authctx.o
 .text.WDRV_WINC_AuthCtxSetWPAEnterpriseMSCHAPv2
                0x00000000       0xf0 build/sam_a5d27_som1_winc3400/production/_ext/237603529/wdrv_winc_authctx.o
 .text.WDRV_WINC_AuthCtxSetWPAEnterpriseTLS
                0x00000000      0x248 build/sam_a5d27_som1_winc3400/production/_ext/237603529/wdrv_winc_authctx.o
 .rodata.rsaPriKeyMap
                0x00000000       0x28 build/sam_a5d27_som1_winc3400/production/_ext/237603529/wdrv_winc_authctx.o
 .text          0x00000000        0x0 build/sam_a5d27_som1_winc3400/production/_ext/883939571/plib_aic.o
 .data          0x00000000        0x0 build/sam_a5d27_som1_winc3400/production/_ext/883939571/plib_aic.o
 .bss           0x00000000        0x0 build/sam_a5d27_som1_winc3400/production/_ext/883939571/plib_aic.o
 .text.AIC_INT_IrqEnable
                0x00000000        0xc build/sam_a5d27_som1_winc3400/production/_ext/883939571/plib_aic.o
 .text          0x00000000        0x0 build/sam_a5d27_som1_winc3400/production/_ext/883937548/plib_clk.o
 .data          0x00000000        0x0 build/sam_a5d27_som1_winc3400/production/_ext/883937548/plib_clk.o
 .bss           0x00000000        0x0 build/sam_a5d27_som1_winc3400/production/_ext/883937548/plib_clk.o
 .text          0x00000000        0x0 build/sam_a5d27_som1_winc3400/production/_ext/1895127654/plib_flexcom4_spi_master.o
 .data          0x00000000        0x0 build/sam_a5d27_som1_winc3400/production/_ext/1895127654/plib_flexcom4_spi_master.o
 .bss           0x00000000        0x0 build/sam_a5d27_som1_winc3400/production/_ext/1895127654/plib_flexcom4_spi_master.o
 .text.FLEXCOM4_SPI_Write
                0x00000000       0x14 build/sam_a5d27_som1_winc3400/production/_ext/1895127654/plib_flexcom4_spi_master.o
 .text.FLEXCOM4_SPI_Read
                0x00000000       0x1c build/sam_a5d27_som1_winc3400/production/_ext/1895127654/plib_flexcom4_spi_master.o
 .text.FLEXCOM4_SPI_IsBusy
                0x00000000       0x34 build/sam_a5d27_som1_winc3400/production/_ext/1895127654/plib_flexcom4_spi_master.o
 .text          0x00000000        0x0 build/sam_a5d27_som1_winc3400/production/_ext/662486865/plib_matrix.o
 .data          0x00000000        0x0 build/sam_a5d27_som1_winc3400/production/_ext/662486865/plib_matrix.o
 .bss           0x00000000        0x0 build/sam_a5d27_som1_winc3400/production/_ext/662486865/plib_matrix.o
 .text          0x00000000        0x0 build/sam_a5d27_som1_winc3400/production/_ext/883927897/plib_mmu.o
 .data          0x00000000        0x0 build/sam_a5d27_som1_winc3400/production/_ext/883927897/plib_mmu.o
 .bss           0x00000000        0x0 build/sam_a5d27_som1_winc3400/production/_ext/883927897/plib_mmu.o
 .text.icache_InvalidateAll
                0x00000000       0x14 build/sam_a5d27_som1_winc3400/production/_ext/883927897/plib_mmu.o
 .text.icache_Disable
                0x00000000       0x28 build/sam_a5d27_som1_winc3400/production/_ext/883927897/plib_mmu.o
 .text          0x00000000        0x0 build/sam_a5d27_som1_winc3400/production/_ext/883925144/plib_pio.o
 .data          0x00000000        0x0 build/sam_a5d27_som1_winc3400/production/_ext/883925144/plib_pio.o
 .bss           0x00000000        0x0 build/sam_a5d27_som1_winc3400/production/_ext/883925144/plib_pio.o
 .text.PIO_PortRead
                0x00000000       0x14 build/sam_a5d27_som1_winc3400/production/_ext/883925144/plib_pio.o
 .text.PIO_PortWrite
                0x00000000       0x18 build/sam_a5d27_som1_winc3400/production/_ext/883925144/plib_pio.o
 .text.PIO_PortLatchRead
                0x00000000       0x14 build/sam_a5d27_som1_winc3400/production/_ext/883925144/plib_pio.o
 .text.PIO_PortToggle
                0x00000000       0x20 build/sam_a5d27_som1_winc3400/production/_ext/883925144/plib_pio.o
 .text.PIO_PortInputEnable
                0x00000000       0x20 build/sam_a5d27_som1_winc3400/production/_ext/883925144/plib_pio.o
 .text.PIO_PortOutputEnable
                0x00000000       0x20 build/sam_a5d27_som1_winc3400/production/_ext/883925144/plib_pio.o
 .text          0x00000000        0x0 build/sam_a5d27_som1_winc3400/production/_ext/941317725/plib_tc0.o
 .data          0x00000000        0x0 build/sam_a5d27_som1_winc3400/production/_ext/941317725/plib_tc0.o
 .bss           0x00000000        0x0 build/sam_a5d27_som1_winc3400/production/_ext/941317725/plib_tc0.o
 .text.TC0_CH0_TimerPeriodGet
                0x00000000       0x10 build/sam_a5d27_som1_winc3400/production/_ext/941317725/plib_tc0.o
 .text          0x00000000        0x0 build/sam_a5d27_som1_winc3400/production/_ext/1631734212/plib_uart1.o
 .data          0x00000000        0x0 build/sam_a5d27_som1_winc3400/production/_ext/1631734212/plib_uart1.o
 .bss           0x00000000        0x0 build/sam_a5d27_som1_winc3400/production/_ext/1631734212/plib_uart1.o
 .text.UART1_SerialSetup
                0x00000000       0x70 build/sam_a5d27_som1_winc3400/production/_ext/1631734212/plib_uart1.o
 .text.UART1_ErrorGet
                0x00000000       0x4c build/sam_a5d27_som1_winc3400/production/_ext/1631734212/plib_uart1.o
 .text.UART1_ReadBufferSizeGet
                0x00000000        0x8 build/sam_a5d27_som1_winc3400/production/_ext/1631734212/plib_uart1.o
 .text.UART1_ReadNotificationEnable
                0x00000000       0x1c build/sam_a5d27_som1_winc3400/production/_ext/1631734212/plib_uart1.o
 .text.UART1_ReadThresholdSet
                0x00000000       0x18 build/sam_a5d27_som1_winc3400/production/_ext/1631734212/plib_uart1.o
 .text.UART1_ReadCallbackRegister
                0x00000000       0x14 build/sam_a5d27_som1_winc3400/production/_ext/1631734212/plib_uart1.o
 .text.UART1_WriteBufferSizeGet
                0x00000000        0x8 build/sam_a5d27_som1_winc3400/production/_ext/1631734212/plib_uart1.o
 .text.UART1_TransmitComplete
                0x00000000       0x14 build/sam_a5d27_som1_winc3400/production/_ext/1631734212/plib_uart1.o
 .text.UART1_WriteNotificationEnable
                0x00000000       0x1c build/sam_a5d27_som1_winc3400/production/_ext/1631734212/plib_uart1.o
 .text.UART1_WriteThresholdSet
                0x00000000       0x18 build/sam_a5d27_som1_winc3400/production/_ext/1631734212/plib_uart1.o
 .text.UART1_WriteCallbackRegister
                0x00000000       0x14 build/sam_a5d27_som1_winc3400/production/_ext/1631734212/plib_uart1.o
 .text          0x00000000        0x0 build/sam_a5d27_som1_winc3400/production/_ext/958701621/plib_xdmac0.o
 .data          0x00000000        0x0 build/sam_a5d27_som1_winc3400/production/_ext/958701621/plib_xdmac0.o
 .bss           0x00000000        0x0 build/sam_a5d27_som1_winc3400/production/_ext/958701621/plib_xdmac0.o
 .text.XDMAC0_ChannelIsBusy
                0x00000000       0x38 build/sam_a5d27_som1_winc3400/production/_ext/958701621/plib_xdmac0.o
 .text.XDMAC0_ChannelTransferStatusGet
                0x00000000       0x20 build/sam_a5d27_som1_winc3400/production/_ext/958701621/plib_xdmac0.o
 .text.XDMAC0_ChannelDisable
                0x00000000       0x2c build/sam_a5d27_som1_winc3400/production/_ext/958701621/plib_xdmac0.o
 .text.XDMAC0_ChannelBlockLengthSet
                0x00000000       0x20 build/sam_a5d27_som1_winc3400/production/_ext/958701621/plib_xdmac0.o
 .text.XDMAC0_ChannelSuspend
                0x00000000       0x18 build/sam_a5d27_som1_winc3400/production/_ext/958701621/plib_xdmac0.o
 .text.XDMAC0_ChannelResume
                0x00000000       0x18 build/sam_a5d27_som1_winc3400/production/_ext/958701621/plib_xdmac0.o
 .text          0x00000000        0x0 build/sam_a5d27_som1_winc3400/production/_ext/1563713540/xc32_monitor.o
 .data          0x00000000        0x0 build/sam_a5d27_som1_winc3400/production/_ext/1563713540/xc32_monitor.o
 .bss           0x00000000        0x0 build/sam_a5d27_som1_winc3400/production/_ext/1563713540/xc32_monitor.o
 .text.read     0x00000000        0x8 build/sam_a5d27_som1_winc3400/production/_ext/1563713540/xc32_monitor.o
 .text.write    0x00000000        0x8 build/sam_a5d27_som1_winc3400/production/_ext/1563713540/xc32_monitor.o
 .debug_info    0x00000000      0x341 build/sam_a5d27_som1_winc3400/production/_ext/1563713540/xc32_monitor.o
 .debug_abbrev  0x00000000       0x96 build/sam_a5d27_som1_winc3400/production/_ext/1563713540/xc32_monitor.o
 .debug_loc     0x00000000       0x4a build/sam_a5d27_som1_winc3400/production/_ext/1563713540/xc32_monitor.o
 .debug_aranges
                0x00000000       0x28 build/sam_a5d27_som1_winc3400/production/_ext/1563713540/xc32_monitor.o
 .debug_ranges  0x00000000       0x18 build/sam_a5d27_som1_winc3400/production/_ext/1563713540/xc32_monitor.o
 .debug_line    0x00000000       0xda build/sam_a5d27_som1_winc3400/production/_ext/1563713540/xc32_monitor.o
 .debug_str     0x00000000        0x0 build/sam_a5d27_som1_winc3400/production/_ext/1563713540/xc32_monitor.o
 .comment       0x00000000       0x2c build/sam_a5d27_som1_winc3400/production/_ext/1563713540/xc32_monitor.o
 .debug_frame   0x00000000       0x30 build/sam_a5d27_som1_winc3400/production/_ext/1563713540/xc32_monitor.o
 .ARM.attributes
                0x00000000       0x39 build/sam_a5d27_som1_winc3400/production/_ext/1563713540/xc32_monitor.o
 .text          0x00000000        0x0 build/sam_a5d27_som1_winc3400/production/_ext/1788205625/sys_cache.o
 .data          0x00000000        0x0 build/sam_a5d27_som1_winc3400/production/_ext/1788205625/sys_cache.o
 .bss           0x00000000        0x0 build/sam_a5d27_som1_winc3400/production/_ext/1788205625/sys_cache.o
 .text.SYS_CACHE_EnableCaches
                0x00000000        0xc build/sam_a5d27_som1_winc3400/production/_ext/1788205625/sys_cache.o
 .text.SYS_CACHE_DisableCaches
                0x00000000        0xc build/sam_a5d27_som1_winc3400/production/_ext/1788205625/sys_cache.o
 .text.SYS_CACHE_EnableICache
                0x00000000        0xc build/sam_a5d27_som1_winc3400/production/_ext/1788205625/sys_cache.o
 .text.SYS_CACHE_DisableICache
                0x00000000        0xc build/sam_a5d27_som1_winc3400/production/_ext/1788205625/sys_cache.o
 .text.SYS_CACHE_InvalidateICache
                0x00000000       0x14 build/sam_a5d27_som1_winc3400/production/_ext/1788205625/sys_cache.o
 .text.SYS_CACHE_EnableDCache
                0x00000000        0x4 build/sam_a5d27_som1_winc3400/production/_ext/1788205625/sys_cache.o
 .text.SYS_CACHE_DisableDCache
                0x00000000        0x4 build/sam_a5d27_som1_winc3400/production/_ext/1788205625/sys_cache.o
 .text.SYS_CACHE_InvalidateDCache
                0x00000000        0x4 build/sam_a5d27_som1_winc3400/production/_ext/1788205625/sys_cache.o
 .text.SYS_CACHE_CleanDCache
                0x00000000        0x4 build/sam_a5d27_som1_winc3400/production/_ext/1788205625/sys_cache.o
 .text.SYS_CACHE_CleanInvalidateDCache
                0x00000000        0x4 build/sam_a5d27_som1_winc3400/production/_ext/1788205625/sys_cache.o
 .text.SYS_CACHE_InvalidateDCache_by_Addr
                0x00000000        0x4 build/sam_a5d27_som1_winc3400/production/_ext/1788205625/sys_cache.o
 .text.SYS_CACHE_CleanDCache_by_Addr
                0x00000000        0x4 build/sam_a5d27_som1_winc3400/production/_ext/1788205625/sys_cache.o
 .text.SYS_CACHE_CleanInvalidateDCache_by_Addr
                0x00000000        0x4 build/sam_a5d27_som1_winc3400/production/_ext/1788205625/sys_cache.o
 .debug_info    0x00000000      0x711 build/sam_a5d27_som1_winc3400/production/_ext/1788205625/sys_cache.o
 .debug_abbrev  0x00000000      0x14b build/sam_a5d27_som1_winc3400/production/_ext/1788205625/sys_cache.o
 .debug_loc     0x00000000       0x96 build/sam_a5d27_som1_winc3400/production/_ext/1788205625/sys_cache.o
 .debug_aranges
                0x00000000       0x80 build/sam_a5d27_som1_winc3400/production/_ext/1788205625/sys_cache.o
 .debug_ranges  0x00000000       0x98 build/sam_a5d27_som1_winc3400/production/_ext/1788205625/sys_cache.o
 .debug_line    0x00000000      0x2cd build/sam_a5d27_som1_winc3400/production/_ext/1788205625/sys_cache.o
 .debug_str     0x00000000       0x1d build/sam_a5d27_som1_winc3400/production/_ext/1788205625/sys_cache.o
 .comment       0x00000000       0x2c build/sam_a5d27_som1_winc3400/production/_ext/1788205625/sys_cache.o
 .debug_frame   0x00000000      0x100 build/sam_a5d27_som1_winc3400/production/_ext/1788205625/sys_cache.o
 .ARM.attributes
                0x00000000       0x39 build/sam_a5d27_som1_winc3400/production/_ext/1788205625/sys_cache.o
 .text          0x00000000        0x0 build/sam_a5d27_som1_winc3400/production/_ext/1006343247/sys_console_uart.o
 .data          0x00000000        0x0 build/sam_a5d27_som1_winc3400/production/_ext/1006343247/sys_console_uart.o
 .bss           0x00000000        0x0 build/sam_a5d27_som1_winc3400/production/_ext/1006343247/sys_console_uart.o
 .text          0x00000000        0x0 build/sam_a5d27_som1_winc3400/production/_ext/1006343247/sys_console.o
 .data          0x00000000        0x0 build/sam_a5d27_som1_winc3400/production/_ext/1006343247/sys_console.o
 .bss           0x00000000        0x0 build/sam_a5d27_som1_winc3400/production/_ext/1006343247/sys_console.o
 .text.SYS_CONSOLE_Status
                0x00000000       0x90 build/sam_a5d27_som1_winc3400/production/_ext/1006343247/sys_console.o
 .text.SYS_CONSOLE_DeviceGet
                0x00000000       0x34 build/sam_a5d27_som1_winc3400/production/_ext/1006343247/sys_console.o
 .text.SYS_CONSOLE_Tasks
                0x00000000       0x44 build/sam_a5d27_som1_winc3400/production/_ext/1006343247/sys_console.o
 .text.SYS_CONSOLE_Read
                0x00000000       0x64 build/sam_a5d27_som1_winc3400/production/_ext/1006343247/sys_console.o
 .text.SYS_CONSOLE_ReadFreeBufferCountGet
                0x00000000       0x64 build/sam_a5d27_som1_winc3400/production/_ext/1006343247/sys_console.o
 .text.SYS_CONSOLE_ReadCountGet
                0x00000000       0x64 build/sam_a5d27_som1_winc3400/production/_ext/1006343247/sys_console.o
 .text.SYS_CONSOLE_Write
                0x00000000       0x64 build/sam_a5d27_som1_winc3400/production/_ext/1006343247/sys_console.o
 .text.SYS_CONSOLE_WriteFreeBufferCountGet
                0x00000000       0x64 build/sam_a5d27_som1_winc3400/production/_ext/1006343247/sys_console.o
 .text.SYS_CONSOLE_WriteCountGet
                0x00000000       0x64 build/sam_a5d27_som1_winc3400/production/_ext/1006343247/sys_console.o
 .text.SYS_CONSOLE_Flush
                0x00000000       0x64 build/sam_a5d27_som1_winc3400/production/_ext/1006343247/sys_console.o
 .text          0x00000000        0x0 build/sam_a5d27_som1_winc3400/production/_ext/100066323/sys_debug.o
 .data          0x00000000        0x0 build/sam_a5d27_som1_winc3400/production/_ext/100066323/sys_debug.o
 .bss           0x00000000        0x0 build/sam_a5d27_som1_winc3400/production/_ext/100066323/sys_debug.o
 .text.SYS_DEBUG_Status
                0x00000000       0x10 build/sam_a5d27_som1_winc3400/production/_ext/100066323/sys_debug.o
 .text.SYS_DEBUG_ErrorLevelSet
                0x00000000       0x10 build/sam_a5d27_som1_winc3400/production/_ext/100066323/sys_debug.o
 .text.SYS_DEBUG_Redirect
                0x00000000       0x28 build/sam_a5d27_som1_winc3400/production/_ext/100066323/sys_debug.o
 .text          0x00000000        0x0 build/sam_a5d27_som1_winc3400/production/_ext/775042947/sys_dma.o
 .data          0x00000000        0x0 build/sam_a5d27_som1_winc3400/production/_ext/775042947/sys_dma.o
 .bss           0x00000000        0x0 build/sam_a5d27_som1_winc3400/production/_ext/775042947/sys_dma.o
 .text          0x00000000        0x0 build/sam_a5d27_som1_winc3400/production/_ext/937565385/sys_int.o
 .data          0x00000000        0x0 build/sam_a5d27_som1_winc3400/production/_ext/937565385/sys_int.o
 .bss           0x00000000        0x0 build/sam_a5d27_som1_winc3400/production/_ext/937565385/sys_int.o
 .text.SYS_INT_IsEnabled
                0x00000000       0x10 build/sam_a5d27_som1_winc3400/production/_ext/937565385/sys_int.o
 .text.SYS_INT_Enable
                0x00000000        0xc build/sam_a5d27_som1_winc3400/production/_ext/937565385/sys_int.o
 .text.SYS_INT_SourceStatusGet
                0x00000000       0x94 build/sam_a5d27_som1_winc3400/production/_ext/937565385/sys_int.o
 .text.SYS_INT_SourceStatusSet
                0x00000000       0x2c build/sam_a5d27_som1_winc3400/production/_ext/937565385/sys_int.o
 .text.SYS_INT_SourceStatusClear
                0x00000000       0x2c build/sam_a5d27_som1_winc3400/production/_ext/937565385/sys_int.o
 .text          0x00000000        0x0 build/sam_a5d27_som1_winc3400/production/_ext/695691069/sys_time.o
 .data          0x00000000        0x0 build/sam_a5d27_som1_winc3400/production/_ext/695691069/sys_time.o
 .bss           0x00000000        0x0 build/sam_a5d27_som1_winc3400/production/_ext/695691069/sys_time.o
 .text.SYS_TIME_Deinitialize
                0x00000000       0x5c build/sam_a5d27_som1_winc3400/production/_ext/695691069/sys_time.o
 .text.SYS_TIME_Status
                0x00000000       0x28 build/sam_a5d27_som1_winc3400/production/_ext/695691069/sys_time.o
 .text.SYS_TIME_FrequencyGet
                0x00000000       0x10 build/sam_a5d27_som1_winc3400/production/_ext/695691069/sys_time.o
 .text.SYS_TIME_Counter64Get
                0x00000000       0x48 build/sam_a5d27_som1_winc3400/production/_ext/695691069/sys_time.o
 .text.SYS_TIME_CounterGet
                0x00000000        0xc build/sam_a5d27_som1_winc3400/production/_ext/695691069/sys_time.o
 .text.SYS_TIME_CounterSet
                0x00000000       0x24 build/sam_a5d27_som1_winc3400/production/_ext/695691069/sys_time.o
 .text.SYS_TIME_CountToUS
                0x00000000       0x28 build/sam_a5d27_som1_winc3400/production/_ext/695691069/sys_time.o
 .text.SYS_TIME_CountToMS
                0x00000000       0x68 build/sam_a5d27_som1_winc3400/production/_ext/695691069/sys_time.o
 .text.SYS_TIME_USToCount
                0x00000000       0x28 build/sam_a5d27_som1_winc3400/production/_ext/695691069/sys_time.o
 .text.SYS_TIME_MSToCount
                0x00000000       0x24 build/sam_a5d27_som1_winc3400/production/_ext/695691069/sys_time.o
 .text.SYS_TIME_TimerCreate
                0x00000000       0x34 build/sam_a5d27_som1_winc3400/production/_ext/695691069/sys_time.o
 .text.SYS_TIME_TimerReload
                0x00000000       0xf0 build/sam_a5d27_som1_winc3400/production/_ext/695691069/sys_time.o
 .text.SYS_TIME_TimerStop
                0x00000000       0x74 build/sam_a5d27_som1_winc3400/production/_ext/695691069/sys_time.o
 .text.SYS_TIME_TimerCounterGet
                0x00000000      0x10c build/sam_a5d27_som1_winc3400/production/_ext/695691069/sys_time.o
 .text.SYS_TIME_DelayUS
                0x00000000       0x88 build/sam_a5d27_som1_winc3400/production/_ext/695691069/sys_time.o
 .text.SYS_TIME_CallbackRegisterUS
                0x00000000       0x90 build/sam_a5d27_som1_winc3400/production/_ext/695691069/sys_time.o
 .text.SYS_TIME_CallbackRegisterMS
                0x00000000       0x8c build/sam_a5d27_som1_winc3400/production/_ext/695691069/sys_time.o
 .text          0x00000000        0x0 build/sam_a5d27_som1_winc3400/production/_ext/1420774346/initialization.o
 .data          0x00000000        0x0 build/sam_a5d27_som1_winc3400/production/_ext/1420774346/initialization.o
 .bss           0x00000000        0x0 build/sam_a5d27_som1_winc3400/production/_ext/1420774346/initialization.o
 .text          0x00000000        0x0 build/sam_a5d27_som1_winc3400/production/_ext/1420774346/fault_handlers.o
 .data          0x00000000        0x0 build/sam_a5d27_som1_winc3400/production/_ext/1420774346/fault_handlers.o
 .bss           0x00000000        0x0 build/sam_a5d27_som1_winc3400/production/_ext/1420774346/fault_handlers.o
 .data          0x00000000        0x0 build/sam_a5d27_som1_winc3400/production/_ext/1420774346/cstartup.o
 .bss           0x00000000        0x0 build/sam_a5d27_som1_winc3400/production/_ext/1420774346/cstartup.o
 .text          0x00000000        0x0 build/sam_a5d27_som1_winc3400/production/_ext/1420774346/tasks.o
 .data          0x00000000        0x0 build/sam_a5d27_som1_winc3400/production/_ext/1420774346/tasks.o
 .bss           0x00000000        0x0 build/sam_a5d27_som1_winc3400/production/_ext/1420774346/tasks.o
 .text          0x00000000        0x0 build/sam_a5d27_som1_winc3400/production/_ext/1420774346/interrupts.o
 .data          0x00000000        0x0 build/sam_a5d27_som1_winc3400/production/_ext/1420774346/interrupts.o
 .bss           0x00000000        0x0 build/sam_a5d27_som1_winc3400/production/_ext/1420774346/interrupts.o
 .text.DefaultInterruptHandler
                0x00000000        0x4 build/sam_a5d27_som1_winc3400/production/_ext/1420774346/interrupts.o
 .text.SYSC_SharedHandler
                0x00000000        0x4 build/sam_a5d27_som1_winc3400/production/_ext/1420774346/interrupts.o
 .text          0x00000000        0x0 build/sam_a5d27_som1_winc3400/production/_ext/1360937237/app.o
 .data          0x00000000        0x0 build/sam_a5d27_som1_winc3400/production/_ext/1360937237/app.o
 .bss           0x00000000        0x0 build/sam_a5d27_som1_winc3400/production/_ext/1360937237/app.o
 .text          0x00000000        0x0 build/sam_a5d27_som1_winc3400/production/_ext/1360937237/main.o
 .data          0x00000000        0x0 build/sam_a5d27_som1_winc3400/production/_ext/1360937237/main.o
 .bss           0x00000000        0x0 build/sam_a5d27_som1_winc3400/production/_ext/1360937237/main.o
 .text          0x00000000        0x0 build/sam_a5d27_som1_winc3400/production/_ext/1360937237/example.o
 .data          0x00000000        0x0 build/sam_a5d27_som1_winc3400/production/_ext/1360937237/example.o
 .bss           0x00000000        0x0 build/sam_a5d27_som1_winc3400/production/_ext/1360937237/example.o
 .data          0x00000000        0x0 c:/program files/microchip/xc32/v4.10/bin/bin/../../lib/gcc/pic32c/8.3.1/arm/v7-a+simd/hard\libgcc.a(_udivsi3.o)
 .bss           0x00000000        0x0 c:/program files/microchip/xc32/v4.10/bin/bin/../../lib/gcc/pic32c/8.3.1/arm/v7-a+simd/hard\libgcc.a(_udivsi3.o)
 .xc_stack_usage.hdr
                0x00000000        0xe c:/program files/microchip/xc32/v4.10/bin/bin/../../lib/gcc/pic32c/8.3.1/arm/v7-a+simd/hard\libgcc.a(_udivsi3.o)
 .xc_stack_usage
                0x00000000       0x35 c:/program files/microchip/xc32/v4.10/bin/bin/../../lib/gcc/pic32c/8.3.1/arm/v7-a+simd/hard\libgcc.a(_udivsi3.o)
 .data          0x00000000        0x0 c:/program files/microchip/xc32/v4.10/bin/bin/../../lib/gcc/pic32c/8.3.1/arm/v7-a+simd/hard\libgcc.a(_divsi3.o)
 .bss           0x00000000        0x0 c:/program files/microchip/xc32/v4.10/bin/bin/../../lib/gcc/pic32c/8.3.1/arm/v7-a+simd/hard\libgcc.a(_divsi3.o)
 .xc_stack_usage.hdr
                0x00000000        0xe c:/program files/microchip/xc32/v4.10/bin/bin/../../lib/gcc/pic32c/8.3.1/arm/v7-a+simd/hard\libgcc.a(_divsi3.o)
 .xc_stack_usage
                0x00000000       0x33 c:/program files/microchip/xc32/v4.10/bin/bin/../../lib/gcc/pic32c/8.3.1/arm/v7-a+simd/hard\libgcc.a(_divsi3.o)
 .data          0x00000000        0x0 c:/program files/microchip/xc32/v4.10/bin/bin/../../lib/gcc/pic32c/8.3.1/arm/v7-a+simd/hard\libgcc.a(_dvmd_tls.o)
 .bss           0x00000000        0x0 c:/program files/microchip/xc32/v4.10/bin/bin/../../lib/gcc/pic32c/8.3.1/arm/v7-a+simd/hard\libgcc.a(_dvmd_tls.o)
 .xc_stack_usage.hdr
                0x00000000        0xe c:/program files/microchip/xc32/v4.10/bin/bin/../../lib/gcc/pic32c/8.3.1/arm/v7-a+simd/hard\libgcc.a(_dvmd_tls.o)
 .xc_stack_usage
                0x00000000       0x36 c:/program files/microchip/xc32/v4.10/bin/bin/../../lib/gcc/pic32c/8.3.1/arm/v7-a+simd/hard\libgcc.a(_dvmd_tls.o)
 .data          0x00000000        0x0 c:/program files/microchip/xc32/v4.10/bin/bin/../../lib/gcc/pic32c/8.3.1/arm/v7-a+simd/hard\libgcc.a(_aeabi_uldivmod.o)
 .bss           0x00000000        0x0 c:/program files/microchip/xc32/v4.10/bin/bin/../../lib/gcc/pic32c/8.3.1/arm/v7-a+simd/hard\libgcc.a(_aeabi_uldivmod.o)
 .xc_stack_usage.hdr
                0x00000000        0xe c:/program files/microchip/xc32/v4.10/bin/bin/../../lib/gcc/pic32c/8.3.1/arm/v7-a+simd/hard\libgcc.a(_aeabi_uldivmod.o)
 .xc_stack_usage
                0x00000000       0x1e c:/program files/microchip/xc32/v4.10/bin/bin/../../lib/gcc/pic32c/8.3.1/arm/v7-a+simd/hard\libgcc.a(_aeabi_uldivmod.o)
 .data          0x00000000        0x0 c:/program files/microchip/xc32/v4.10/bin/bin/../../lib/gcc/pic32c/8.3.1/arm/v7-a+simd/hard\libgcc.a(_udivmoddi4.o)
 .bss           0x00000000        0x0 c:/program files/microchip/xc32/v4.10/bin/bin/../../lib/gcc/pic32c/8.3.1/arm/v7-a+simd/hard\libgcc.a(_udivmoddi4.o)
 .xc_stack_usage
                0x00000000       0x1a c:/program files/microchip/xc32/v4.10/bin/bin/../../lib/gcc/pic32c/8.3.1/arm/v7-a+simd/hard\libgcc.a(_udivmoddi4.o)
 .ARM.extab     0x00000000        0x0 c:/program files/microchip/xc32/v4.10/bin/bin/../../lib/gcc/pic32c/8.3.1/arm/v7-a+simd/hard\libgcc.a(_udivmoddi4.o)
 .xc_stack_usage.hdr
                0x00000000        0xe c:/program files/microchip/xc32/v4.10/bin/bin/../../lib/gcc/pic32c/8.3.1/arm/v7-a+simd/hard\libgcc.a(_udivmoddi4.o)
 .text          0x00000000        0x0 c:/program files/microchip/xc32/v4.10/bin/bin/../../lib/gcc/pic32c/8.3.1/../../../../pic32c/lib/arm/v7-a+simd/hard\libc-musl.a(__libc_start_main.o)
 .data          0x00000000        0x0 c:/program files/microchip/xc32/v4.10/bin/bin/../../lib/gcc/pic32c/8.3.1/../../../../pic32c/lib/arm/v7-a+simd/hard\libc-musl.a(__libc_start_main.o)
 .bss           0x00000000        0x0 c:/program files/microchip/xc32/v4.10/bin/bin/../../lib/gcc/pic32c/8.3.1/../../../../pic32c/lib/arm/v7-a+simd/hard\libc-musl.a(__libc_start_main.o)
 .xc_stack_usage
                0x00000000       0x34 c:/program files/microchip/xc32/v4.10/bin/bin/../../lib/gcc/pic32c/8.3.1/../../../../pic32c/lib/arm/v7-a+simd/hard\libc-musl.a(__libc_start_main.o)
 .xc_stack_usage.hdr
                0x00000000        0xe c:/program files/microchip/xc32/v4.10/bin/bin/../../lib/gcc/pic32c/8.3.1/../../../../pic32c/lib/arm/v7-a+simd/hard\libc-musl.a(__libc_start_main.o)
 .text          0x00000000        0x0 c:/program files/microchip/xc32/v4.10/bin/bin/../../lib/gcc/pic32c/8.3.1/../../../../pic32c/lib/arm/v7-a+simd/hard\libc-musl.a(libc.o)
 .data          0x00000000        0x0 c:/program files/microchip/xc32/v4.10/bin/bin/../../lib/gcc/pic32c/8.3.1/../../../../pic32c/lib/arm/v7-a+simd/hard\libc-musl.a(libc.o)
 .xc_stack_usage.hdr
                0x00000000        0xe c:/program files/microchip/xc32/v4.10/bin/bin/../../lib/gcc/pic32c/8.3.1/../../../../pic32c/lib/arm/v7-a+simd/hard\libc-musl.a(libc.o)
 .text          0x00000000        0x0 c:/program files/microchip/xc32/v4.10/bin/bin/../../lib/gcc/pic32c/8.3.1/../../../../pic32c/lib/arm/v7-a+simd/hard\libc-musl.a(malloc.o)
 .data          0x00000000        0x0 c:/program files/microchip/xc32/v4.10/bin/bin/../../lib/gcc/pic32c/8.3.1/../../../../pic32c/lib/arm/v7-a+simd/hard\libc-musl.a(malloc.o)
 .xc_stack_usage
                0x00000000       0xeb c:/program files/microchip/xc32/v4.10/bin/bin/../../lib/gcc/pic32c/8.3.1/../../../../pic32c/lib/arm/v7-a+simd/hard\libc-musl.a(malloc.o)
 .text.__malloc0
                0x00000000       0x44 c:/program files/microchip/xc32/v4.10/bin/bin/../../lib/gcc/pic32c/8.3.1/../../../../pic32c/lib/arm/v7-a+simd/hard\libc-musl.a(malloc.o)
 .text.realloc  0x00000000       0xe0 c:/program files/microchip/xc32/v4.10/bin/bin/../../lib/gcc/pic32c/8.3.1/../../../../pic32c/lib/arm/v7-a+simd/hard\libc-musl.a(malloc.o)
 .xc_stack_usage.hdr
                0x00000000        0xe c:/program files/microchip/xc32/v4.10/bin/bin/../../lib/gcc/pic32c/8.3.1/../../../../pic32c/lib/arm/v7-a+simd/hard\libc-musl.a(malloc.o)
 .text          0x00000000        0x0 c:/program files/microchip/xc32/v4.10/bin/bin/../../lib/gcc/pic32c/8.3.1/../../../../pic32c/lib/arm/v7-a+simd/hard\libc-musl.a(expand_heap.o)
 .data          0x00000000        0x0 c:/program files/microchip/xc32/v4.10/bin/bin/../../lib/gcc/pic32c/8.3.1/../../../../pic32c/lib/arm/v7-a+simd/hard\libc-musl.a(expand_heap.o)
 .bss           0x00000000        0x0 c:/program files/microchip/xc32/v4.10/bin/bin/../../lib/gcc/pic32c/8.3.1/../../../../pic32c/lib/arm/v7-a+simd/hard\libc-musl.a(expand_heap.o)
 .xc_stack_usage
                0x00000000       0x1b c:/program files/microchip/xc32/v4.10/bin/bin/../../lib/gcc/pic32c/8.3.1/../../../../pic32c/lib/arm/v7-a+simd/hard\libc-musl.a(expand_heap.o)
 .xc_stack_usage.hdr
                0x00000000        0xe c:/program files/microchip/xc32/v4.10/bin/bin/../../lib/gcc/pic32c/8.3.1/../../../../pic32c/lib/arm/v7-a+simd/hard\libc-musl.a(expand_heap.o)
 .text          0x00000000        0x0 c:/program files/microchip/xc32/v4.10/bin/bin/../../lib/gcc/pic32c/8.3.1/../../../../pic32c/lib/arm/v7-a+simd/hard\libc-musl.a(vsnprintf.o)
 .data          0x00000000        0x0 c:/program files/microchip/xc32/v4.10/bin/bin/../../lib/gcc/pic32c/8.3.1/../../../../pic32c/lib/arm/v7-a+simd/hard\libc-musl.a(vsnprintf.o)
 .bss           0x00000000        0x0 c:/program files/microchip/xc32/v4.10/bin/bin/../../lib/gcc/pic32c/8.3.1/../../../../pic32c/lib/arm/v7-a+simd/hard\libc-musl.a(vsnprintf.o)
 .xc_stack_usage
                0x00000000       0x17 c:/program files/microchip/xc32/v4.10/bin/bin/../../lib/gcc/pic32c/8.3.1/../../../../pic32c/lib/arm/v7-a+simd/hard\libc-musl.a(vsnprintf.o)
 .xc_stack_usage.hdr
                0x00000000        0xe c:/program files/microchip/xc32/v4.10/bin/bin/../../lib/gcc/pic32c/8.3.1/../../../../pic32c/lib/arm/v7-a+simd/hard\libc-musl.a(vsnprintf.o)
 .text          0x00000000        0x0 c:/program files/microchip/xc32/v4.10/bin/bin/../../lib/gcc/pic32c/8.3.1/../../../../pic32c/lib/arm/v7-a+simd/hard\libc-musl.a(sprintf.o)
 .data          0x00000000        0x0 c:/program files/microchip/xc32/v4.10/bin/bin/../../lib/gcc/pic32c/8.3.1/../../../../pic32c/lib/arm/v7-a+simd/hard\libc-musl.a(sprintf.o)
 .bss           0x00000000        0x0 c:/program files/microchip/xc32/v4.10/bin/bin/../../lib/gcc/pic32c/8.3.1/../../../../pic32c/lib/arm/v7-a+simd/hard\libc-musl.a(sprintf.o)
 .xc_stack_usage
                0x00000000       0x15 c:/program files/microchip/xc32/v4.10/bin/bin/../../lib/gcc/pic32c/8.3.1/../../../../pic32c/lib/arm/v7-a+simd/hard\libc-musl.a(sprintf.o)
 .text.sprintf  0x00000000       0x28 c:/program files/microchip/xc32/v4.10/bin/bin/../../lib/gcc/pic32c/8.3.1/../../../../pic32c/lib/arm/v7-a+simd/hard\libc-musl.a(sprintf.o)
 .xc_stack_usage.hdr
                0x00000000        0xe c:/program files/microchip/xc32/v4.10/bin/bin/../../lib/gcc/pic32c/8.3.1/../../../../pic32c/lib/arm/v7-a+simd/hard\libc-musl.a(sprintf.o)
 .debug_info    0x00000000      0x325 c:/program files/microchip/xc32/v4.10/bin/bin/../../lib/gcc/pic32c/8.3.1/../../../../pic32c/lib/arm/v7-a+simd/hard\libc-musl.a(sprintf.o)
 .debug_abbrev  0x00000000       0xfb c:/program files/microchip/xc32/v4.10/bin/bin/../../lib/gcc/pic32c/8.3.1/../../../../pic32c/lib/arm/v7-a+simd/hard\libc-musl.a(sprintf.o)
 .debug_loc     0x00000000       0x8a c:/program files/microchip/xc32/v4.10/bin/bin/../../lib/gcc/pic32c/8.3.1/../../../../pic32c/lib/arm/v7-a+simd/hard\libc-musl.a(sprintf.o)
 .debug_aranges
                0x00000000       0x20 c:/program files/microchip/xc32/v4.10/bin/bin/../../lib/gcc/pic32c/8.3.1/../../../../pic32c/lib/arm/v7-a+simd/hard\libc-musl.a(sprintf.o)
 .debug_ranges  0x00000000       0x10 c:/program files/microchip/xc32/v4.10/bin/bin/../../lib/gcc/pic32c/8.3.1/../../../../pic32c/lib/arm/v7-a+simd/hard\libc-musl.a(sprintf.o)
 .debug_line    0x00000000      0x16a c:/program files/microchip/xc32/v4.10/bin/bin/../../lib/gcc/pic32c/8.3.1/../../../../pic32c/lib/arm/v7-a+simd/hard\libc-musl.a(sprintf.o)
 .debug_str     0x00000000        0x9 c:/program files/microchip/xc32/v4.10/bin/bin/../../lib/gcc/pic32c/8.3.1/../../../../pic32c/lib/arm/v7-a+simd/hard\libc-musl.a(sprintf.o)
 .comment       0x00000000       0x2c c:/program files/microchip/xc32/v4.10/bin/bin/../../lib/gcc/pic32c/8.3.1/../../../../pic32c/lib/arm/v7-a+simd/hard\libc-musl.a(sprintf.o)
 .note.GNU-stack
                0x00000000        0x0 c:/program files/microchip/xc32/v4.10/bin/bin/../../lib/gcc/pic32c/8.3.1/../../../../pic32c/lib/arm/v7-a+simd/hard\libc-musl.a(sprintf.o)
 .debug_frame   0x00000000       0x3c c:/program files/microchip/xc32/v4.10/bin/bin/../../lib/gcc/pic32c/8.3.1/../../../../pic32c/lib/arm/v7-a+simd/hard\libc-musl.a(sprintf.o)
 .ARM.attributes
                0x00000000       0x37 c:/program files/microchip/xc32/v4.10/bin/bin/../../lib/gcc/pic32c/8.3.1/../../../../pic32c/lib/arm/v7-a+simd/hard\libc-musl.a(sprintf.o)
 .text          0x00000000        0x0 c:/program files/microchip/xc32/v4.10/bin/bin/../../lib/gcc/pic32c/8.3.1/../../../../pic32c/lib/arm/v7-a+simd/hard\libc-musl.a(vsprintf.o)
 .data          0x00000000        0x0 c:/program files/microchip/xc32/v4.10/bin/bin/../../lib/gcc/pic32c/8.3.1/../../../../pic32c/lib/arm/v7-a+simd/hard\libc-musl.a(vsprintf.o)
 .bss           0x00000000        0x0 c:/program files/microchip/xc32/v4.10/bin/bin/../../lib/gcc/pic32c/8.3.1/../../../../pic32c/lib/arm/v7-a+simd/hard\libc-musl.a(vsprintf.o)
 .xc_stack_usage
                0x00000000       0x16 c:/program files/microchip/xc32/v4.10/bin/bin/../../lib/gcc/pic32c/8.3.1/../../../../pic32c/lib/arm/v7-a+simd/hard\libc-musl.a(vsprintf.o)
 .text.vsprintf
                0x00000000       0x10 c:/program files/microchip/xc32/v4.10/bin/bin/../../lib/gcc/pic32c/8.3.1/../../../../pic32c/lib/arm/v7-a+simd/hard\libc-musl.a(vsprintf.o)
 .xc_stack_usage.hdr
                0x00000000        0xe c:/program files/microchip/xc32/v4.10/bin/bin/../../lib/gcc/pic32c/8.3.1/../../../../pic32c/lib/arm/v7-a+simd/hard\libc-musl.a(vsprintf.o)
 .debug_info    0x00000000      0x31f c:/program files/microchip/xc32/v4.10/bin/bin/../../lib/gcc/pic32c/8.3.1/../../../../pic32c/lib/arm/v7-a+simd/hard\libc-musl.a(vsprintf.o)
 .debug_abbrev  0x00000000       0xc3 c:/program files/microchip/xc32/v4.10/bin/bin/../../lib/gcc/pic32c/8.3.1/../../../../pic32c/lib/arm/v7-a+simd/hard\libc-musl.a(vsprintf.o)
 .debug_loc     0x00000000       0x6c c:/program files/microchip/xc32/v4.10/bin/bin/../../lib/gcc/pic32c/8.3.1/../../../../pic32c/lib/arm/v7-a+simd/hard\libc-musl.a(vsprintf.o)
 .debug_aranges
                0x00000000       0x20 c:/program files/microchip/xc32/v4.10/bin/bin/../../lib/gcc/pic32c/8.3.1/../../../../pic32c/lib/arm/v7-a+simd/hard\libc-musl.a(vsprintf.o)
 .debug_ranges  0x00000000       0x10 c:/program files/microchip/xc32/v4.10/bin/bin/../../lib/gcc/pic32c/8.3.1/../../../../pic32c/lib/arm/v7-a+simd/hard\libc-musl.a(vsprintf.o)
 .debug_line    0x00000000      0x154 c:/program files/microchip/xc32/v4.10/bin/bin/../../lib/gcc/pic32c/8.3.1/../../../../pic32c/lib/arm/v7-a+simd/hard\libc-musl.a(vsprintf.o)
 .debug_str     0x00000000        0xa c:/program files/microchip/xc32/v4.10/bin/bin/../../lib/gcc/pic32c/8.3.1/../../../../pic32c/lib/arm/v7-a+simd/hard\libc-musl.a(vsprintf.o)
 .comment       0x00000000       0x2c c:/program files/microchip/xc32/v4.10/bin/bin/../../lib/gcc/pic32c/8.3.1/../../../../pic32c/lib/arm/v7-a+simd/hard\libc-musl.a(vsprintf.o)
 .note.GNU-stack
                0x00000000        0x0 c:/program files/microchip/xc32/v4.10/bin/bin/../../lib/gcc/pic32c/8.3.1/../../../../pic32c/lib/arm/v7-a+simd/hard\libc-musl.a(vsprintf.o)
 .debug_frame   0x00000000       0x20 c:/program files/microchip/xc32/v4.10/bin/bin/../../lib/gcc/pic32c/8.3.1/../../../../pic32c/lib/arm/v7-a+simd/hard\libc-musl.a(vsprintf.o)
 .ARM.attributes
                0x00000000       0x37 c:/program files/microchip/xc32/v4.10/bin/bin/../../lib/gcc/pic32c/8.3.1/../../../../pic32c/lib/arm/v7-a+simd/hard\libc-musl.a(vsprintf.o)
 .text          0x00000000        0x0 c:/program files/microchip/xc32/v4.10/bin/bin/../../lib/gcc/pic32c/8.3.1/../../../../pic32c/lib/arm/v7-a+simd/hard\libc-musl.a(memcmp.o)
 .data          0x00000000        0x0 c:/program files/microchip/xc32/v4.10/bin/bin/../../lib/gcc/pic32c/8.3.1/../../../../pic32c/lib/arm/v7-a+simd/hard\libc-musl.a(memcmp.o)
 .bss           0x00000000        0x0 c:/program files/microchip/xc32/v4.10/bin/bin/../../lib/gcc/pic32c/8.3.1/../../../../pic32c/lib/arm/v7-a+simd/hard\libc-musl.a(memcmp.o)
 .xc_stack_usage
                0x00000000       0x14 c:/program files/microchip/xc32/v4.10/bin/bin/../../lib/gcc/pic32c/8.3.1/../../../../pic32c/lib/arm/v7-a+simd/hard\libc-musl.a(memcmp.o)
 .xc_stack_usage.hdr
                0x00000000        0xe c:/program files/microchip/xc32/v4.10/bin/bin/../../lib/gcc/pic32c/8.3.1/../../../../pic32c/lib/arm/v7-a+simd/hard\libc-musl.a(memcmp.o)
 .text          0x00000000        0x0 c:/program files/microchip/xc32/v4.10/bin/bin/../../lib/gcc/pic32c/8.3.1/../../../../pic32c/lib/arm/v7-a+simd/hard\libc-musl.a(memcpy.o)
 .data          0x00000000        0x0 c:/program files/microchip/xc32/v4.10/bin/bin/../../lib/gcc/pic32c/8.3.1/../../../../pic32c/lib/arm/v7-a+simd/hard\libc-musl.a(memcpy.o)
 .bss           0x00000000        0x0 c:/program files/microchip/xc32/v4.10/bin/bin/../../lib/gcc/pic32c/8.3.1/../../../../pic32c/lib/arm/v7-a+simd/hard\libc-musl.a(memcpy.o)
 .xc_stack_usage
                0x00000000       0x14 c:/program files/microchip/xc32/v4.10/bin/bin/../../lib/gcc/pic32c/8.3.1/../../../../pic32c/lib/arm/v7-a+simd/hard\libc-musl.a(memcpy.o)
 .xc_stack_usage.hdr
                0x00000000        0xe c:/program files/microchip/xc32/v4.10/bin/bin/../../lib/gcc/pic32c/8.3.1/../../../../pic32c/lib/arm/v7-a+simd/hard\libc-musl.a(memcpy.o)
 .text          0x00000000        0x0 c:/program files/microchip/xc32/v4.10/bin/bin/../../lib/gcc/pic32c/8.3.1/../../../../pic32c/lib/arm/v7-a+simd/hard\libc-musl.a(memset.o)
 .data          0x00000000        0x0 c:/program files/microchip/xc32/v4.10/bin/bin/../../lib/gcc/pic32c/8.3.1/../../../../pic32c/lib/arm/v7-a+simd/hard\libc-musl.a(memset.o)
 .bss           0x00000000        0x0 c:/program files/microchip/xc32/v4.10/bin/bin/../../lib/gcc/pic32c/8.3.1/../../../../pic32c/lib/arm/v7-a+simd/hard\libc-musl.a(memset.o)
 .xc_stack_usage
                0x00000000       0x14 c:/program files/microchip/xc32/v4.10/bin/bin/../../lib/gcc/pic32c/8.3.1/../../../../pic32c/lib/arm/v7-a+simd/hard\libc-musl.a(memset.o)
 .xc_stack_usage.hdr
                0x00000000        0xe c:/program files/microchip/xc32/v4.10/bin/bin/../../lib/gcc/pic32c/8.3.1/../../../../pic32c/lib/arm/v7-a+simd/hard\libc-musl.a(memset.o)
 .text          0x00000000        0x0 c:/program files/microchip/xc32/v4.10/bin/bin/../../lib/gcc/pic32c/8.3.1/../../../../pic32c/lib/arm/v7-a+simd/hard\libc-musl.a(strlen.o)
 .data          0x00000000        0x0 c:/program files/microchip/xc32/v4.10/bin/bin/../../lib/gcc/pic32c/8.3.1/../../../../pic32c/lib/arm/v7-a+simd/hard\libc-musl.a(strlen.o)
 .bss           0x00000000        0x0 c:/program files/microchip/xc32/v4.10/bin/bin/../../lib/gcc/pic32c/8.3.1/../../../../pic32c/lib/arm/v7-a+simd/hard\libc-musl.a(strlen.o)
 .xc_stack_usage
                0x00000000       0x14 c:/program files/microchip/xc32/v4.10/bin/bin/../../lib/gcc/pic32c/8.3.1/../../../../pic32c/lib/arm/v7-a+simd/hard\libc-musl.a(strlen.o)
 .xc_stack_usage.hdr
                0x00000000        0xe c:/program files/microchip/xc32/v4.10/bin/bin/../../lib/gcc/pic32c/8.3.1/../../../../pic32c/lib/arm/v7-a+simd/hard\libc-musl.a(strlen.o)
 .text          0x00000000        0x0 c:/program files/microchip/xc32/v4.10/bin/bin/../../lib/gcc/pic32c/8.3.1/../../../../pic32c/lib/arm/v7-a+simd/hard\libc-musl.a(strchr.o)
 .data          0x00000000        0x0 c:/program files/microchip/xc32/v4.10/bin/bin/../../lib/gcc/pic32c/8.3.1/../../../../pic32c/lib/arm/v7-a+simd/hard\libc-musl.a(strchr.o)
 .bss           0x00000000        0x0 c:/program files/microchip/xc32/v4.10/bin/bin/../../lib/gcc/pic32c/8.3.1/../../../../pic32c/lib/arm/v7-a+simd/hard\libc-musl.a(strchr.o)
 .xc_stack_usage
                0x00000000       0x14 c:/program files/microchip/xc32/v4.10/bin/bin/../../lib/gcc/pic32c/8.3.1/../../../../pic32c/lib/arm/v7-a+simd/hard\libc-musl.a(strchr.o)
 .xc_stack_usage.hdr
                0x00000000        0xe c:/program files/microchip/xc32/v4.10/bin/bin/../../lib/gcc/pic32c/8.3.1/../../../../pic32c/lib/arm/v7-a+simd/hard\libc-musl.a(strchr.o)
 .text          0x00000000        0x0 c:/program files/microchip/xc32/v4.10/bin/bin/../../lib/gcc/pic32c/8.3.1/../../../../pic32c/lib/arm/v7-a+simd/hard\libc-musl.a(strchrnul.o)
 .data          0x00000000        0x0 c:/program files/microchip/xc32/v4.10/bin/bin/../../lib/gcc/pic32c/8.3.1/../../../../pic32c/lib/arm/v7-a+simd/hard\libc-musl.a(strchrnul.o)
 .bss           0x00000000        0x0 c:/program files/microchip/xc32/v4.10/bin/bin/../../lib/gcc/pic32c/8.3.1/../../../../pic32c/lib/arm/v7-a+simd/hard\libc-musl.a(strchrnul.o)
 .xc_stack_usage
                0x00000000       0x19 c:/program files/microchip/xc32/v4.10/bin/bin/../../lib/gcc/pic32c/8.3.1/../../../../pic32c/lib/arm/v7-a+simd/hard\libc-musl.a(strchrnul.o)
 .xc_stack_usage.hdr
                0x00000000        0xe c:/program files/microchip/xc32/v4.10/bin/bin/../../lib/gcc/pic32c/8.3.1/../../../../pic32c/lib/arm/v7-a+simd/hard\libc-musl.a(strchrnul.o)
 .text          0x00000000        0x0 c:/program files/microchip/xc32/v4.10/bin/bin/../../lib/gcc/pic32c/8.3.1/../../../../pic32c/lib/arm/v7-a+simd/hard\libc-musl.a(gmtime.o)
 .data          0x00000000        0x0 c:/program files/microchip/xc32/v4.10/bin/bin/../../lib/gcc/pic32c/8.3.1/../../../../pic32c/lib/arm/v7-a+simd/hard\libc-musl.a(gmtime.o)
 .bss           0x00000000       0x2c c:/program files/microchip/xc32/v4.10/bin/bin/../../lib/gcc/pic32c/8.3.1/../../../../pic32c/lib/arm/v7-a+simd/hard\libc-musl.a(gmtime.o)
 .xc_stack_usage
                0x00000000       0x14 c:/program files/microchip/xc32/v4.10/bin/bin/../../lib/gcc/pic32c/8.3.1/../../../../pic32c/lib/arm/v7-a+simd/hard\libc-musl.a(gmtime.o)
 .text.gmtime   0x00000000        0xc c:/program files/microchip/xc32/v4.10/bin/bin/../../lib/gcc/pic32c/8.3.1/../../../../pic32c/lib/arm/v7-a+simd/hard\libc-musl.a(gmtime.o)
 .xc_stack_usage.hdr
                0x00000000        0xe c:/program files/microchip/xc32/v4.10/bin/bin/../../lib/gcc/pic32c/8.3.1/../../../../pic32c/lib/arm/v7-a+simd/hard\libc-musl.a(gmtime.o)
 .debug_info    0x00000000      0x3d6 c:/program files/microchip/xc32/v4.10/bin/bin/../../lib/gcc/pic32c/8.3.1/../../../../pic32c/lib/arm/v7-a+simd/hard\libc-musl.a(gmtime.o)
 .debug_abbrev  0x00000000       0xd3 c:/program files/microchip/xc32/v4.10/bin/bin/../../lib/gcc/pic32c/8.3.1/../../../../pic32c/lib/arm/v7-a+simd/hard\libc-musl.a(gmtime.o)
 .debug_loc     0x00000000       0x25 c:/program files/microchip/xc32/v4.10/bin/bin/../../lib/gcc/pic32c/8.3.1/../../../../pic32c/lib/arm/v7-a+simd/hard\libc-musl.a(gmtime.o)
 .debug_aranges
                0x00000000       0x20 c:/program files/microchip/xc32/v4.10/bin/bin/../../lib/gcc/pic32c/8.3.1/../../../../pic32c/lib/arm/v7-a+simd/hard\libc-musl.a(gmtime.o)
 .debug_ranges  0x00000000       0x10 c:/program files/microchip/xc32/v4.10/bin/bin/../../lib/gcc/pic32c/8.3.1/../../../../pic32c/lib/arm/v7-a+simd/hard\libc-musl.a(gmtime.o)
 .debug_line    0x00000000      0x13f c:/program files/microchip/xc32/v4.10/bin/bin/../../lib/gcc/pic32c/8.3.1/../../../../pic32c/lib/arm/v7-a+simd/hard\libc-musl.a(gmtime.o)
 .debug_str     0x00000000        0xb c:/program files/microchip/xc32/v4.10/bin/bin/../../lib/gcc/pic32c/8.3.1/../../../../pic32c/lib/arm/v7-a+simd/hard\libc-musl.a(gmtime.o)
 .comment       0x00000000       0x2c c:/program files/microchip/xc32/v4.10/bin/bin/../../lib/gcc/pic32c/8.3.1/../../../../pic32c/lib/arm/v7-a+simd/hard\libc-musl.a(gmtime.o)
 .note.GNU-stack
                0x00000000        0x0 c:/program files/microchip/xc32/v4.10/bin/bin/../../lib/gcc/pic32c/8.3.1/../../../../pic32c/lib/arm/v7-a+simd/hard\libc-musl.a(gmtime.o)
 .debug_frame   0x00000000       0x20 c:/program files/microchip/xc32/v4.10/bin/bin/../../lib/gcc/pic32c/8.3.1/../../../../pic32c/lib/arm/v7-a+simd/hard\libc-musl.a(gmtime.o)
 .ARM.attributes
                0x00000000       0x37 c:/program files/microchip/xc32/v4.10/bin/bin/../../lib/gcc/pic32c/8.3.1/../../../../pic32c/lib/arm/v7-a+simd/hard\libc-musl.a(gmtime.o)
 .text          0x00000000        0x0 c:/program files/microchip/xc32/v4.10/bin/bin/../../lib/gcc/pic32c/8.3.1/../../../../pic32c/lib/arm/v7-a+simd/hard\libc-musl.a(gmtime_r.o)
 .data          0x00000000        0x0 c:/program files/microchip/xc32/v4.10/bin/bin/../../lib/gcc/pic32c/8.3.1/../../../../pic32c/lib/arm/v7-a+simd/hard\libc-musl.a(gmtime_r.o)
 .bss           0x00000000        0x0 c:/program files/microchip/xc32/v4.10/bin/bin/../../lib/gcc/pic32c/8.3.1/../../../../pic32c/lib/arm/v7-a+simd/hard\libc-musl.a(gmtime_r.o)
 .xc_stack_usage
                0x00000000       0x18 c:/program files/microchip/xc32/v4.10/bin/bin/../../lib/gcc/pic32c/8.3.1/../../../../pic32c/lib/arm/v7-a+simd/hard\libc-musl.a(gmtime_r.o)
 .text.__gmtime_r
                0x00000000       0x50 c:/program files/microchip/xc32/v4.10/bin/bin/../../lib/gcc/pic32c/8.3.1/../../../../pic32c/lib/arm/v7-a+simd/hard\libc-musl.a(gmtime_r.o)
 .rodata        0x00000000        0x4 c:/program files/microchip/xc32/v4.10/bin/bin/../../lib/gcc/pic32c/8.3.1/../../../../pic32c/lib/arm/v7-a+simd/hard\libc-musl.a(gmtime_r.o)
 .xc_stack_usage.hdr
                0x00000000        0xe c:/program files/microchip/xc32/v4.10/bin/bin/../../lib/gcc/pic32c/8.3.1/../../../../pic32c/lib/arm/v7-a+simd/hard\libc-musl.a(gmtime_r.o)
 .debug_info    0x00000000      0x400 c:/program files/microchip/xc32/v4.10/bin/bin/../../lib/gcc/pic32c/8.3.1/../../../../pic32c/lib/arm/v7-a+simd/hard\libc-musl.a(gmtime_r.o)
 .debug_abbrev  0x00000000       0xd2 c:/program files/microchip/xc32/v4.10/bin/bin/../../lib/gcc/pic32c/8.3.1/../../../../pic32c/lib/arm/v7-a+simd/hard\libc-musl.a(gmtime_r.o)
 .debug_loc     0x00000000       0x84 c:/program files/microchip/xc32/v4.10/bin/bin/../../lib/gcc/pic32c/8.3.1/../../../../pic32c/lib/arm/v7-a+simd/hard\libc-musl.a(gmtime_r.o)
 .debug_aranges
                0x00000000       0x20 c:/program files/microchip/xc32/v4.10/bin/bin/../../lib/gcc/pic32c/8.3.1/../../../../pic32c/lib/arm/v7-a+simd/hard\libc-musl.a(gmtime_r.o)
 .debug_ranges  0x00000000       0x10 c:/program files/microchip/xc32/v4.10/bin/bin/../../lib/gcc/pic32c/8.3.1/../../../../pic32c/lib/arm/v7-a+simd/hard\libc-musl.a(gmtime_r.o)
 .debug_line    0x00000000      0x27f c:/program files/microchip/xc32/v4.10/bin/bin/../../lib/gcc/pic32c/8.3.1/../../../../pic32c/lib/arm/v7-a+simd/hard\libc-musl.a(gmtime_r.o)
 .debug_str     0x00000000        0xd c:/program files/microchip/xc32/v4.10/bin/bin/../../lib/gcc/pic32c/8.3.1/../../../../pic32c/lib/arm/v7-a+simd/hard\libc-musl.a(gmtime_r.o)
 .comment       0x00000000       0x2c c:/program files/microchip/xc32/v4.10/bin/bin/../../lib/gcc/pic32c/8.3.1/../../../../pic32c/lib/arm/v7-a+simd/hard\libc-musl.a(gmtime_r.o)
 .note.GNU-stack
                0x00000000        0x0 c:/program files/microchip/xc32/v4.10/bin/bin/../../lib/gcc/pic32c/8.3.1/../../../../pic32c/lib/arm/v7-a+simd/hard\libc-musl.a(gmtime_r.o)
 .debug_frame   0x00000000       0x2c c:/program files/microchip/xc32/v4.10/bin/bin/../../lib/gcc/pic32c/8.3.1/../../../../pic32c/lib/arm/v7-a+simd/hard\libc-musl.a(gmtime_r.o)
 .ARM.attributes
                0x00000000       0x37 c:/program files/microchip/xc32/v4.10/bin/bin/../../lib/gcc/pic32c/8.3.1/../../../../pic32c/lib/arm/v7-a+simd/hard\libc-musl.a(gmtime_r.o)
 .text          0x00000000        0x0 c:/program files/microchip/xc32/v4.10/bin/bin/../../lib/gcc/pic32c/8.3.1/../../../../pic32c/lib/arm/v7-a+simd/hard\libc-musl.a(mktime.o)
 .data          0x00000000        0x0 c:/program files/microchip/xc32/v4.10/bin/bin/../../lib/gcc/pic32c/8.3.1/../../../../pic32c/lib/arm/v7-a+simd/hard\libc-musl.a(mktime.o)
 .bss           0x00000000        0x0 c:/program files/microchip/xc32/v4.10/bin/bin/../../lib/gcc/pic32c/8.3.1/../../../../pic32c/lib/arm/v7-a+simd/hard\libc-musl.a(mktime.o)
 .xc_stack_usage
                0x00000000       0x14 c:/program files/microchip/xc32/v4.10/bin/bin/../../lib/gcc/pic32c/8.3.1/../../../../pic32c/lib/arm/v7-a+simd/hard\libc-musl.a(mktime.o)
 .xc_stack_usage.hdr
                0x00000000        0xe c:/program files/microchip/xc32/v4.10/bin/bin/../../lib/gcc/pic32c/8.3.1/../../../../pic32c/lib/arm/v7-a+simd/hard\libc-musl.a(mktime.o)
 .text          0x00000000        0x0 c:/program files/microchip/xc32/v4.10/bin/bin/../../lib/gcc/pic32c/8.3.1/../../../../pic32c/lib/arm/v7-a+simd/hard\libc-musl.a(__environ.o)
 .data          0x00000000        0x0 c:/program files/microchip/xc32/v4.10/bin/bin/../../lib/gcc/pic32c/8.3.1/../../../../pic32c/lib/arm/v7-a+simd/hard\libc-musl.a(__environ.o)
 .xc_stack_usage.hdr
                0x00000000        0xe c:/program files/microchip/xc32/v4.10/bin/bin/../../lib/gcc/pic32c/8.3.1/../../../../pic32c/lib/arm/v7-a+simd/hard\libc-musl.a(__environ.o)
 .text          0x00000000        0x0 c:/program files/microchip/xc32/v4.10/bin/bin/../../lib/gcc/pic32c/8.3.1/../../../../pic32c/lib/arm/v7-a+simd/hard\libc-musl.a(__errno_location.o)
 .data          0x00000000        0x0 c:/program files/microchip/xc32/v4.10/bin/bin/../../lib/gcc/pic32c/8.3.1/../../../../pic32c/lib/arm/v7-a+simd/hard\libc-musl.a(__errno_location.o)
 .xc_stack_usage.hdr
                0x00000000        0xe c:/program files/microchip/xc32/v4.10/bin/bin/../../lib/gcc/pic32c/8.3.1/../../../../pic32c/lib/arm/v7-a+simd/hard\libc-musl.a(__errno_location.o)
 .text          0x00000000        0x0 c:/program files/microchip/xc32/v4.10/bin/bin/../../lib/gcc/pic32c/8.3.1/../../../../pic32c/lib/arm/v7-a+simd/hard\libc-musl.a(vfprintf.o)
 .data          0x00000000        0x0 c:/program files/microchip/xc32/v4.10/bin/bin/../../lib/gcc/pic32c/8.3.1/../../../../pic32c/lib/arm/v7-a+simd/hard\libc-musl.a(vfprintf.o)
 .bss           0x00000000        0x0 c:/program files/microchip/xc32/v4.10/bin/bin/../../lib/gcc/pic32c/8.3.1/../../../../pic32c/lib/arm/v7-a+simd/hard\libc-musl.a(vfprintf.o)
 .xc_stack_usage
                0x00000000       0x38 c:/program files/microchip/xc32/v4.10/bin/bin/../../lib/gcc/pic32c/8.3.1/../../../../pic32c/lib/arm/v7-a+simd/hard\libc-musl.a(vfprintf.o)
 .xc_stack_usage.hdr
                0x00000000        0xe c:/program files/microchip/xc32/v4.10/bin/bin/../../lib/gcc/pic32c/8.3.1/../../../../pic32c/lib/arm/v7-a+simd/hard\libc-musl.a(vfprintf.o)
 .text          0x00000000        0x0 c:/program files/microchip/xc32/v4.10/bin/bin/../../lib/gcc/pic32c/8.3.1/../../../../pic32c/lib/arm/v7-a+simd/hard\libc-musl.a(__tm_to_secs.o)
 .data          0x00000000        0x0 c:/program files/microchip/xc32/v4.10/bin/bin/../../lib/gcc/pic32c/8.3.1/../../../../pic32c/lib/arm/v7-a+simd/hard\libc-musl.a(__tm_to_secs.o)
 .bss           0x00000000        0x0 c:/program files/microchip/xc32/v4.10/bin/bin/../../lib/gcc/pic32c/8.3.1/../../../../pic32c/lib/arm/v7-a+simd/hard\libc-musl.a(__tm_to_secs.o)
 .xc_stack_usage
                0x00000000       0x1a c:/program files/microchip/xc32/v4.10/bin/bin/../../lib/gcc/pic32c/8.3.1/../../../../pic32c/lib/arm/v7-a+simd/hard\libc-musl.a(__tm_to_secs.o)
 .xc_stack_usage.hdr
                0x00000000        0xe c:/program files/microchip/xc32/v4.10/bin/bin/../../lib/gcc/pic32c/8.3.1/../../../../pic32c/lib/arm/v7-a+simd/hard\libc-musl.a(__tm_to_secs.o)
 .text          0x00000000        0x0 c:/program files/microchip/xc32/v4.10/bin/bin/../../lib/gcc/pic32c/8.3.1/../../../../pic32c/lib/arm/v7-a+simd/hard\libc-musl.a(__year_to_secs.o)
 .data          0x00000000        0x0 c:/program files/microchip/xc32/v4.10/bin/bin/../../lib/gcc/pic32c/8.3.1/../../../../pic32c/lib/arm/v7-a+simd/hard\libc-musl.a(__year_to_secs.o)
 .bss           0x00000000        0x0 c:/program files/microchip/xc32/v4.10/bin/bin/../../lib/gcc/pic32c/8.3.1/../../../../pic32c/lib/arm/v7-a+simd/hard\libc-musl.a(__year_to_secs.o)
 .xc_stack_usage
                0x00000000       0x1c c:/program files/microchip/xc32/v4.10/bin/bin/../../lib/gcc/pic32c/8.3.1/../../../../pic32c/lib/arm/v7-a+simd/hard\libc-musl.a(__year_to_secs.o)
 .xc_stack_usage.hdr
                0x00000000        0xe c:/program files/microchip/xc32/v4.10/bin/bin/../../lib/gcc/pic32c/8.3.1/../../../../pic32c/lib/arm/v7-a+simd/hard\libc-musl.a(__year_to_secs.o)
 .text          0x00000000        0x0 c:/program files/microchip/xc32/v4.10/bin/bin/../../lib/gcc/pic32c/8.3.1/../../../../pic32c/lib/arm/v7-a+simd/hard\libc-musl.a(__secs_to_tm.o)
 .data          0x00000000        0x0 c:/program files/microchip/xc32/v4.10/bin/bin/../../lib/gcc/pic32c/8.3.1/../../../../pic32c/lib/arm/v7-a+simd/hard\libc-musl.a(__secs_to_tm.o)
 .bss           0x00000000        0x0 c:/program files/microchip/xc32/v4.10/bin/bin/../../lib/gcc/pic32c/8.3.1/../../../../pic32c/lib/arm/v7-a+simd/hard\libc-musl.a(__secs_to_tm.o)
 .xc_stack_usage
                0x00000000       0x1a c:/program files/microchip/xc32/v4.10/bin/bin/../../lib/gcc/pic32c/8.3.1/../../../../pic32c/lib/arm/v7-a+simd/hard\libc-musl.a(__secs_to_tm.o)
 .xc_stack_usage.hdr
                0x00000000        0xe c:/program files/microchip/xc32/v4.10/bin/bin/../../lib/gcc/pic32c/8.3.1/../../../../pic32c/lib/arm/v7-a+simd/hard\libc-musl.a(__secs_to_tm.o)
 .text          0x00000000        0x0 c:/program files/microchip/xc32/v4.10/bin/bin/../../lib/gcc/pic32c/8.3.1/../../../../pic32c/lib/arm/v7-a+simd/hard\libc-musl.a(__io_fmt_needed.o)
 .data          0x00000000        0x0 c:/program files/microchip/xc32/v4.10/bin/bin/../../lib/gcc/pic32c/8.3.1/../../../../pic32c/lib/arm/v7-a+simd/hard\libc-musl.a(__io_fmt_needed.o)
 .bss           0x00000000        0x0 c:/program files/microchip/xc32/v4.10/bin/bin/../../lib/gcc/pic32c/8.3.1/../../../../pic32c/lib/arm/v7-a+simd/hard\libc-musl.a(__io_fmt_needed.o)
 .xc_stack_usage
                0x00000000       0x1d c:/program files/microchip/xc32/v4.10/bin/bin/../../lib/gcc/pic32c/8.3.1/../../../../pic32c/lib/arm/v7-a+simd/hard\libc-musl.a(__io_fmt_needed.o)
 .xc_stack_usage.hdr
                0x00000000        0xe c:/program files/microchip/xc32/v4.10/bin/bin/../../lib/gcc/pic32c/8.3.1/../../../../pic32c/lib/arm/v7-a+simd/hard\libc-musl.a(__io_fmt_needed.o)
 .debug_info    0x00000000      0x3b1 c:/program files/microchip/xc32/v4.10/bin/bin/../../lib/gcc/pic32c/8.3.1/../../../../pic32c/lib/arm/v7-a+simd/hard\libc-musl.a(__io_fmt_needed.o)
 .debug_abbrev  0x00000000       0x6a c:/program files/microchip/xc32/v4.10/bin/bin/../../lib/gcc/pic32c/8.3.1/../../../../pic32c/lib/arm/v7-a+simd/hard\libc-musl.a(__io_fmt_needed.o)
 .debug_loc     0x00000000       0x2c c:/program files/microchip/xc32/v4.10/bin/bin/../../lib/gcc/pic32c/8.3.1/../../../../pic32c/lib/arm/v7-a+simd/hard\libc-musl.a(__io_fmt_needed.o)
 .debug_aranges
                0x00000000       0x20 c:/program files/microchip/xc32/v4.10/bin/bin/../../lib/gcc/pic32c/8.3.1/../../../../pic32c/lib/arm/v7-a+simd/hard\libc-musl.a(__io_fmt_needed.o)
 .debug_ranges  0x00000000       0x10 c:/program files/microchip/xc32/v4.10/bin/bin/../../lib/gcc/pic32c/8.3.1/../../../../pic32c/lib/arm/v7-a+simd/hard\libc-musl.a(__io_fmt_needed.o)
 .debug_line    0x00000000       0xcc c:/program files/microchip/xc32/v4.10/bin/bin/../../lib/gcc/pic32c/8.3.1/../../../../pic32c/lib/arm/v7-a+simd/hard\libc-musl.a(__io_fmt_needed.o)
 .debug_str     0x00000000       0x69 c:/program files/microchip/xc32/v4.10/bin/bin/../../lib/gcc/pic32c/8.3.1/../../../../pic32c/lib/arm/v7-a+simd/hard\libc-musl.a(__io_fmt_needed.o)
 .comment       0x00000000       0x2c c:/program files/microchip/xc32/v4.10/bin/bin/../../lib/gcc/pic32c/8.3.1/../../../../pic32c/lib/arm/v7-a+simd/hard\libc-musl.a(__io_fmt_needed.o)
 .note.GNU-stack
                0x00000000        0x0 c:/program files/microchip/xc32/v4.10/bin/bin/../../lib/gcc/pic32c/8.3.1/../../../../pic32c/lib/arm/v7-a+simd/hard\libc-musl.a(__io_fmt_needed.o)
 .debug_frame   0x00000000       0x2c c:/program files/microchip/xc32/v4.10/bin/bin/../../lib/gcc/pic32c/8.3.1/../../../../pic32c/lib/arm/v7-a+simd/hard\libc-musl.a(__io_fmt_needed.o)
 .ARM.attributes
                0x00000000       0x37 c:/program files/microchip/xc32/v4.10/bin/bin/../../lib/gcc/pic32c/8.3.1/../../../../pic32c/lib/arm/v7-a+simd/hard\libc-musl.a(__io_fmt_needed.o)
 .text          0x00000000        0x0 c:/program files/microchip/xc32/v4.10/bin/bin/../../lib/gcc/pic32c/8.3.1/../../../../pic32c/lib/arm/v7-a+simd/hard\libc-musl.a(__printf_core.o)
 .data          0x00000000        0x0 c:/program files/microchip/xc32/v4.10/bin/bin/../../lib/gcc/pic32c/8.3.1/../../../../pic32c/lib/arm/v7-a+simd/hard\libc-musl.a(__printf_core.o)
 .bss           0x00000000        0x0 c:/program files/microchip/xc32/v4.10/bin/bin/../../lib/gcc/pic32c/8.3.1/../../../../pic32c/lib/arm/v7-a+simd/hard\libc-musl.a(__printf_core.o)
 .xc_stack_usage
                0x00000000       0xaf c:/program files/microchip/xc32/v4.10/bin/bin/../../lib/gcc/pic32c/8.3.1/../../../../pic32c/lib/arm/v7-a+simd/hard\libc-musl.a(__printf_core.o)
 .text.__dummy_fmt3
                0x00000000        0x8 c:/program files/microchip/xc32/v4.10/bin/bin/../../lib/gcc/pic32c/8.3.1/../../../../pic32c/lib/arm/v7-a+simd/hard\libc-musl.a(__printf_core.o)
 .text.__dummy_fmt4
                0x00000000        0x8 c:/program files/microchip/xc32/v4.10/bin/bin/../../lib/gcc/pic32c/8.3.1/../../../../pic32c/lib/arm/v7-a+simd/hard\libc-musl.a(__printf_core.o)
 .text.__dummy_fmts
                0x00000000        0x8 c:/program files/microchip/xc32/v4.10/bin/bin/../../lib/gcc/pic32c/8.3.1/../../../../pic32c/lib/arm/v7-a+simd/hard\libc-musl.a(__printf_core.o)
 .xc_stack_usage.hdr
                0x00000000        0xe c:/program files/microchip/xc32/v4.10/bin/bin/../../lib/gcc/pic32c/8.3.1/../../../../pic32c/lib/arm/v7-a+simd/hard\libc-musl.a(__printf_core.o)
 .text          0x00000000        0x0 c:/program files/microchip/xc32/v4.10/bin/bin/../../lib/gcc/pic32c/8.3.1/../../../../pic32c/lib/arm/v7-a+simd/hard\libc-musl.a(atoi.o)
 .data          0x00000000        0x0 c:/program files/microchip/xc32/v4.10/bin/bin/../../lib/gcc/pic32c/8.3.1/../../../../pic32c/lib/arm/v7-a+simd/hard\libc-musl.a(atoi.o)
 .bss           0x00000000        0x0 c:/program files/microchip/xc32/v4.10/bin/bin/../../lib/gcc/pic32c/8.3.1/../../../../pic32c/lib/arm/v7-a+simd/hard\libc-musl.a(atoi.o)
 .xc_stack_usage
                0x00000000       0x12 c:/program files/microchip/xc32/v4.10/bin/bin/../../lib/gcc/pic32c/8.3.1/../../../../pic32c/lib/arm/v7-a+simd/hard\libc-musl.a(atoi.o)
 .xc_stack_usage.hdr
                0x00000000        0xe c:/program files/microchip/xc32/v4.10/bin/bin/../../lib/gcc/pic32c/8.3.1/../../../../pic32c/lib/arm/v7-a+simd/hard\libc-musl.a(atoi.o)
 .text          0x00000000        0x0 c:/program files/microchip/xc32/v4.10/bin/bin/../../lib/gcc/pic32c/8.3.1/../../../../pic32c/lib/arm/v7-a+simd/hard\libc-musl.a(__month_to_secs.o)
 .data          0x00000000        0x0 c:/program files/microchip/xc32/v4.10/bin/bin/../../lib/gcc/pic32c/8.3.1/../../../../pic32c/lib/arm/v7-a+simd/hard\libc-musl.a(__month_to_secs.o)
 .bss           0x00000000        0x0 c:/program files/microchip/xc32/v4.10/bin/bin/../../lib/gcc/pic32c/8.3.1/../../../../pic32c/lib/arm/v7-a+simd/hard\libc-musl.a(__month_to_secs.o)
 .xc_stack_usage
                0x00000000       0x1d c:/program files/microchip/xc32/v4.10/bin/bin/../../lib/gcc/pic32c/8.3.1/../../../../pic32c/lib/arm/v7-a+simd/hard\libc-musl.a(__month_to_secs.o)
 .xc_stack_usage.hdr
                0x00000000        0xe c:/program files/microchip/xc32/v4.10/bin/bin/../../lib/gcc/pic32c/8.3.1/../../../../pic32c/lib/arm/v7-a+simd/hard\libc-musl.a(__month_to_secs.o)
 .text          0x00000000        0x0 c:/program files/microchip/xc32/v4.10/bin/bin/../../lib/gcc/pic32c/8.3.1/../../../../pic32c/lib/arm/v7-a+simd/hard\libc-musl.a(tolower.o)
 .data          0x00000000        0x0 c:/program files/microchip/xc32/v4.10/bin/bin/../../lib/gcc/pic32c/8.3.1/../../../../pic32c/lib/arm/v7-a+simd/hard\libc-musl.a(tolower.o)
 .bss           0x00000000        0x0 c:/program files/microchip/xc32/v4.10/bin/bin/../../lib/gcc/pic32c/8.3.1/../../../../pic32c/lib/arm/v7-a+simd/hard\libc-musl.a(tolower.o)
 .xc_stack_usage
                0x00000000       0x2e c:/program files/microchip/xc32/v4.10/bin/bin/../../lib/gcc/pic32c/8.3.1/../../../../pic32c/lib/arm/v7-a+simd/hard\libc-musl.a(tolower.o)
 .text.__tolower_l
                0x00000000        0x4 c:/program files/microchip/xc32/v4.10/bin/bin/../../lib/gcc/pic32c/8.3.1/../../../../pic32c/lib/arm/v7-a+simd/hard\libc-musl.a(tolower.o)
 .xc_stack_usage.hdr
                0x00000000        0xe c:/program files/microchip/xc32/v4.10/bin/bin/../../lib/gcc/pic32c/8.3.1/../../../../pic32c/lib/arm/v7-a+simd/hard\libc-musl.a(tolower.o)
 .text          0x00000000        0x0 c:/program files/microchip/xc32/v4.10/bin/bin/../../lib/gcc/pic32c/8.3.1/../../../../pic32c/lib/arm/v7-a+simd/hard\libc-musl.a(__fmt_a.o)
 .data          0x00000000        0x0 c:/program files/microchip/xc32/v4.10/bin/bin/../../lib/gcc/pic32c/8.3.1/../../../../pic32c/lib/arm/v7-a+simd/hard\libc-musl.a(__fmt_a.o)
 .bss           0x00000000        0x0 c:/program files/microchip/xc32/v4.10/bin/bin/../../lib/gcc/pic32c/8.3.1/../../../../pic32c/lib/arm/v7-a+simd/hard\libc-musl.a(__fmt_a.o)
 .xc_stack_usage
                0x00000000       0x15 c:/program files/microchip/xc32/v4.10/bin/bin/../../lib/gcc/pic32c/8.3.1/../../../../pic32c/lib/arm/v7-a+simd/hard\libc-musl.a(__fmt_a.o)
 .xc_stack_usage.hdr
                0x00000000        0xe c:/program files/microchip/xc32/v4.10/bin/bin/../../lib/gcc/pic32c/8.3.1/../../../../pic32c/lib/arm/v7-a+simd/hard\libc-musl.a(__fmt_a.o)
 .text          0x00000000        0x0 c:/program files/microchip/xc32/v4.10/bin/bin/../../lib/gcc/pic32c/8.3.1/../../../../pic32c/lib/arm/v7-a+simd/hard\libc-musl.a(__fmt_d.o)
 .data          0x00000000        0x0 c:/program files/microchip/xc32/v4.10/bin/bin/../../lib/gcc/pic32c/8.3.1/../../../../pic32c/lib/arm/v7-a+simd/hard\libc-musl.a(__fmt_d.o)
 .bss           0x00000000        0x0 c:/program files/microchip/xc32/v4.10/bin/bin/../../lib/gcc/pic32c/8.3.1/../../../../pic32c/lib/arm/v7-a+simd/hard\libc-musl.a(__fmt_d.o)
 .xc_stack_usage
                0x00000000       0x15 c:/program files/microchip/xc32/v4.10/bin/bin/../../lib/gcc/pic32c/8.3.1/../../../../pic32c/lib/arm/v7-a+simd/hard\libc-musl.a(__fmt_d.o)
 .xc_stack_usage.hdr
                0x00000000        0xe c:/program files/microchip/xc32/v4.10/bin/bin/../../lib/gcc/pic32c/8.3.1/../../../../pic32c/lib/arm/v7-a+simd/hard\libc-musl.a(__fmt_d.o)
 .text          0x00000000        0x0 c:/program files/microchip/xc32/v4.10/bin/bin/../../lib/gcc/pic32c/8.3.1/../../../../pic32c/lib/arm/v7-a+simd/hard\libc-musl.a(__fmt_fp.o)
 .data          0x00000000        0x0 c:/program files/microchip/xc32/v4.10/bin/bin/../../lib/gcc/pic32c/8.3.1/../../../../pic32c/lib/arm/v7-a+simd/hard\libc-musl.a(__fmt_fp.o)
 .bss           0x00000000        0x0 c:/program files/microchip/xc32/v4.10/bin/bin/../../lib/gcc/pic32c/8.3.1/../../../../pic32c/lib/arm/v7-a+simd/hard\libc-musl.a(__fmt_fp.o)
 .xc_stack_usage
                0x00000000       0x16 c:/program files/microchip/xc32/v4.10/bin/bin/../../lib/gcc/pic32c/8.3.1/../../../../pic32c/lib/arm/v7-a+simd/hard\libc-musl.a(__fmt_fp.o)
 .xc_stack_usage.hdr
                0x00000000        0xe c:/program files/microchip/xc32/v4.10/bin/bin/../../lib/gcc/pic32c/8.3.1/../../../../pic32c/lib/arm/v7-a+simd/hard\libc-musl.a(__fmt_fp.o)
 .text          0x00000000        0x0 c:/program files/microchip/xc32/v4.10/bin/bin/../../lib/gcc/pic32c/8.3.1/../../../../pic32c/lib/arm/v7-a+simd/hard\libc-musl.a(__fmt_o.o)
 .data          0x00000000        0x0 c:/program files/microchip/xc32/v4.10/bin/bin/../../lib/gcc/pic32c/8.3.1/../../../../pic32c/lib/arm/v7-a+simd/hard\libc-musl.a(__fmt_o.o)
 .bss           0x00000000        0x0 c:/program files/microchip/xc32/v4.10/bin/bin/../../lib/gcc/pic32c/8.3.1/../../../../pic32c/lib/arm/v7-a+simd/hard\libc-musl.a(__fmt_o.o)
 .xc_stack_usage
                0x00000000       0x15 c:/program files/microchip/xc32/v4.10/bin/bin/../../lib/gcc/pic32c/8.3.1/../../../../pic32c/lib/arm/v7-a+simd/hard\libc-musl.a(__fmt_o.o)
 .xc_stack_usage.hdr
                0x00000000        0xe c:/program files/microchip/xc32/v4.10/bin/bin/../../lib/gcc/pic32c/8.3.1/../../../../pic32c/lib/arm/v7-a+simd/hard\libc-musl.a(__fmt_o.o)
 .text          0x00000000        0x0 c:/program files/microchip/xc32/v4.10/bin/bin/../../lib/gcc/pic32c/8.3.1/../../../../pic32c/lib/arm/v7-a+simd/hard\libc-musl.a(__fmt_s.o)
 .data          0x00000000        0x0 c:/program files/microchip/xc32/v4.10/bin/bin/../../lib/gcc/pic32c/8.3.1/../../../../pic32c/lib/arm/v7-a+simd/hard\libc-musl.a(__fmt_s.o)
 .bss           0x00000000        0x0 c:/program files/microchip/xc32/v4.10/bin/bin/../../lib/gcc/pic32c/8.3.1/../../../../pic32c/lib/arm/v7-a+simd/hard\libc-musl.a(__fmt_s.o)
 .xc_stack_usage
                0x00000000       0x15 c:/program files/microchip/xc32/v4.10/bin/bin/../../lib/gcc/pic32c/8.3.1/../../../../pic32c/lib/arm/v7-a+simd/hard\libc-musl.a(__fmt_s.o)
 .xc_stack_usage.hdr
                0x00000000        0xe c:/program files/microchip/xc32/v4.10/bin/bin/../../lib/gcc/pic32c/8.3.1/../../../../pic32c/lib/arm/v7-a+simd/hard\libc-musl.a(__fmt_s.o)
 .text          0x00000000        0x0 c:/program files/microchip/xc32/v4.10/bin/bin/../../lib/gcc/pic32c/8.3.1/../../../../pic32c/lib/arm/v7-a+simd/hard\libc-musl.a(__fmt_u.o)
 .data          0x00000000        0x0 c:/program files/microchip/xc32/v4.10/bin/bin/../../lib/gcc/pic32c/8.3.1/../../../../pic32c/lib/arm/v7-a+simd/hard\libc-musl.a(__fmt_u.o)
 .bss           0x00000000        0x0 c:/program files/microchip/xc32/v4.10/bin/bin/../../lib/gcc/pic32c/8.3.1/../../../../pic32c/lib/arm/v7-a+simd/hard\libc-musl.a(__fmt_u.o)
 .xc_stack_usage
                0x00000000       0x2a c:/program files/microchip/xc32/v4.10/bin/bin/../../lib/gcc/pic32c/8.3.1/../../../../pic32c/lib/arm/v7-a+simd/hard\libc-musl.a(__fmt_u.o)
 .xc_stack_usage.hdr
                0x00000000        0xe c:/program files/microchip/xc32/v4.10/bin/bin/../../lib/gcc/pic32c/8.3.1/../../../../pic32c/lib/arm/v7-a+simd/hard\libc-musl.a(__fmt_u.o)
 .text          0x00000000        0x0 c:/program files/microchip/xc32/v4.10/bin/bin/../../lib/gcc/pic32c/8.3.1/../../../../pic32c/lib/arm/v7-a+simd/hard\libc-musl.a(__fmt_x.o)
 .data          0x00000000        0x0 c:/program files/microchip/xc32/v4.10/bin/bin/../../lib/gcc/pic32c/8.3.1/../../../../pic32c/lib/arm/v7-a+simd/hard\libc-musl.a(__fmt_x.o)
 .bss           0x00000000        0x0 c:/program files/microchip/xc32/v4.10/bin/bin/../../lib/gcc/pic32c/8.3.1/../../../../pic32c/lib/arm/v7-a+simd/hard\libc-musl.a(__fmt_x.o)
 .xc_stack_usage
                0x00000000       0x15 c:/program files/microchip/xc32/v4.10/bin/bin/../../lib/gcc/pic32c/8.3.1/../../../../pic32c/lib/arm/v7-a+simd/hard\libc-musl.a(__fmt_x.o)
 .xc_stack_usage.hdr
                0x00000000        0xe c:/program files/microchip/xc32/v4.10/bin/bin/../../lib/gcc/pic32c/8.3.1/../../../../pic32c/lib/arm/v7-a+simd/hard\libc-musl.a(__fmt_x.o)
 .text          0x00000000        0x0 c:/program files/microchip/xc32/v4.10/bin/bin/../../lib/gcc/pic32c/8.3.1/../../../../pic32c/lib/arm/v7-a+simd/hard\libc-musl.a(__pop_float.o)
 .data          0x00000000        0x0 c:/program files/microchip/xc32/v4.10/bin/bin/../../lib/gcc/pic32c/8.3.1/../../../../pic32c/lib/arm/v7-a+simd/hard\libc-musl.a(__pop_float.o)
 .bss           0x00000000        0x0 c:/program files/microchip/xc32/v4.10/bin/bin/../../lib/gcc/pic32c/8.3.1/../../../../pic32c/lib/arm/v7-a+simd/hard\libc-musl.a(__pop_float.o)
 .xc_stack_usage
                0x00000000       0x19 c:/program files/microchip/xc32/v4.10/bin/bin/../../lib/gcc/pic32c/8.3.1/../../../../pic32c/lib/arm/v7-a+simd/hard\libc-musl.a(__pop_float.o)
 .xc_stack_usage.hdr
                0x00000000        0xe c:/program files/microchip/xc32/v4.10/bin/bin/../../lib/gcc/pic32c/8.3.1/../../../../pic32c/lib/arm/v7-a+simd/hard\libc-musl.a(__pop_float.o)
 .text          0x00000000        0x0 c:/program files/microchip/xc32/v4.10/bin/bin/../../lib/gcc/pic32c/8.3.1/../../../../pic32c/lib/arm/v7-a+simd/hard\libc-musl.a(__pop_int.o)
 .data          0x00000000        0x0 c:/program files/microchip/xc32/v4.10/bin/bin/../../lib/gcc/pic32c/8.3.1/../../../../pic32c/lib/arm/v7-a+simd/hard\libc-musl.a(__pop_int.o)
 .bss           0x00000000        0x0 c:/program files/microchip/xc32/v4.10/bin/bin/../../lib/gcc/pic32c/8.3.1/../../../../pic32c/lib/arm/v7-a+simd/hard\libc-musl.a(__pop_int.o)
 .xc_stack_usage
                0x00000000       0x17 c:/program files/microchip/xc32/v4.10/bin/bin/../../lib/gcc/pic32c/8.3.1/../../../../pic32c/lib/arm/v7-a+simd/hard\libc-musl.a(__pop_int.o)
 .xc_stack_usage.hdr
                0x00000000        0xe c:/program files/microchip/xc32/v4.10/bin/bin/../../lib/gcc/pic32c/8.3.1/../../../../pic32c/lib/arm/v7-a+simd/hard\libc-musl.a(__pop_int.o)
 .text          0x00000000        0x0 c:/program files/microchip/xc32/v4.10/bin/bin/../../lib/gcc/pic32c/8.3.1/../../../../pic32c/lib/arm/v7-a+simd/hard\libc-musl.a(__pop_ptr.o)
 .data          0x00000000        0x0 c:/program files/microchip/xc32/v4.10/bin/bin/../../lib/gcc/pic32c/8.3.1/../../../../pic32c/lib/arm/v7-a+simd/hard\libc-musl.a(__pop_ptr.o)
 .bss           0x00000000        0x0 c:/program files/microchip/xc32/v4.10/bin/bin/../../lib/gcc/pic32c/8.3.1/../../../../pic32c/lib/arm/v7-a+simd/hard\libc-musl.a(__pop_ptr.o)
 .xc_stack_usage
                0x00000000       0x17 c:/program files/microchip/xc32/v4.10/bin/bin/../../lib/gcc/pic32c/8.3.1/../../../../pic32c/lib/arm/v7-a+simd/hard\libc-musl.a(__pop_ptr.o)
 .xc_stack_usage.hdr
                0x00000000        0xe c:/program files/microchip/xc32/v4.10/bin/bin/../../lib/gcc/pic32c/8.3.1/../../../../pic32c/lib/arm/v7-a+simd/hard\libc-musl.a(__pop_ptr.o)
 .text          0x00000000        0x0 c:/program files/microchip/xc32/v4.10/bin/bin/../../lib/gcc/pic32c/8.3.1/../../../../pic32c/lib/arm/v7-a+simd/hard\libc-musl.a(strcpy.o)
 .data          0x00000000        0x0 c:/program files/microchip/xc32/v4.10/bin/bin/../../lib/gcc/pic32c/8.3.1/../../../../pic32c/lib/arm/v7-a+simd/hard\libc-musl.a(strcpy.o)
 .bss           0x00000000        0x0 c:/program files/microchip/xc32/v4.10/bin/bin/../../lib/gcc/pic32c/8.3.1/../../../../pic32c/lib/arm/v7-a+simd/hard\libc-musl.a(strcpy.o)
 .xc_stack_usage
                0x00000000       0x14 c:/program files/microchip/xc32/v4.10/bin/bin/../../lib/gcc/pic32c/8.3.1/../../../../pic32c/lib/arm/v7-a+simd/hard\libc-musl.a(strcpy.o)
 .xc_stack_usage.hdr
                0x00000000        0xe c:/program files/microchip/xc32/v4.10/bin/bin/../../lib/gcc/pic32c/8.3.1/../../../../pic32c/lib/arm/v7-a+simd/hard\libc-musl.a(strcpy.o)
 .text          0x00000000        0x0 c:/program files/microchip/xc32/v4.10/bin/bin/../../lib/gcc/pic32c/8.3.1/../../../../pic32c/lib/arm/v7-a+simd/hard\libc-musl.a(toupper.o)
 .data          0x00000000        0x0 c:/program files/microchip/xc32/v4.10/bin/bin/../../lib/gcc/pic32c/8.3.1/../../../../pic32c/lib/arm/v7-a+simd/hard\libc-musl.a(toupper.o)
 .bss           0x00000000        0x0 c:/program files/microchip/xc32/v4.10/bin/bin/../../lib/gcc/pic32c/8.3.1/../../../../pic32c/lib/arm/v7-a+simd/hard\libc-musl.a(toupper.o)
 .xc_stack_usage
                0x00000000       0x2e c:/program files/microchip/xc32/v4.10/bin/bin/../../lib/gcc/pic32c/8.3.1/../../../../pic32c/lib/arm/v7-a+simd/hard\libc-musl.a(toupper.o)
 .text.__toupper_l
                0x00000000        0x4 c:/program files/microchip/xc32/v4.10/bin/bin/../../lib/gcc/pic32c/8.3.1/../../../../pic32c/lib/arm/v7-a+simd/hard\libc-musl.a(toupper.o)
 .xc_stack_usage.hdr
                0x00000000        0xe c:/program files/microchip/xc32/v4.10/bin/bin/../../lib/gcc/pic32c/8.3.1/../../../../pic32c/lib/arm/v7-a+simd/hard\libc-musl.a(toupper.o)
 .text          0x00000000        0x0 c:/program files/microchip/xc32/v4.10/bin/bin/../../lib/gcc/pic32c/8.3.1/../../../../pic32c/lib/arm/v7-a+simd/hard\libc-musl.a(stpcpy.o)
 .data          0x00000000        0x0 c:/program files/microchip/xc32/v4.10/bin/bin/../../lib/gcc/pic32c/8.3.1/../../../../pic32c/lib/arm/v7-a+simd/hard\libc-musl.a(stpcpy.o)
 .bss           0x00000000        0x0 c:/program files/microchip/xc32/v4.10/bin/bin/../../lib/gcc/pic32c/8.3.1/../../../../pic32c/lib/arm/v7-a+simd/hard\libc-musl.a(stpcpy.o)
 .xc_stack_usage
                0x00000000       0x14 c:/program files/microchip/xc32/v4.10/bin/bin/../../lib/gcc/pic32c/8.3.1/../../../../pic32c/lib/arm/v7-a+simd/hard\libc-musl.a(stpcpy.o)
 .xc_stack_usage.hdr
                0x00000000        0xe c:/program files/microchip/xc32/v4.10/bin/bin/../../lib/gcc/pic32c/8.3.1/../../../../pic32c/lib/arm/v7-a+simd/hard\libc-musl.a(stpcpy.o)
 .text          0x00000000        0x0 c:/program files/microchip/xc32/v4.10/bin/bin/../../lib/gcc/pic32c/8.3.1/../../../../pic32c/lib/arm/v7-a+simd/hard\libm-musl.a(floor.o)
 .data          0x00000000        0x0 c:/program files/microchip/xc32/v4.10/bin/bin/../../lib/gcc/pic32c/8.3.1/../../../../pic32c/lib/arm/v7-a+simd/hard\libm-musl.a(floor.o)
 .bss           0x00000000        0x0 c:/program files/microchip/xc32/v4.10/bin/bin/../../lib/gcc/pic32c/8.3.1/../../../../pic32c/lib/arm/v7-a+simd/hard\libm-musl.a(floor.o)
 .xc_stack_usage
                0x00000000       0x13 c:/program files/microchip/xc32/v4.10/bin/bin/../../lib/gcc/pic32c/8.3.1/../../../../pic32c/lib/arm/v7-a+simd/hard\libm-musl.a(floor.o)
 .xc_stack_usage.hdr
                0x00000000        0xe c:/program files/microchip/xc32/v4.10/bin/bin/../../lib/gcc/pic32c/8.3.1/../../../../pic32c/lib/arm/v7-a+simd/hard\libm-musl.a(floor.o)
 .text          0x00000000        0x0 c:/program files/microchip/xc32/v4.10/bin/bin/../../lib/gcc/pic32c/8.3.1/../../../../pic32c/lib/arm/v7-a+simd/hard\libm-musl.a(fma.o)
 .data          0x00000000        0x0 c:/program files/microchip/xc32/v4.10/bin/bin/../../lib/gcc/pic32c/8.3.1/../../../../pic32c/lib/arm/v7-a+simd/hard\libm-musl.a(fma.o)
 .bss           0x00000000        0x0 c:/program files/microchip/xc32/v4.10/bin/bin/../../lib/gcc/pic32c/8.3.1/../../../../pic32c/lib/arm/v7-a+simd/hard\libm-musl.a(fma.o)
 .xc_stack_usage
                0x00000000       0x28 c:/program files/microchip/xc32/v4.10/bin/bin/../../lib/gcc/pic32c/8.3.1/../../../../pic32c/lib/arm/v7-a+simd/hard\libm-musl.a(fma.o)
 .xc_stack_usage.hdr
                0x00000000        0xe c:/program files/microchip/xc32/v4.10/bin/bin/../../lib/gcc/pic32c/8.3.1/../../../../pic32c/lib/arm/v7-a+simd/hard\libm-musl.a(fma.o)
 .text          0x00000000        0x0 c:/program files/microchip/xc32/v4.10/bin/bin/../../lib/gcc/pic32c/8.3.1/../../../../pic32c/lib/arm/v7-a+simd/hard\libm-musl.a(scalbn.o)
 .data          0x00000000        0x0 c:/program files/microchip/xc32/v4.10/bin/bin/../../lib/gcc/pic32c/8.3.1/../../../../pic32c/lib/arm/v7-a+simd/hard\libm-musl.a(scalbn.o)
 .bss           0x00000000        0x0 c:/program files/microchip/xc32/v4.10/bin/bin/../../lib/gcc/pic32c/8.3.1/../../../../pic32c/lib/arm/v7-a+simd/hard\libm-musl.a(scalbn.o)
 .xc_stack_usage
                0x00000000       0x14 c:/program files/microchip/xc32/v4.10/bin/bin/../../lib/gcc/pic32c/8.3.1/../../../../pic32c/lib/arm/v7-a+simd/hard\libm-musl.a(scalbn.o)
 .xc_stack_usage.hdr
                0x00000000        0xe c:/program files/microchip/xc32/v4.10/bin/bin/../../lib/gcc/pic32c/8.3.1/../../../../pic32c/lib/arm/v7-a+simd/hard\libm-musl.a(scalbn.o)
 .text          0x00000000        0x0 c:/program files/microchip/xc32/v4.10/bin/bin/../../lib/gcc/pic32c/8.3.1/../../../../pic32c/lib/arm/v7-a+simd/hard\libpic32c.a(sbrk.o)
 .data          0x00000000        0x0 c:/program files/microchip/xc32/v4.10/bin/bin/../../lib/gcc/pic32c/8.3.1/../../../../pic32c/lib/arm/v7-a+simd/hard\libpic32c.a(sbrk.o)
 .xc_stack_usage
                0x00000000       0x13 c:/program files/microchip/xc32/v4.10/bin/bin/../../lib/gcc/pic32c/8.3.1/../../../../pic32c/lib/arm/v7-a+simd/hard\libpic32c.a(sbrk.o)
 .xc_stack_usage.hdr
                0x00000000        0xe c:/program files/microchip/xc32/v4.10/bin/bin/../../lib/gcc/pic32c/8.3.1/../../../../pic32c/lib/arm/v7-a+simd/hard\libpic32c.a(sbrk.o)
 .data          0x00000000        0x0 c:/program files/microchip/xc32/v4.10/bin/bin/../../lib/gcc/pic32c/8.3.1/arm/v7-a+simd/hard\libgcc.a(_arm_addsubdf3.o)
 .bss           0x00000000        0x0 c:/program files/microchip/xc32/v4.10/bin/bin/../../lib/gcc/pic32c/8.3.1/arm/v7-a+simd/hard\libgcc.a(_arm_addsubdf3.o)
 .xc_stack_usage.hdr
                0x00000000        0xe c:/program files/microchip/xc32/v4.10/bin/bin/../../lib/gcc/pic32c/8.3.1/arm/v7-a+simd/hard\libgcc.a(_arm_addsubdf3.o)
 .xc_stack_usage
                0x00000000       0xca c:/program files/microchip/xc32/v4.10/bin/bin/../../lib/gcc/pic32c/8.3.1/arm/v7-a+simd/hard\libgcc.a(_arm_addsubdf3.o)
 .data          0x00000000        0x0 c:/program files/microchip/xc32/v4.10/bin/bin/../../lib/gcc/pic32c/8.3.1/arm/v7-a+simd/hard\libgcc.a(_aeabi_ldivmod.o)
 .bss           0x00000000        0x0 c:/program files/microchip/xc32/v4.10/bin/bin/../../lib/gcc/pic32c/8.3.1/arm/v7-a+simd/hard\libgcc.a(_aeabi_ldivmod.o)
 .xc_stack_usage.hdr
                0x00000000        0xe c:/program files/microchip/xc32/v4.10/bin/bin/../../lib/gcc/pic32c/8.3.1/arm/v7-a+simd/hard\libgcc.a(_aeabi_ldivmod.o)
 .xc_stack_usage
                0x00000000       0x1d c:/program files/microchip/xc32/v4.10/bin/bin/../../lib/gcc/pic32c/8.3.1/arm/v7-a+simd/hard\libgcc.a(_aeabi_ldivmod.o)
 .text          0x00000000        0x0 c:/program files/microchip/xc32/v4.10/bin/bin/../../lib/gcc/pic32c/8.3.1/arm/v7-a+simd/hard/crtend.o
 .data          0x00000000        0x0 c:/program files/microchip/xc32/v4.10/bin/bin/../../lib/gcc/pic32c/8.3.1/arm/v7-a+simd/hard/crtend.o
 .bss           0x00000000        0x0 c:/program files/microchip/xc32/v4.10/bin/bin/../../lib/gcc/pic32c/8.3.1/arm/v7-a+simd/hard/crtend.o
 .eh_frame      0x00000000        0x4 c:/program files/microchip/xc32/v4.10/bin/bin/../../lib/gcc/pic32c/8.3.1/arm/v7-a+simd/hard/crtend.o
 .xc_stack_usage.hdr
                0x00000000        0xe c:/program files/microchip/xc32/v4.10/bin/bin/../../lib/gcc/pic32c/8.3.1/arm/v7-a+simd/hard/crtend.o
 .comment       0x00000000       0x2c c:/program files/microchip/xc32/v4.10/bin/bin/../../lib/gcc/pic32c/8.3.1/arm/v7-a+simd/hard/crtend.o
 .ARM.attributes
                0x00000000       0x31 c:/program files/microchip/xc32/v4.10/bin/bin/../../lib/gcc/pic32c/8.3.1/arm/v7-a+simd/hard/crtend.o
 .text          0x00000000        0x0 c:/program files/microchip/xc32/v4.10/bin/bin/../../lib/gcc/pic32c/8.3.1/arm/v7-a+simd/hard/crtn.o
 .data          0x00000000        0x0 c:/program files/microchip/xc32/v4.10/bin/bin/../../lib/gcc/pic32c/8.3.1/arm/v7-a+simd/hard/crtn.o
 .bss           0x00000000        0x0 c:/program files/microchip/xc32/v4.10/bin/bin/../../lib/gcc/pic32c/8.3.1/arm/v7-a+simd/hard/crtn.o
 .xc_stack_usage.hdr
                0x00000000        0xe c:/program files/microchip/xc32/v4.10/bin/bin/../../lib/gcc/pic32c/8.3.1/arm/v7-a+simd/hard/crtn.o

Memory Configuration

Name             Origin             Length             Attributes
sram             0x00200000         0x00020000         !xrw
ram              0x21000000         0x07000000         xrw
ram_nocache      0x20000000         0x01000000         !xrw
rom              0x00000000         0x00000000         xrl
*default*        0x00000000         0xffffffff

Linker script and memory map

LOAD c:/program files/microchip/xc32/v4.10/bin/bin/../../lib/gcc/pic32c/8.3.1/arm/v7-a+simd/hard/crti.o
LOAD c:/program files/microchip/xc32/v4.10/bin/bin/../../lib/gcc/pic32c/8.3.1/arm/v7-a+simd/hard/crtbegin.o
LOAD build/sam_a5d27_som1_winc3400/production/_ext/1279932671/drv_spi.o
LOAD build/sam_a5d27_som1_winc3400/production/_ext/1407615473/wdrv_winc_gpio.o
LOAD build/sam_a5d27_som1_winc3400/production/_ext/1407615473/wdrv_winc_eint.o
LOAD build/sam_a5d27_som1_winc3400/production/_ext/1846510740/wdrv_winc_spi.o
LOAD build/sam_a5d27_som1_winc3400/production/_ext/1941162184/nm_common.o
LOAD build/sam_a5d27_som1_winc3400/production/_ext/1909873291/nmspi.o
LOAD build/sam_a5d27_som1_winc3400/production/_ext/1909873291/nmdrv.o
LOAD build/sam_a5d27_som1_winc3400/production/_ext/1909873291/m2m_ota.o
LOAD build/sam_a5d27_som1_winc3400/production/_ext/1909873291/m2m_flash.o
LOAD build/sam_a5d27_som1_winc3400/production/_ext/1909873291/m2m_periph.o
LOAD build/sam_a5d27_som1_winc3400/production/_ext/1909873291/m2m_ssl.o
LOAD build/sam_a5d27_som1_winc3400/production/_ext/1909873291/m2m_hif.o
LOAD build/sam_a5d27_som1_winc3400/production/_ext/1909873291/nmasic.o
LOAD build/sam_a5d27_som1_winc3400/production/_ext/1909873291/nmbus.o
LOAD build/sam_a5d27_som1_winc3400/production/_ext/1909873291/m2m_wifi.o
LOAD build/sam_a5d27_som1_winc3400/production/_ext/1483395904/inet_ntop.o
LOAD build/sam_a5d27_som1_winc3400/production/_ext/1483395904/inet_addr.o
LOAD build/sam_a5d27_som1_winc3400/production/_ext/1483395904/socket.o
LOAD build/sam_a5d27_som1_winc3400/production/_ext/1501229872/spi_flash.o
LOAD build/sam_a5d27_som1_winc3400/production/_ext/973425813/wdrv_winc_osal.o
LOAD build/sam_a5d27_som1_winc3400/production/_ext/237603529/wdrv_winc_softap.o
LOAD build/sam_a5d27_som1_winc3400/production/_ext/237603529/wdrv_winc_assoc.o
LOAD build/sam_a5d27_som1_winc3400/production/_ext/237603529/wdrv_winc_httpprovctx.o
LOAD build/sam_a5d27_som1_winc3400/production/_ext/237603529/wdrv_winc_wps.o
LOAD build/sam_a5d27_som1_winc3400/production/_ext/237603529/wdrv_winc_systime.o
LOAD build/sam_a5d27_som1_winc3400/production/_ext/237603529/wdrv_winc_sta.o
LOAD build/sam_a5d27_som1_winc3400/production/_ext/237603529/wdrv_winc_bssctx.o
LOAD build/sam_a5d27_som1_winc3400/production/_ext/237603529/wdrv_winc_bssfind.o
LOAD build/sam_a5d27_som1_winc3400/production/_ext/237603529/wdrv_winc_custie.o
LOAD build/sam_a5d27_som1_winc3400/production/_ext/237603529/wdrv_winc_nvm.o
LOAD build/sam_a5d27_som1_winc3400/production/_ext/237603529/wdrv_winc_socket.o
LOAD build/sam_a5d27_som1_winc3400/production/_ext/237603529/wdrv_winc_powersave.o
LOAD build/sam_a5d27_som1_winc3400/production/_ext/237603529/wdrv_winc.o
LOAD build/sam_a5d27_som1_winc3400/production/_ext/237603529/wdrv_winc_ssl.o
LOAD build/sam_a5d27_som1_winc3400/production/_ext/237603529/wdrv_winc_enterprise.o
LOAD build/sam_a5d27_som1_winc3400/production/_ext/237603529/wdrv_winc_authctx.o
LOAD build/sam_a5d27_som1_winc3400/production/_ext/883939571/plib_aic.o
LOAD build/sam_a5d27_som1_winc3400/production/_ext/883937548/plib_clk.o
LOAD build/sam_a5d27_som1_winc3400/production/_ext/1895127654/plib_flexcom4_spi_master.o
LOAD build/sam_a5d27_som1_winc3400/production/_ext/662486865/plib_matrix.o
LOAD build/sam_a5d27_som1_winc3400/production/_ext/883927897/plib_mmu.o
LOAD build/sam_a5d27_som1_winc3400/production/_ext/883925144/plib_pio.o
LOAD build/sam_a5d27_som1_winc3400/production/_ext/941317725/plib_tc0.o
LOAD build/sam_a5d27_som1_winc3400/production/_ext/1631734212/plib_uart1.o
LOAD build/sam_a5d27_som1_winc3400/production/_ext/958701621/plib_xdmac0.o
LOAD build/sam_a5d27_som1_winc3400/production/_ext/1563713540/xc32_monitor.o
LOAD build/sam_a5d27_som1_winc3400/production/_ext/1788205625/sys_cache.o
LOAD build/sam_a5d27_som1_winc3400/production/_ext/1006343247/sys_console_uart.o
LOAD build/sam_a5d27_som1_winc3400/production/_ext/1006343247/sys_console.o
LOAD build/sam_a5d27_som1_winc3400/production/_ext/100066323/sys_debug.o
LOAD build/sam_a5d27_som1_winc3400/production/_ext/775042947/sys_dma.o
LOAD build/sam_a5d27_som1_winc3400/production/_ext/937565385/sys_int.o
LOAD build/sam_a5d27_som1_winc3400/production/_ext/695691069/sys_time.o
LOAD build/sam_a5d27_som1_winc3400/production/_ext/1420774346/initialization.o
LOAD build/sam_a5d27_som1_winc3400/production/_ext/1420774346/fault_handlers.o
LOAD build/sam_a5d27_som1_winc3400/production/_ext/1420774346/cstartup.o
LOAD build/sam_a5d27_som1_winc3400/production/_ext/1420774346/tasks.o
LOAD build/sam_a5d27_som1_winc3400/production/_ext/1420774346/interrupts.o
LOAD build/sam_a5d27_som1_winc3400/production/_ext/1360937237/app.o
LOAD build/sam_a5d27_som1_winc3400/production/_ext/1360937237/main.o
LOAD build/sam_a5d27_som1_winc3400/production/_ext/1360937237/example.o
                0x00000001                __MPLAB_BUILD = 0x1
                0x00001000                C_STACK_SIZE = 0x1000
                0x00000060                IRQ_STACK_SIZE = 0x60
                0x00000060                FIQ_STACK_SIZE = 0x60
                0x00001000                SVC_STACK_SIZE = 0x1000
                0x00000040                ABT_STACK_SIZE = 0x40
                0x00000040                UND_STACK_SIZE = 0x40

.text           0x26f00000    0x1056c
                0x26f00000                . = ALIGN (0x4)
                0x26f00000                _sfixed = .
 *(.textEntry)
 .textEntry     0x26f00000      0x13c build/sam_a5d27_som1_winc3400/production/_ext/1420774346/cstartup.o
                0x26f00000                entry
 *(.text .text.* .gnu.linkonce.t.*)
 .text          0x26f0013c       0x70 c:/program files/microchip/xc32/v4.10/bin/bin/../../lib/gcc/pic32c/8.3.1/arm/v7-a+simd/hard/crtbegin.o
 .text._DRV_SPI_DriverHandleValidate
                0x26f001ac       0x80 build/sam_a5d27_som1_winc3400/production/_ext/1279932671/drv_spi.o
 .text._DRV_SPI_RemoveTransferObjFromList
                0x26f0022c       0x28 build/sam_a5d27_som1_winc3400/production/_ext/1279932671/drv_spi.o
 .text._DRV_SPI_TX_DMA_CallbackHandler
                0x26f00254       0x7c build/sam_a5d27_som1_winc3400/production/_ext/1279932671/drv_spi.o
                0x26f00254                _DRV_SPI_TX_DMA_CallbackHandler
 .text._DRV_SPI_UpdateTransferSetupAndAssertCS
                0x26f002d0       0xdc build/sam_a5d27_som1_winc3400/production/_ext/1279932671/drv_spi.o
 .text._DRV_SPI_StartDMATransfer
                0x26f003ac      0x27c build/sam_a5d27_som1_winc3400/production/_ext/1279932671/drv_spi.o
 .text._DRV_SPI_ResourceLock
                0x26f00628      0x12c build/sam_a5d27_som1_winc3400/production/_ext/1279932671/drv_spi.o
 .text._DRV_SPI_ResourceUnlock
                0x26f00754      0x104 build/sam_a5d27_som1_winc3400/production/_ext/1279932671/drv_spi.o
 .text._DRV_SPI_RX_DMA_CallbackHandler
                0x26f00858      0x1fc build/sam_a5d27_som1_winc3400/production/_ext/1279932671/drv_spi.o
                0x26f00858                _DRV_SPI_RX_DMA_CallbackHandler
 .text._DRV_SPI_PlibCallbackHandler
                0x26f00a54      0x148 build/sam_a5d27_som1_winc3400/production/_ext/1279932671/drv_spi.o
 .text.DRV_SPI_Initialize
                0x26f00b9c      0x188 build/sam_a5d27_som1_winc3400/production/_ext/1279932671/drv_spi.o
                0x26f00b9c                DRV_SPI_Initialize
 .text.DRV_SPI_Open
                0x26f00d24      0x228 build/sam_a5d27_som1_winc3400/production/_ext/1279932671/drv_spi.o
                0x26f00d24                DRV_SPI_Open
 .text.DRV_SPI_TransferEventHandlerSet
                0x26f00f4c       0x90 build/sam_a5d27_som1_winc3400/production/_ext/1279932671/drv_spi.o
                0x26f00f4c                DRV_SPI_TransferEventHandlerSet
 .text.DRV_SPI_WriteReadTransferAdd
                0x26f00fdc      0x34c build/sam_a5d27_som1_winc3400/production/_ext/1279932671/drv_spi.o
                0x26f00fdc                DRV_SPI_WriteReadTransferAdd
 .text.DRV_SPI_WriteTransferAdd
                0x26f01328       0x20 build/sam_a5d27_som1_winc3400/production/_ext/1279932671/drv_spi.o
                0x26f01328                DRV_SPI_WriteTransferAdd
 .text.WDRV_WINC_GPIOResetAssert
                0x26f01348       0x14 build/sam_a5d27_som1_winc3400/production/_ext/1407615473/wdrv_winc_gpio.o
                0x26f01348                WDRV_WINC_GPIOResetAssert
 .text.WDRV_WINC_GPIOResetDeassert
                0x26f0135c       0x14 build/sam_a5d27_som1_winc3400/production/_ext/1407615473/wdrv_winc_gpio.o
                0x26f0135c                WDRV_WINC_GPIOResetDeassert
 .text.WDRV_WINC_GPIOChipEnableAssert
                0x26f01370       0x14 build/sam_a5d27_som1_winc3400/production/_ext/1407615473/wdrv_winc_gpio.o
                0x26f01370                WDRV_WINC_GPIOChipEnableAssert
 .text.WDRV_WINC_GPIOChipEnableDeassert
                0x26f01384       0x14 build/sam_a5d27_som1_winc3400/production/_ext/1407615473/wdrv_winc_gpio.o
                0x26f01384                WDRV_WINC_GPIOChipEnableDeassert
 .text.WDRV_WINC_INTInitialize
                0x26f01398       0x34 build/sam_a5d27_som1_winc3400/production/_ext/1407615473/wdrv_winc_eint.o
                0x26f01398                WDRV_WINC_INTInitialize
 .text.WDRV_WINC_INTDeinitialize
                0x26f013cc       0x20 build/sam_a5d27_som1_winc3400/production/_ext/1407615473/wdrv_winc_eint.o
                0x26f013cc                WDRV_WINC_INTDeinitialize
 .text._WDRV_WINC_SPITransferEventHandler
                0x26f013ec       0x60 build/sam_a5d27_som1_winc3400/production/_ext/1846510740/wdrv_winc_spi.o
 .text.WDRV_WINC_SPISend
                0x26f0144c       0x70 build/sam_a5d27_som1_winc3400/production/_ext/1846510740/wdrv_winc_spi.o
                0x26f0144c                WDRV_WINC_SPISend
 .text.WDRV_WINC_SPIReceive
                0x26f014bc       0x88 build/sam_a5d27_som1_winc3400/production/_ext/1846510740/wdrv_winc_spi.o
                0x26f014bc                WDRV_WINC_SPIReceive
 .text.WDRV_WINC_SPIOpen
                0x26f01544       0x94 build/sam_a5d27_som1_winc3400/production/_ext/1846510740/wdrv_winc_spi.o
                0x26f01544                WDRV_WINC_SPIOpen
 .text.WDRV_WINC_SPIInitialize
                0x26f015d8       0x24 build/sam_a5d27_som1_winc3400/production/_ext/1846510740/wdrv_winc_spi.o
                0x26f015d8                WDRV_WINC_SPIInitialize
 .text.WDRV_WINC_SPIDeinitialize
                0x26f015fc       0x38 build/sam_a5d27_som1_winc3400/production/_ext/1846510740/wdrv_winc_spi.o
                0x26f015fc                WDRV_WINC_SPIDeinitialize
 .text.nm_sleep
                0x26f01634        0xc build/sam_a5d27_som1_winc3400/production/_ext/1941162184/nm_common.o
                0x26f01634                nm_sleep
 .text.nm_reset
                0x26f01640       0x30 build/sam_a5d27_som1_winc3400/production/_ext/1941162184/nm_common.o
                0x26f01640                nm_reset
 .text.hexstr_2_bytes
                0x26f01670       0xc8 build/sam_a5d27_som1_winc3400/production/_ext/1941162184/nm_common.o
                0x26f01670                hexstr_2_bytes
 .text.spi_cmd  0x26f01738      0x1fc build/sam_a5d27_som1_winc3400/production/_ext/1909873291/nmspi.o
 .text.spi_cmd_rsp
                0x26f01934      0x178 build/sam_a5d27_som1_winc3400/production/_ext/1909873291/nmspi.o
 .text.spi_data_read
                0x26f01aac      0x19c build/sam_a5d27_som1_winc3400/production/_ext/1909873291/nmspi.o
 .text.spi_reset
                0x26f01c48       0x48 build/sam_a5d27_som1_winc3400/production/_ext/1909873291/nmspi.o
 .text.nm_spi_lock_init
                0x26f01c90       0x14 build/sam_a5d27_som1_winc3400/production/_ext/1909873291/nmspi.o
                0x26f01c90                nm_spi_lock_init
 .text.nm_spi_deinit
                0x26f01ca4       0x14 build/sam_a5d27_som1_winc3400/production/_ext/1909873291/nmspi.o
                0x26f01ca4                nm_spi_deinit
 .text.nm_spi_read_reg_with_ret
                0x26f01cb8      0x198 build/sam_a5d27_som1_winc3400/production/_ext/1909873291/nmspi.o
                0x26f01cb8                nm_spi_read_reg_with_ret
 .text.nm_spi_read_reg
                0x26f01e50       0x1c build/sam_a5d27_som1_winc3400/production/_ext/1909873291/nmspi.o
                0x26f01e50                nm_spi_read_reg
 .text.nm_spi_write_reg
                0x26f01e6c      0x13c build/sam_a5d27_som1_winc3400/production/_ext/1909873291/nmspi.o
                0x26f01e6c                nm_spi_write_reg
 .text.nm_spi_init
                0x26f01fa8      0x198 build/sam_a5d27_som1_winc3400/production/_ext/1909873291/nmspi.o
                0x26f01fa8                nm_spi_init
 .text.nm_spi_read_block
                0x26f02140      0x1a8 build/sam_a5d27_som1_winc3400/production/_ext/1909873291/nmspi.o
                0x26f02140                nm_spi_read_block
 .text.nm_spi_write_block
                0x26f022e8      0x35c build/sam_a5d27_som1_winc3400/production/_ext/1909873291/nmspi.o
                0x26f022e8                nm_spi_write_block
 .text.nm_get_hif_info
                0x26f02644       0x58 build/sam_a5d27_som1_winc3400/production/_ext/1909873291/nmdrv.o
                0x26f02644                nm_get_hif_info
 .text.nm_get_firmware_full_info
                0x26f0269c      0x1d4 build/sam_a5d27_som1_winc3400/production/_ext/1909873291/nmdrv.o
                0x26f0269c                nm_get_firmware_full_info
 .text.nm_get_ota_firmware_info
                0x26f02870      0x1d4 build/sam_a5d27_som1_winc3400/production/_ext/1909873291/nmdrv.o
                0x26f02870                nm_get_ota_firmware_info
 .text.nm_drv_init_download_mode
                0x26f02a44       0x94 build/sam_a5d27_som1_winc3400/production/_ext/1909873291/nmdrv.o
                0x26f02a44                nm_drv_init_download_mode
 .text.nm_drv_init_hold
                0x26f02ad8       0xb0 build/sam_a5d27_som1_winc3400/production/_ext/1909873291/nmdrv.o
                0x26f02ad8                nm_drv_init_hold
 .text.nm_drv_init_start
                0x26f02b88       0xac build/sam_a5d27_som1_winc3400/production/_ext/1909873291/nmdrv.o
                0x26f02b88                nm_drv_init_start
 .text.nm_drv_deinit
                0x26f02c34       0x78 build/sam_a5d27_som1_winc3400/production/_ext/1909873291/nmdrv.o
                0x26f02c34                nm_drv_deinit
 .text.nm_get_state
                0x26f02cac       0x10 build/sam_a5d27_som1_winc3400/production/_ext/1909873291/nmdrv.o
                0x26f02cac                nm_get_state
 .text.m2m_ota_cb
                0x26f02cbc       0x84 build/sam_a5d27_som1_winc3400/production/_ext/1909873291/m2m_ota.o
 .text.m2m_ota_init
                0x26f02d40       0x50 build/sam_a5d27_som1_winc3400/production/_ext/1909873291/m2m_ota.o
                0x26f02d40                m2m_ota_init
 .text.m2m_ssl_cb
                0x26f02d90      0x238 build/sam_a5d27_som1_winc3400/production/_ext/1909873291/m2m_ssl.o
 .text.m2m_ssl_init
                0x26f02fc8       0x74 build/sam_a5d27_som1_winc3400/production/_ext/1909873291/m2m_ssl.o
                0x26f02fc8                m2m_ssl_init
 .text.m2m_hif_cb
                0x26f0303c        0x4 build/sam_a5d27_som1_winc3400/production/_ext/1909873291/m2m_hif.o
 .text.hif_set_rx_done
                0x26f03040       0x70 build/sam_a5d27_som1_winc3400/production/_ext/1909873291/m2m_hif.o
 .text.hif_chip_wake
                0x26f030b0       0x78 build/sam_a5d27_som1_winc3400/production/_ext/1909873291/m2m_hif.o
                0x26f030b0                hif_chip_wake
 .text.hif_chip_sleep
                0x26f03128       0x70 build/sam_a5d27_som1_winc3400/production/_ext/1909873291/m2m_hif.o
                0x26f03128                hif_chip_sleep
 .text.hif_deinit
                0x26f03198       0x28 build/sam_a5d27_som1_winc3400/production/_ext/1909873291/m2m_hif.o
                0x26f03198                hif_deinit
 .text.hif_check_compatibility
                0x26f031c0       0x28 build/sam_a5d27_som1_winc3400/production/_ext/1909873291/m2m_hif.o
                0x26f031c0                hif_check_compatibility
 .text.hif_enable_access
                0x26f031e8      0x13c build/sam_a5d27_som1_winc3400/production/_ext/1909873291/m2m_hif.o
                0x26f031e8                hif_enable_access
 .text.hif_check_code
                0x26f03324       0xf4 build/sam_a5d27_som1_winc3400/production/_ext/1909873291/m2m_hif.o
                0x26f03324                hif_check_code
 .text.hif_send
                0x26f03418      0x508 build/sam_a5d27_som1_winc3400/production/_ext/1909873291/m2m_hif.o
                0x26f03418                hif_send
 .text.hif_handle_isr
                0x26f03920      0x55c build/sam_a5d27_som1_winc3400/production/_ext/1909873291/m2m_hif.o
                0x26f03920                hif_handle_isr
 .text.hif_receive
                0x26f03e7c      0x150 build/sam_a5d27_som1_winc3400/production/_ext/1909873291/m2m_hif.o
                0x26f03e7c                hif_receive
 .text.hif_register_cb
                0x26f03fcc       0xd8 build/sam_a5d27_som1_winc3400/production/_ext/1909873291/m2m_hif.o
                0x26f03fcc                hif_register_cb
 .text.hif_init
                0x26f040a4       0x50 build/sam_a5d27_som1_winc3400/production/_ext/1909873291/m2m_hif.o
                0x26f040a4                hif_init
 .text.chip_apply_conf
                0x26f040f4       0x58 build/sam_a5d27_som1_winc3400/production/_ext/1909873291/nmasic.o
                0x26f040f4                chip_apply_conf
 .text.chip_idle
                0x26f0414c       0x44 build/sam_a5d27_som1_winc3400/production/_ext/1909873291/nmasic.o
                0x26f0414c                chip_idle
 .text.enable_interrupts
                0x26f04190       0x90 build/sam_a5d27_som1_winc3400/production/_ext/1909873291/nmasic.o
                0x26f04190                enable_interrupts
 .text.cpu_start
                0x26f04220      0x120 build/sam_a5d27_som1_winc3400/production/_ext/1909873291/nmasic.o
                0x26f04220                cpu_start
 .text.nmi_get_chipid
                0x26f04340      0x1f0 build/sam_a5d27_som1_winc3400/production/_ext/1909873291/nmasic.o
                0x26f04340                nmi_get_chipid
 .text.chip_sleep
                0x26f04530       0xa0 build/sam_a5d27_som1_winc3400/production/_ext/1909873291/nmasic.o
                0x26f04530                chip_sleep
 .text.chip_wake
                0x26f045d0      0x124 build/sam_a5d27_som1_winc3400/production/_ext/1909873291/nmasic.o
                0x26f045d0                chip_wake
 .text.wait_for_bootrom
                0x26f046f4      0x118 build/sam_a5d27_som1_winc3400/production/_ext/1909873291/nmasic.o
                0x26f046f4                wait_for_bootrom
 .text.wait_for_firmware_start
                0x26f0480c      0x154 build/sam_a5d27_som1_winc3400/production/_ext/1909873291/nmasic.o
                0x26f0480c                wait_for_firmware_start
 .text.chip_deinit
                0x26f04960      0x11c build/sam_a5d27_som1_winc3400/production/_ext/1909873291/nmasic.o
                0x26f04960                chip_deinit
 .text.nmi_get_mac_address
                0x26f04a7c       0x80 build/sam_a5d27_som1_winc3400/production/_ext/1909873291/nmasic.o
                0x26f04a7c                nmi_get_mac_address
 .text.nm_bus_iface_init
                0x26f04afc       0x18 build/sam_a5d27_som1_winc3400/production/_ext/1909873291/nmbus.o
                0x26f04afc                nm_bus_iface_init
 .text.nm_bus_iface_deinit
                0x26f04b14        0x8 build/sam_a5d27_som1_winc3400/production/_ext/1909873291/nmbus.o
                0x26f04b14                nm_bus_iface_deinit
 .text.nm_read_reg
                0x26f04b1c        0xc build/sam_a5d27_som1_winc3400/production/_ext/1909873291/nmbus.o
                0x26f04b1c                nm_read_reg
 .text.nm_read_reg_with_ret
                0x26f04b28        0xc build/sam_a5d27_som1_winc3400/production/_ext/1909873291/nmbus.o
                0x26f04b28                nm_read_reg_with_ret
 .text.nm_write_reg
                0x26f04b34        0xc build/sam_a5d27_som1_winc3400/production/_ext/1909873291/nmbus.o
                0x26f04b34                nm_write_reg
 .text.nm_read_block
                0x26f04b40       0x84 build/sam_a5d27_som1_winc3400/production/_ext/1909873291/nmbus.o
                0x26f04b40                nm_read_block
 .text.nm_write_block
                0x26f04bc4       0x84 build/sam_a5d27_som1_winc3400/production/_ext/1909873291/nmbus.o
                0x26f04bc4                nm_write_block
 .text.m2m_wifi_cb
                0x26f04c48      0x694 build/sam_a5d27_som1_winc3400/production/_ext/1909873291/m2m_wifi.o
 .text.m2m_wifi_connect_prepare_msg
                0x26f052dc      0x150 build/sam_a5d27_som1_winc3400/production/_ext/1909873291/m2m_wifi.o
 .text.legacy_connect_prepare_msg
                0x26f0542c       0x88 build/sam_a5d27_som1_winc3400/production/_ext/1909873291/m2m_wifi.o
 .text.m2m_wifi_download_mode
                0x26f054b4       0x20 build/sam_a5d27_som1_winc3400/production/_ext/1909873291/m2m_wifi.o
                0x26f054b4                m2m_wifi_download_mode
 .text.m2m_wifi_ble_set_gain_table
                0x26f054d4       0x3c build/sam_a5d27_som1_winc3400/production/_ext/1909873291/m2m_wifi.o
                0x26f054d4                m2m_wifi_ble_set_gain_table
 .text.m2m_wifi_init_hold
                0x26f05510        0xc build/sam_a5d27_som1_winc3400/production/_ext/1909873291/m2m_wifi.o
                0x26f05510                m2m_wifi_init_hold
 .text.m2m_wifi_deinit
                0x26f0551c       0x1c build/sam_a5d27_som1_winc3400/production/_ext/1909873291/m2m_wifi.o
                0x26f0551c                m2m_wifi_deinit
 .text.m2m_wifi_get_state
                0x26f05538       0x1c build/sam_a5d27_som1_winc3400/production/_ext/1909873291/m2m_wifi.o
                0x26f05538                m2m_wifi_get_state
 .text.m2m_wifi_handle_events
                0x26f05554       0x20 build/sam_a5d27_som1_winc3400/production/_ext/1909873291/m2m_wifi.o
                0x26f05554                m2m_wifi_handle_events
 .text.m2m_wifi_default_connect
                0x26f05574       0x30 build/sam_a5d27_som1_winc3400/production/_ext/1909873291/m2m_wifi.o
                0x26f05574                m2m_wifi_default_connect
 .text.m2m_wifi_connect_open
                0x26f055a4       0x98 build/sam_a5d27_som1_winc3400/production/_ext/1909873291/m2m_wifi.o
                0x26f055a4                m2m_wifi_connect_open
 .text.m2m_wifi_connect_psk
                0x26f0563c      0x180 build/sam_a5d27_som1_winc3400/production/_ext/1909873291/m2m_wifi.o
                0x26f0563c                m2m_wifi_connect_psk
 .text.m2m_wifi_connect_1x_mschap2
                0x26f057bc      0x20c build/sam_a5d27_som1_winc3400/production/_ext/1909873291/m2m_wifi.o
                0x26f057bc                m2m_wifi_connect_1x_mschap2
 .text.m2m_wifi_connect_1x_tls
                0x26f059c8      0x2cc build/sam_a5d27_som1_winc3400/production/_ext/1909873291/m2m_wifi.o
                0x26f059c8                m2m_wifi_connect_1x_tls
 .text.m2m_wifi_set_static_ip
                0x26f05c94       0x34 build/sam_a5d27_som1_winc3400/production/_ext/1909873291/m2m_wifi.o
                0x26f05c94                m2m_wifi_set_static_ip
 .text.m2m_wifi_enable_dhcp
                0x26f05cc8       0x38 build/sam_a5d27_som1_winc3400/production/_ext/1909873291/m2m_wifi.o
                0x26f05cc8                m2m_wifi_enable_dhcp
 .text.m2m_wifi_set_scan_options
                0x26f05d00      0x168 build/sam_a5d27_som1_winc3400/production/_ext/1909873291/m2m_wifi.o
                0x26f05d00                m2m_wifi_set_scan_options
 .text.m2m_wifi_request_scan
                0x26f05e68       0x58 build/sam_a5d27_som1_winc3400/production/_ext/1909873291/m2m_wifi.o
                0x26f05e68                m2m_wifi_request_scan
 .text.m2m_wifi_request_scan_passive
                0x26f05ec0       0x58 build/sam_a5d27_som1_winc3400/production/_ext/1909873291/m2m_wifi.o
                0x26f05ec0                m2m_wifi_request_scan_passive
 .text.m2m_wifi_request_scan_ssid_list
                0x26f05f18       0xc0 build/sam_a5d27_som1_winc3400/production/_ext/1909873291/m2m_wifi.o
                0x26f05f18                m2m_wifi_request_scan_ssid_list
 .text.m2m_wifi_req_restrict_ble
                0x26f05fd8       0x30 build/sam_a5d27_som1_winc3400/production/_ext/1909873291/m2m_wifi.o
                0x26f05fd8                m2m_wifi_req_restrict_ble
 .text.m2m_wifi_get_mac_address
                0x26f06008       0x30 build/sam_a5d27_som1_winc3400/production/_ext/1909873291/m2m_wifi.o
                0x26f06008                m2m_wifi_get_mac_address
 .text.m2m_wifi_req_scan_result
                0x26f06038       0x38 build/sam_a5d27_som1_winc3400/production/_ext/1909873291/m2m_wifi.o
                0x26f06038                m2m_wifi_req_scan_result
 .text.m2m_wifi_get_num_ap_found
                0x26f06070       0x10 build/sam_a5d27_som1_winc3400/production/_ext/1909873291/m2m_wifi.o
                0x26f06070                m2m_wifi_get_num_ap_found
 .text.m2m_wifi_get_chipId
                0x26f06080        0xc build/sam_a5d27_som1_winc3400/production/_ext/1909873291/m2m_wifi.o
                0x26f06080                m2m_wifi_get_chipId
 .text.m2m_wifi_get_firmware_version
                0x26f0608c       0x30 build/sam_a5d27_som1_winc3400/production/_ext/1909873291/m2m_wifi.o
                0x26f0608c                m2m_wifi_get_firmware_version
 .text.m2m_ota_get_firmware_version
                0x26f060bc       0x30 build/sam_a5d27_som1_winc3400/production/_ext/1909873291/m2m_wifi.o
                0x26f060bc                m2m_ota_get_firmware_version
 .text.m2m_wifi_init_start
                0x26f060ec      0x140 build/sam_a5d27_som1_winc3400/production/_ext/1909873291/m2m_wifi.o
                0x26f060ec                m2m_wifi_init_start
 .text.inet_ntop
                0x26f0622c       0xf4 build/sam_a5d27_som1_winc3400/production/_ext/1483395904/inet_ntop.o
                0x26f0622c                inet_ntop
 .text.m2m_ip_cb
                0x26f06320      0x764 build/sam_a5d27_som1_winc3400/production/_ext/1483395904/socket.o
 .text.socketInit
                0x26f06a84       0x60 build/sam_a5d27_som1_winc3400/production/_ext/1483395904/socket.o
                0x26f06a84                socketInit
 .text.socketDeinit
                0x26f06ae4       0x50 build/sam_a5d27_som1_winc3400/production/_ext/1483395904/socket.o
                0x26f06ae4                socketDeinit
 .text.WDRV_MSDelay
                0x26f06b34       0x38 build/sam_a5d27_som1_winc3400/production/_ext/973425813/wdrv_winc_osal.o
                0x26f06b34                WDRV_MSDelay
 .text.WDRV_WINC_LocalTimeToUTC
                0x26f06b6c       0xd8 build/sam_a5d27_som1_winc3400/production/_ext/237603529/wdrv_winc_systime.o
                0x26f06b6c                WDRV_WINC_LocalTimeToUTC
 .text._WDRV_WINC_ConnNetCfg
                0x26f06c44       0xa8 build/sam_a5d27_som1_winc3400/production/_ext/237603529/wdrv_winc_sta.o
 .text.WDRV_WINC_BSSConnect
                0x26f06cec      0x358 build/sam_a5d27_som1_winc3400/production/_ext/237603529/wdrv_winc_sta.o
                0x26f06cec                WDRV_WINC_BSSConnect
 .text.WDRV_WINC_BSSReconnect
                0x26f07044       0xa4 build/sam_a5d27_som1_winc3400/production/_ext/237603529/wdrv_winc_sta.o
                0x26f07044                WDRV_WINC_BSSReconnect
 .text.WDRV_WINC_BSSCtxIsValid
                0x26f070e8       0xb4 build/sam_a5d27_som1_winc3400/production/_ext/237603529/wdrv_winc_bssctx.o
                0x26f070e8                WDRV_WINC_BSSCtxIsValid
 .text.WDRV_WINC_BSSCtxSetDefaults
                0x26f0719c       0x30 build/sam_a5d27_som1_winc3400/production/_ext/237603529/wdrv_winc_bssctx.o
                0x26f0719c                WDRV_WINC_BSSCtxSetDefaults
 .text.WDRV_WINC_BSSCtxSetSSID
                0x26f071cc       0x70 build/sam_a5d27_som1_winc3400/production/_ext/237603529/wdrv_winc_bssctx.o
                0x26f071cc                WDRV_WINC_BSSCtxSetSSID
 .text.WDRV_WINC_BSSCtxSetChannel
                0x26f0723c       0x48 build/sam_a5d27_som1_winc3400/production/_ext/237603529/wdrv_winc_bssctx.o
                0x26f0723c                WDRV_WINC_BSSCtxSetChannel
 .text.WDRV_WINC_BSSFindFirst
                0x26f07284      0x1d8 build/sam_a5d27_som1_winc3400/production/_ext/237603529/wdrv_winc_bssfind.o
                0x26f07284                WDRV_WINC_BSSFindFirst
 .text.WDRV_WINC_BSSFindNext
                0x26f0745c       0xb8 build/sam_a5d27_som1_winc3400/production/_ext/237603529/wdrv_winc_bssfind.o
                0x26f0745c                WDRV_WINC_BSSFindNext
 .text.WDRV_WINC_BSSFindGetInfo
                0x26f07514       0xbc build/sam_a5d27_som1_winc3400/production/_ext/237603529/wdrv_winc_bssfind.o
                0x26f07514                WDRV_WINC_BSSFindGetInfo
 .text.WDRV_WINC_BSSFindGetNumBSSResults
                0x26f075d0       0x5c build/sam_a5d27_som1_winc3400/production/_ext/237603529/wdrv_winc_bssfind.o
                0x26f075d0                WDRV_WINC_BSSFindGetNumBSSResults
 .text.WDRV_WINC_BSSFindInProgress
                0x26f0762c       0x38 build/sam_a5d27_som1_winc3400/production/_ext/237603529/wdrv_winc_bssfind.o
                0x26f0762c                WDRV_WINC_BSSFindInProgress
 .text.WDRV_WINC_IPUseDHCPSet
                0x26f07664       0x68 build/sam_a5d27_som1_winc3400/production/_ext/237603529/wdrv_winc_socket.o
                0x26f07664                WDRV_WINC_IPUseDHCPSet
 .text.WDRV_WINC_IPLinkActive
                0x26f076cc       0x30 build/sam_a5d27_som1_winc3400/production/_ext/237603529/wdrv_winc_socket.o
                0x26f076cc                WDRV_WINC_IPLinkActive
 .text._WDRV_WINC_OTAUpdateCallback
                0x26f076fc       0x98 build/sam_a5d27_som1_winc3400/production/_ext/237603529/wdrv_winc.o
 .text._WDRV_WINC_SSLCallback
                0x26f07794      0x19c build/sam_a5d27_som1_winc3400/production/_ext/237603529/wdrv_winc.o
 .text._WDRV_WINC_WifiCallback
                0x26f07930      0x6e0 build/sam_a5d27_som1_winc3400/production/_ext/237603529/wdrv_winc.o
 .text.WDRV_WINC_Initialize
                0x26f08010       0xa0 build/sam_a5d27_som1_winc3400/production/_ext/237603529/wdrv_winc.o
                0x26f08010                WDRV_WINC_Initialize
 .text.WDRV_WINC_Status
                0x26f080b0       0x30 build/sam_a5d27_som1_winc3400/production/_ext/237603529/wdrv_winc.o
                0x26f080b0                WDRV_WINC_Status
 .text.WDRV_WINC_Tasks
                0x26f080e0      0x3c4 build/sam_a5d27_som1_winc3400/production/_ext/237603529/wdrv_winc.o
                0x26f080e0                WDRV_WINC_Tasks
 .text.WDRV_WINC_Open
                0x26f084a4      0x19c build/sam_a5d27_som1_winc3400/production/_ext/237603529/wdrv_winc.o
                0x26f084a4                WDRV_WINC_Open
 .text.WDRV_WINC_ISR
                0x26f08640       0x28 build/sam_a5d27_som1_winc3400/production/_ext/237603529/wdrv_winc.o
                0x26f08640                WDRV_WINC_ISR
 .text.WDRV_WINC_AuthCtxSetOpen
                0x26f08668       0x20 build/sam_a5d27_som1_winc3400/production/_ext/237603529/wdrv_winc_authctx.o
                0x26f08668                WDRV_WINC_AuthCtxSetOpen
 .text.WDRV_WINC_AuthCtxSetWPA
                0x26f08688       0x74 build/sam_a5d27_som1_winc3400/production/_ext/237603529/wdrv_winc_authctx.o
                0x26f08688                WDRV_WINC_AuthCtxSetWPA
 .text.AIC_INT_Initialize
                0x26f086fc      0x144 build/sam_a5d27_som1_winc3400/production/_ext/883939571/plib_aic.o
                0x26f086fc                AIC_INT_Initialize
 .text.AIC_INT_IrqDisable
                0x26f08840       0x28 build/sam_a5d27_som1_winc3400/production/_ext/883939571/plib_aic.o
                0x26f08840                AIC_INT_IrqDisable
 .text.AIC_INT_IrqRestore
                0x26f08868       0x20 build/sam_a5d27_som1_winc3400/production/_ext/883939571/plib_aic.o
                0x26f08868                AIC_INT_IrqRestore
 .text.CLK_Initialize
                0x26f08888       0x58 build/sam_a5d27_som1_winc3400/production/_ext/883937548/plib_clk.o
                0x26f08888                CLK_Initialize
 .text.FLEXCOM4_SPI_Initialize
                0x26f088e0       0x4c build/sam_a5d27_som1_winc3400/production/_ext/1895127654/plib_flexcom4_spi_master.o
                0x26f088e0                FLEXCOM4_SPI_Initialize
 .text.FLEXCOM4_SPI_WriteRead
                0x26f0892c      0x29c build/sam_a5d27_som1_winc3400/production/_ext/1895127654/plib_flexcom4_spi_master.o
                0x26f0892c                FLEXCOM4_SPI_WriteRead
 .text.FLEXCOM4_SPI_TransferSetup
                0x26f08bc8       0x98 build/sam_a5d27_som1_winc3400/production/_ext/1895127654/plib_flexcom4_spi_master.o
                0x26f08bc8                FLEXCOM4_SPI_TransferSetup
 .text.FLEXCOM4_SPI_IsTransmitterBusy
                0x26f08c60       0x18 build/sam_a5d27_som1_winc3400/production/_ext/1895127654/plib_flexcom4_spi_master.o
                0x26f08c60                FLEXCOM4_SPI_IsTransmitterBusy
 .text.FLEXCOM4_SPI_CallbackRegister
                0x26f08c78       0x14 build/sam_a5d27_som1_winc3400/production/_ext/1895127654/plib_flexcom4_spi_master.o
                0x26f08c78                FLEXCOM4_SPI_CallbackRegister
 .text.FLEXCOM4_InterruptHandler
                0x26f08c8c      0x340 build/sam_a5d27_som1_winc3400/production/_ext/1895127654/plib_flexcom4_spi_master.o
                0x26f08c8c                FLEXCOM4_InterruptHandler
 .text.Matrix_Initialize
                0x26f08fcc       0x50 build/sam_a5d27_som1_winc3400/production/_ext/662486865/plib_matrix.o
                0x26f08fcc                Matrix_Initialize
 .text.icache_Enable
                0x26f0901c       0x28 build/sam_a5d27_som1_winc3400/production/_ext/883927897/plib_mmu.o
                0x26f0901c                icache_Enable
 .text.MMU_Initialize
                0x26f09044      0x330 build/sam_a5d27_som1_winc3400/production/_ext/883927897/plib_mmu.o
                0x26f09044                MMU_Initialize
 .text.PIO_Initialize
                0x26f09374       0xb4 build/sam_a5d27_som1_winc3400/production/_ext/883925144/plib_pio.o
                0x26f09374                PIO_Initialize
 .text.PIO_PortSet
                0x26f09428       0x14 build/sam_a5d27_som1_winc3400/production/_ext/883925144/plib_pio.o
                0x26f09428                PIO_PortSet
 .text.PIO_PortClear
                0x26f0943c       0x14 build/sam_a5d27_som1_winc3400/production/_ext/883925144/plib_pio.o
                0x26f0943c                PIO_PortClear
 .text.PIO_PortInterruptEnable
                0x26f09450       0x14 build/sam_a5d27_som1_winc3400/production/_ext/883925144/plib_pio.o
                0x26f09450                PIO_PortInterruptEnable
 .text.PIO_PortInterruptDisable
                0x26f09464       0x14 build/sam_a5d27_som1_winc3400/production/_ext/883925144/plib_pio.o
                0x26f09464                PIO_PortInterruptDisable
 .text.PIO_PinInterruptCallbackRegister
                0x26f09478       0xa8 build/sam_a5d27_som1_winc3400/production/_ext/883925144/plib_pio.o
                0x26f09478                PIO_PinInterruptCallbackRegister
 .text.PIOB_InterruptHandler
                0x26f09520       0x5c build/sam_a5d27_som1_winc3400/production/_ext/883925144/plib_pio.o
                0x26f09520                PIOB_InterruptHandler
 .text.TC0_CH0_TimerInitialize
                0x26f0957c       0x30 build/sam_a5d27_som1_winc3400/production/_ext/941317725/plib_tc0.o
                0x26f0957c                TC0_CH0_TimerInitialize
 .text.TC0_CH0_TimerStart
                0x26f095ac       0x14 build/sam_a5d27_som1_winc3400/production/_ext/941317725/plib_tc0.o
                0x26f095ac                TC0_CH0_TimerStart
 .text.TC0_CH0_TimerStop
                0x26f095c0       0x14 build/sam_a5d27_som1_winc3400/production/_ext/941317725/plib_tc0.o
                0x26f095c0                TC0_CH0_TimerStop
 .text.TC0_CH0_TimerFrequencyGet
                0x26f095d4        0xc build/sam_a5d27_som1_winc3400/production/_ext/941317725/plib_tc0.o
                0x26f095d4                TC0_CH0_TimerFrequencyGet
 .text.TC0_CH0_TimerPeriodSet
                0x26f095e0       0x10 build/sam_a5d27_som1_winc3400/production/_ext/941317725/plib_tc0.o
                0x26f095e0                TC0_CH0_TimerPeriodSet
 .text.TC0_CH0_TimerCompareSet
                0x26f095f0       0x10 build/sam_a5d27_som1_winc3400/production/_ext/941317725/plib_tc0.o
                0x26f095f0                TC0_CH0_TimerCompareSet
 .text.TC0_CH0_TimerCounterGet
                0x26f09600       0x10 build/sam_a5d27_som1_winc3400/production/_ext/941317725/plib_tc0.o
                0x26f09600                TC0_CH0_TimerCounterGet
 .text.TC0_CH0_TimerCallbackRegister
                0x26f09610       0x14 build/sam_a5d27_som1_winc3400/production/_ext/941317725/plib_tc0.o
                0x26f09610                TC0_CH0_TimerCallbackRegister
 .text.TC0_CH0_InterruptHandler
                0x26f09624       0x40 build/sam_a5d27_som1_winc3400/production/_ext/941317725/plib_tc0.o
                0x26f09624                TC0_CH0_InterruptHandler
 .text.TC0_InterruptHandler
                0x26f09664        0xc build/sam_a5d27_som1_winc3400/production/_ext/941317725/plib_tc0.o
                0x26f09664                TC0_InterruptHandler
 .text.UART1_WritePendingBytesGet
                0x26f09670       0x20 build/sam_a5d27_som1_winc3400/production/_ext/1631734212/plib_uart1.o
 .text.UART1_Initialize
                0x26f09690       0x70 build/sam_a5d27_som1_winc3400/production/_ext/1631734212/plib_uart1.o
                0x26f09690                UART1_Initialize
 .text.UART1_Read
                0x26f09700       0xd0 build/sam_a5d27_som1_winc3400/production/_ext/1631734212/plib_uart1.o
                0x26f09700                UART1_Read
 .text.UART1_ReadCountGet
                0x26f097d0       0x20 build/sam_a5d27_som1_winc3400/production/_ext/1631734212/plib_uart1.o
                0x26f097d0                UART1_ReadCountGet
 .text.UART1_ReadFreeBufferCountGet
                0x26f097f0       0x10 build/sam_a5d27_som1_winc3400/production/_ext/1631734212/plib_uart1.o
                0x26f097f0                UART1_ReadFreeBufferCountGet
 .text.UART1_WriteCountGet
                0x26f09800        0xc build/sam_a5d27_som1_winc3400/production/_ext/1631734212/plib_uart1.o
                0x26f09800                UART1_WriteCountGet
 .text.UART1_Write
                0x26f0980c       0x98 build/sam_a5d27_som1_winc3400/production/_ext/1631734212/plib_uart1.o
                0x26f0980c                UART1_Write
 .text.UART1_WriteFreeBufferCountGet
                0x26f098a4       0x14 build/sam_a5d27_som1_winc3400/production/_ext/1631734212/plib_uart1.o
                0x26f098a4                UART1_WriteFreeBufferCountGet
 .text.UART1_InterruptHandler
                0x26f098b8      0x24c build/sam_a5d27_som1_winc3400/production/_ext/1631734212/plib_uart1.o
                0x26f098b8                UART1_InterruptHandler
 .text.XDMAC0_InterruptHandler
                0x26f09b04       0xc0 build/sam_a5d27_som1_winc3400/production/_ext/958701621/plib_xdmac0.o
                0x26f09b04                XDMAC0_InterruptHandler
 .text.XDMAC0_Initialize
                0x26f09bc4       0x68 build/sam_a5d27_som1_winc3400/production/_ext/958701621/plib_xdmac0.o
                0x26f09bc4                XDMAC0_Initialize
 .text.XDMAC0_ChannelCallbackRegister
                0x26f09c2c       0x18 build/sam_a5d27_som1_winc3400/production/_ext/958701621/plib_xdmac0.o
                0x26f09c2c                XDMAC0_ChannelCallbackRegister
 .text.XDMAC0_ChannelTransfer
                0x26f09c44       0x9c build/sam_a5d27_som1_winc3400/production/_ext/958701621/plib_xdmac0.o
                0x26f09c44                XDMAC0_ChannelTransfer
 .text.XDMAC0_ChannelSettingsGet
                0x26f09ce0       0x14 build/sam_a5d27_som1_winc3400/production/_ext/958701621/plib_xdmac0.o
                0x26f09ce0                XDMAC0_ChannelSettingsGet
 .text.XDMAC0_ChannelSettingsSet
                0x26f09cf4       0x24 build/sam_a5d27_som1_winc3400/production/_ext/958701621/plib_xdmac0.o
                0x26f09cf4                XDMAC0_ChannelSettingsSet
 .text.Console_UART_Initialize
                0x26f09d18       0x2c build/sam_a5d27_som1_winc3400/production/_ext/1006343247/sys_console_uart.o
                0x26f09d18                Console_UART_Initialize
 .text.Console_UART_Read
                0x26f09d44       0x60 build/sam_a5d27_som1_winc3400/production/_ext/1006343247/sys_console_uart.o
                0x26f09d44                Console_UART_Read
 .text.Console_UART_Flush
                0x26f09da4        0x8 build/sam_a5d27_som1_winc3400/production/_ext/1006343247/sys_console_uart.o
                0x26f09da4                Console_UART_Flush
 .text.Console_UART_Status
                0x26f09dac       0x24 build/sam_a5d27_som1_winc3400/production/_ext/1006343247/sys_console_uart.o
                0x26f09dac                Console_UART_Status
 .text.Console_UART_Tasks
                0x26f09dd0        0x4 build/sam_a5d27_som1_winc3400/production/_ext/1006343247/sys_console_uart.o
                0x26f09dd0                Console_UART_Tasks
 .text.Console_UART_WriteCountGet
                0x26f09dd4       0x5c build/sam_a5d27_som1_winc3400/production/_ext/1006343247/sys_console_uart.o
                0x26f09dd4                Console_UART_WriteCountGet
 .text.Console_UART_WriteFreeBufferCountGet
                0x26f09e30       0x5c build/sam_a5d27_som1_winc3400/production/_ext/1006343247/sys_console_uart.o
                0x26f09e30                Console_UART_WriteFreeBufferCountGet
 .text.Console_UART_Write
                0x26f09e8c       0x60 build/sam_a5d27_som1_winc3400/production/_ext/1006343247/sys_console_uart.o
                0x26f09e8c                Console_UART_Write
 .text.Console_UART_ReadFreeBufferCountGet
                0x26f09eec       0x5c build/sam_a5d27_som1_winc3400/production/_ext/1006343247/sys_console_uart.o
                0x26f09eec                Console_UART_ReadFreeBufferCountGet
 .text.Console_UART_ReadCountGet
                0x26f09f48       0x5c build/sam_a5d27_som1_winc3400/production/_ext/1006343247/sys_console_uart.o
                0x26f09f48                Console_UART_ReadCountGet
 .text.SYS_CONSOLE_Initialize
                0x26f09fa4       0xa4 build/sam_a5d27_som1_winc3400/production/_ext/1006343247/sys_console.o
                0x26f09fa4                SYS_CONSOLE_Initialize
 .text.SYS_CONSOLE_HandleGet
                0x26f0a048       0x10 build/sam_a5d27_som1_winc3400/production/_ext/1006343247/sys_console.o
                0x26f0a048                SYS_CONSOLE_HandleGet
 .text.SYS_CONSOLE_Print
                0x26f0a058       0xe0 build/sam_a5d27_som1_winc3400/production/_ext/1006343247/sys_console.o
                0x26f0a058                SYS_CONSOLE_Print
 .text.SYS_CONSOLE_Message
                0x26f0a138       0x60 build/sam_a5d27_som1_winc3400/production/_ext/1006343247/sys_console.o
                0x26f0a138                SYS_CONSOLE_Message
 .text.SYS_DEBUG_Initialize
                0x26f0a198       0x30 build/sam_a5d27_som1_winc3400/production/_ext/100066323/sys_debug.o
                0x26f0a198                SYS_DEBUG_Initialize
 .text.SYS_DEBUG_ConsoleInstanceGet
                0x26f0a1c8       0x10 build/sam_a5d27_som1_winc3400/production/_ext/100066323/sys_debug.o
                0x26f0a1c8                SYS_DEBUG_ConsoleInstanceGet
 .text.SYS_DEBUG_ErrorLevelGet
                0x26f0a1d8       0x10 build/sam_a5d27_som1_winc3400/production/_ext/100066323/sys_debug.o
                0x26f0a1d8                SYS_DEBUG_ErrorLevelGet
 .text.SYS_DMA_AddressingModeSetup
                0x26f0a1e8       0x30 build/sam_a5d27_som1_winc3400/production/_ext/775042947/sys_dma.o
                0x26f0a1e8                SYS_DMA_AddressingModeSetup
 .text.SYS_DMA_DataWidthSetup
                0x26f0a218       0x28 build/sam_a5d27_som1_winc3400/production/_ext/775042947/sys_dma.o
                0x26f0a218                SYS_DMA_DataWidthSetup
 .text.SYS_INT_Disable
                0x26f0a240        0xc build/sam_a5d27_som1_winc3400/production/_ext/937565385/sys_int.o
                0x26f0a240                SYS_INT_Disable
 .text.SYS_INT_Restore
                0x26f0a24c        0xc build/sam_a5d27_som1_winc3400/production/_ext/937565385/sys_int.o
                0x26f0a24c                SYS_INT_Restore
 .text.SYS_INT_SourceIsEnabled
                0x26f0a258       0x2c build/sam_a5d27_som1_winc3400/production/_ext/937565385/sys_int.o
                0x26f0a258                SYS_INT_SourceIsEnabled
 .text.SYS_INT_SourceEnable
                0x26f0a284       0x2c build/sam_a5d27_som1_winc3400/production/_ext/937565385/sys_int.o
                0x26f0a284                SYS_INT_SourceEnable
 .text.SYS_INT_SourceDisable
                0x26f0a2b0       0x40 build/sam_a5d27_som1_winc3400/production/_ext/937565385/sys_int.o
                0x26f0a2b0                SYS_INT_SourceDisable
 .text.SYS_INT_SourceRestore
                0x26f0a2f0       0x34 build/sam_a5d27_som1_winc3400/production/_ext/937565385/sys_int.o
                0x26f0a2f0                SYS_INT_SourceRestore
 .text.SYS_TIME_GetTimerObject
                0x26f0a324       0x74 build/sam_a5d27_som1_winc3400/production/_ext/695691069/sys_time.o
 .text.SYS_TIME_HwTimerCompareUpdate
                0x26f0a398      0x130 build/sam_a5d27_som1_winc3400/production/_ext/695691069/sys_time.o
 .text.SYS_TIME_RemoveFromList
                0x26f0a4c8       0xbc build/sam_a5d27_som1_winc3400/production/_ext/695691069/sys_time.o
 .text.SYS_TIME_AddToList
                0x26f0a584       0xec build/sam_a5d27_som1_winc3400/production/_ext/695691069/sys_time.o
 .text.SYS_TIME_UpdateTimerList
                0x26f0a670       0x70 build/sam_a5d27_som1_winc3400/production/_ext/695691069/sys_time.o
 .text.SYS_TIME_ResourceLock
                0x26f0a6e0       0x5c build/sam_a5d27_som1_winc3400/production/_ext/695691069/sys_time.o
 .text.SYS_TIME_ResourceUnlock
                0x26f0a73c       0x2c build/sam_a5d27_som1_winc3400/production/_ext/695691069/sys_time.o
 .text.SYS_TIME_TimerObjectCreate
                0x26f0a768      0x12c build/sam_a5d27_som1_winc3400/production/_ext/695691069/sys_time.o
 .text.SYS_TIME_TimerAdd
                0x26f0a894       0x7c build/sam_a5d27_som1_winc3400/production/_ext/695691069/sys_time.o
 .text.SYS_TIME_Initialize
                0x26f0a910      0x110 build/sam_a5d27_som1_winc3400/production/_ext/695691069/sys_time.o
                0x26f0a910                SYS_TIME_Initialize
 .text.SYS_TIME_TimerDestroy
                0x26f0aa20       0x74 build/sam_a5d27_som1_winc3400/production/_ext/695691069/sys_time.o
                0x26f0aa20                SYS_TIME_TimerDestroy
 .text.SYS_TIME_PLIBCallback
                0x26f0aa94      0x184 build/sam_a5d27_som1_winc3400/production/_ext/695691069/sys_time.o
 .text.SYS_TIME_TimerStart
                0x26f0ac18       0xa4 build/sam_a5d27_som1_winc3400/production/_ext/695691069/sys_time.o
                0x26f0ac18                SYS_TIME_TimerStart
 .text.SYS_TIME_TimerPeriodHasExpired
                0x26f0acbc       0x48 build/sam_a5d27_som1_winc3400/production/_ext/695691069/sys_time.o
                0x26f0acbc                SYS_TIME_TimerPeriodHasExpired
 .text.SYS_TIME_DelayMS
                0x26f0ad04       0x84 build/sam_a5d27_som1_winc3400/production/_ext/695691069/sys_time.o
                0x26f0ad04                SYS_TIME_DelayMS
 .text.SYS_TIME_DelayIsComplete
                0x26f0ad88       0x28 build/sam_a5d27_som1_winc3400/production/_ext/695691069/sys_time.o
                0x26f0ad88                SYS_TIME_DelayIsComplete
 .text.SYS_Initialize
                0x26f0adb0       0xac build/sam_a5d27_som1_winc3400/production/_ext/1420774346/initialization.o
                0x26f0adb0                SYS_Initialize
 .text.undefined_instruction_irq_handler
                0x26f0ae5c        0x4 build/sam_a5d27_som1_winc3400/production/_ext/1420774346/fault_handlers.o
                0x26f0ae5c                undefined_instruction_irq_handler
 .text.software_interrupt_irq_handler
                0x26f0ae60        0x4 build/sam_a5d27_som1_winc3400/production/_ext/1420774346/fault_handlers.o
                0x26f0ae60                software_interrupt_irq_handler
 .text.data_abort_irq_handler
                0x26f0ae64        0x4 build/sam_a5d27_som1_winc3400/production/_ext/1420774346/fault_handlers.o
                0x26f0ae64                data_abort_irq_handler
 .text.prefetch_abort_irq_handler
                0x26f0ae68        0x4 build/sam_a5d27_som1_winc3400/production/_ext/1420774346/fault_handlers.o
                0x26f0ae68                prefetch_abort_irq_handler
 *fill*         0x26f0ae6c        0x4 
 .text          0x26f0ae70       0xa4 build/sam_a5d27_som1_winc3400/production/_ext/1420774346/cstartup.o
 .text.SYS_Tasks
                0x26f0af14       0x1c build/sam_a5d27_som1_winc3400/production/_ext/1420774346/tasks.o
                0x26f0af14                SYS_Tasks
 .text.DefaultInterruptHandlerForSpurious
                0x26f0af30       0x18 build/sam_a5d27_som1_winc3400/production/_ext/1420774346/interrupts.o
                0x26f0af30                DefaultInterruptHandlerForSpurious
 .text.APP_Initialize
                0x26f0af48       0x14 build/sam_a5d27_som1_winc3400/production/_ext/1360937237/app.o
                0x26f0af48                APP_Initialize
 .text.APP_Tasks
                0x26f0af5c       0xb8 build/sam_a5d27_som1_winc3400/production/_ext/1360937237/app.o
                0x26f0af5c                APP_Tasks
 .text.main     0x26f0b014       0x14 build/sam_a5d27_som1_winc3400/production/_ext/1360937237/main.o
                0x26f0b014                main
 .text.APP_ExampleConnectNotifyCallback
                0x26f0b028       0x6c build/sam_a5d27_som1_winc3400/production/_ext/1360937237/example.o
 .text.APP_ExampleDHCPAddressEventCallback
                0x26f0b094       0x48 build/sam_a5d27_som1_winc3400/production/_ext/1360937237/example.o
 .text.APP_ExampleInitialize
                0x26f0b0dc       0x5c build/sam_a5d27_som1_winc3400/production/_ext/1360937237/example.o
                0x26f0b0dc                APP_ExampleInitialize
 .text.APP_ExampleTasks
                0x26f0b138      0x2a8 build/sam_a5d27_som1_winc3400/production/_ext/1360937237/example.o
                0x26f0b138                APP_ExampleTasks
 .text          0x26f0b3e0       0xc8 c:/program files/microchip/xc32/v4.10/bin/bin/../../lib/gcc/pic32c/8.3.1/arm/v7-a+simd/hard\libgcc.a(_udivsi3.o)
                0x26f0b3e0                __aeabi_uidiv
                0x26f0b3e0                __udivsi3
                0x26f0b488                __aeabi_uidivmod
 .text          0x26f0b4a8       0xfc c:/program files/microchip/xc32/v4.10/bin/bin/../../lib/gcc/pic32c/8.3.1/arm/v7-a+simd/hard\libgcc.a(_divsi3.o)
                0x26f0b4a8                __divsi3
                0x26f0b4a8                __aeabi_idiv
                0x26f0b584                __aeabi_idivmod
 .text          0x26f0b5a4        0x4 c:/program files/microchip/xc32/v4.10/bin/bin/../../lib/gcc/pic32c/8.3.1/arm/v7-a+simd/hard\libgcc.a(_dvmd_tls.o)
                0x26f0b5a4                __aeabi_idiv0
                0x26f0b5a4                __aeabi_ldiv0
 .text          0x26f0b5a8       0x3c c:/program files/microchip/xc32/v4.10/bin/bin/../../lib/gcc/pic32c/8.3.1/arm/v7-a+simd/hard\libgcc.a(_aeabi_uldivmod.o)
                0x26f0b5a8                __aeabi_uldivmod
 .text          0x26f0b5e4      0x148 c:/program files/microchip/xc32/v4.10/bin/bin/../../lib/gcc/pic32c/8.3.1/arm/v7-a+simd/hard\libgcc.a(_udivmoddi4.o)
                0x26f0b5e4                __udivmoddi4
 .text.__dummy  0x26f0b72c        0x4 c:/program files/microchip/xc32/v4.10/bin/bin/../../lib/gcc/pic32c/8.3.1/../../../../pic32c/lib/arm/v7-a+simd/hard\libc-musl.a(__libc_start_main.o)
                0x26f0b72c                __init_stdio
                0x26f0b72c                __init_host
 .text.__libc_start_init
                0x26f0b730       0x88 c:/program files/microchip/xc32/v4.10/bin/bin/../../lib/gcc/pic32c/8.3.1/../../../../pic32c/lib/arm/v7-a+simd/hard\libc-musl.a(__libc_start_main.o)
                0x26f0b730                __libc_init_array
 .text.bin_index
                0x26f0b7b8       0x48 c:/program files/microchip/xc32/v4.10/bin/bin/../../lib/gcc/pic32c/8.3.1/../../../../pic32c/lib/arm/v7-a+simd/hard\libc-musl.a(malloc.o)
 .text.adjust_size
                0x26f0b800       0x60 c:/program files/microchip/xc32/v4.10/bin/bin/../../lib/gcc/pic32c/8.3.1/../../../../pic32c/lib/arm/v7-a+simd/hard\libc-musl.a(malloc.o)
 .text.lock_bin
                0x26f0b860       0x34 c:/program files/microchip/xc32/v4.10/bin/bin/../../lib/gcc/pic32c/8.3.1/../../../../pic32c/lib/arm/v7-a+simd/hard\libc-musl.a(malloc.o)
 .text.unbin    0x26f0b894       0x90 c:/program files/microchip/xc32/v4.10/bin/bin/../../lib/gcc/pic32c/8.3.1/../../../../pic32c/lib/arm/v7-a+simd/hard\libc-musl.a(malloc.o)
 .text.alloc_fwd
                0x26f0b924       0x4c c:/program files/microchip/xc32/v4.10/bin/bin/../../lib/gcc/pic32c/8.3.1/../../../../pic32c/lib/arm/v7-a+simd/hard\libc-musl.a(malloc.o)
 .text.alloc_rev
                0x26f0b970       0x50 c:/program files/microchip/xc32/v4.10/bin/bin/../../lib/gcc/pic32c/8.3.1/../../../../pic32c/lib/arm/v7-a+simd/hard\libc-musl.a(malloc.o)
 .text.free     0x26f0b9c0      0x16c c:/program files/microchip/xc32/v4.10/bin/bin/../../lib/gcc/pic32c/8.3.1/../../../../pic32c/lib/arm/v7-a+simd/hard\libc-musl.a(malloc.o)
                0x26f0b9c0                free
 .text.trim     0x26f0bb2c       0x40 c:/program files/microchip/xc32/v4.10/bin/bin/../../lib/gcc/pic32c/8.3.1/../../../../pic32c/lib/arm/v7-a+simd/hard\libc-musl.a(malloc.o)
 .text.malloc   0x26f0bb6c      0x284 c:/program files/microchip/xc32/v4.10/bin/bin/../../lib/gcc/pic32c/8.3.1/../../../../pic32c/lib/arm/v7-a+simd/hard\libc-musl.a(malloc.o)
                0x26f0bb6c                malloc
 .text.__expand_heap
                0x26f0bdf0       0x2c c:/program files/microchip/xc32/v4.10/bin/bin/../../lib/gcc/pic32c/8.3.1/../../../../pic32c/lib/arm/v7-a+simd/hard\libc-musl.a(expand_heap.o)
                0x26f0bdf0                __expand_heap
 .text.vsnprintf
                0x26f0be1c       0x98 c:/program files/microchip/xc32/v4.10/bin/bin/../../lib/gcc/pic32c/8.3.1/../../../../pic32c/lib/arm/v7-a+simd/hard\libc-musl.a(vsnprintf.o)
                0x26f0be1c                vsnprintf
 .text.memcmp   0x26f0beb4       0x4c c:/program files/microchip/xc32/v4.10/bin/bin/../../lib/gcc/pic32c/8.3.1/../../../../pic32c/lib/arm/v7-a+simd/hard\libc-musl.a(memcmp.o)
                0x26f0beb4                memcmp
 .text.memcpy   0x26f0bf00       0x1c c:/program files/microchip/xc32/v4.10/bin/bin/../../lib/gcc/pic32c/8.3.1/../../../../pic32c/lib/arm/v7-a+simd/hard\libc-musl.a(memcpy.o)
                0x26f0bf00                memcpy
 .text.memset   0x26f0bf1c       0x18 c:/program files/microchip/xc32/v4.10/bin/bin/../../lib/gcc/pic32c/8.3.1/../../../../pic32c/lib/arm/v7-a+simd/hard\libc-musl.a(memset.o)
                0x26f0bf1c                memset
 .text.strlen   0x26f0bf34       0x20 c:/program files/microchip/xc32/v4.10/bin/bin/../../lib/gcc/pic32c/8.3.1/../../../../pic32c/lib/arm/v7-a+simd/hard\libc-musl.a(strlen.o)
                0x26f0bf34                strlen
 .text.strchr   0x26f0bf54       0x20 c:/program files/microchip/xc32/v4.10/bin/bin/../../lib/gcc/pic32c/8.3.1/../../../../pic32c/lib/arm/v7-a+simd/hard\libc-musl.a(strchr.o)
                0x26f0bf54                strchr
 .text.__strchrnul
                0x26f0bf74       0xa8 c:/program files/microchip/xc32/v4.10/bin/bin/../../lib/gcc/pic32c/8.3.1/../../../../pic32c/lib/arm/v7-a+simd/hard\libc-musl.a(strchrnul.o)
                0x26f0bf74                strchrnul
                0x26f0bf74                __strchrnul
 .text.mktime   0x26f0c01c       0x90 c:/program files/microchip/xc32/v4.10/bin/bin/../../lib/gcc/pic32c/8.3.1/../../../../pic32c/lib/arm/v7-a+simd/hard\libc-musl.a(mktime.o)
                0x26f0c01c                mktime
 .text.vfprintf
                0x26f0c0ac       0x28 c:/program files/microchip/xc32/v4.10/bin/bin/../../lib/gcc/pic32c/8.3.1/../../../../pic32c/lib/arm/v7-a+simd/hard\libc-musl.a(vfprintf.o)
                0x26f0c0ac                vfprintf
 .text.__tm_to_secs
                0x26f0c0d4       0xb8 c:/program files/microchip/xc32/v4.10/bin/bin/../../lib/gcc/pic32c/8.3.1/../../../../pic32c/lib/arm/v7-a+simd/hard\libc-musl.a(__tm_to_secs.o)
                0x26f0c0d4                __tm_to_secs
 *fill*         0x26f0c18c        0x4 
 .text.__year_to_secs
                0x26f0c190      0x17c c:/program files/microchip/xc32/v4.10/bin/bin/../../lib/gcc/pic32c/8.3.1/../../../../pic32c/lib/arm/v7-a+simd/hard\libc-musl.a(__year_to_secs.o)
                0x26f0c190                __year_to_secs
 *fill*         0x26f0c30c        0x4 
 .text.__secs_to_tm
                0x26f0c310      0x288 c:/program files/microchip/xc32/v4.10/bin/bin/../../lib/gcc/pic32c/8.3.1/../../../../pic32c/lib/arm/v7-a+simd/hard\libc-musl.a(__secs_to_tm.o)
                0x26f0c310                __secs_to_tm
 .text.__string_out
                0x26f0c598       0x44 c:/program files/microchip/xc32/v4.10/bin/bin/../../lib/gcc/pic32c/8.3.1/../../../../pic32c/lib/arm/v7-a+simd/hard\libc-musl.a(__printf_core.o)
                0x26f0c598                __out
 .text.__pad    0x26f0c5dc       0xc0 c:/program files/microchip/xc32/v4.10/bin/bin/../../lib/gcc/pic32c/8.3.1/../../../../pic32c/lib/arm/v7-a+simd/hard\libc-musl.a(__printf_core.o)
                0x26f0c5dc                __pad
 .text.__fmt_state
                0x26f0c69c       0x74 c:/program files/microchip/xc32/v4.10/bin/bin/../../lib/gcc/pic32c/8.3.1/../../../../pic32c/lib/arm/v7-a+simd/hard\libc-musl.a(__printf_core.o)
                0x26f0c69c                __fmt_state
 .text.__printf_core
                0x26f0c710      0x51c c:/program files/microchip/xc32/v4.10/bin/bin/../../lib/gcc/pic32c/8.3.1/../../../../pic32c/lib/arm/v7-a+simd/hard\libc-musl.a(__printf_core.o)
                0x26f0c710                __printf_core
 .text.atoi     0x26f0cc2c       0x70 c:/program files/microchip/xc32/v4.10/bin/bin/../../lib/gcc/pic32c/8.3.1/../../../../pic32c/lib/arm/v7-a+simd/hard\libc-musl.a(atoi.o)
                0x26f0cc2c                atoi
 .text.__month_to_secs
                0x26f0cc9c       0x24 c:/program files/microchip/xc32/v4.10/bin/bin/../../lib/gcc/pic32c/8.3.1/../../../../pic32c/lib/arm/v7-a+simd/hard\libc-musl.a(__month_to_secs.o)
                0x26f0cc9c                __month_to_secs
 .text.tolower  0x26f0ccc0       0x10 c:/program files/microchip/xc32/v4.10/bin/bin/../../lib/gcc/pic32c/8.3.1/../../../../pic32c/lib/arm/v7-a+simd/hard\libc-musl.a(tolower.o)
                0x26f0ccc0                tolower
 .text.__fmt_a  0x26f0ccd0      0x57c c:/program files/microchip/xc32/v4.10/bin/bin/../../lib/gcc/pic32c/8.3.1/../../../../pic32c/lib/arm/v7-a+simd/hard\libc-musl.a(__fmt_a.o)
                0x26f0ccd0                __fmt_a_needed
                0x26f0ccd0                __fmt_a
 .text.__fmt_d  0x26f0d24c      0x118 c:/program files/microchip/xc32/v4.10/bin/bin/../../lib/gcc/pic32c/8.3.1/../../../../pic32c/lib/arm/v7-a+simd/hard\libc-musl.a(__fmt_d.o)
                0x26f0d24c                __fmt_d
                0x26f0d24c                __fmt_d_needed
 *fill*         0x26f0d364        0x4 
 .text.__fmt_fp
                0x26f0d368      0x580 c:/program files/microchip/xc32/v4.10/bin/bin/../../lib/gcc/pic32c/8.3.1/../../../../pic32c/lib/arm/v7-a+simd/hard\libc-musl.a(__fmt_fp.o)
                0x26f0d368                __fmt_f_needed
                0x26f0d368                __fmt_fp
 .text.__fmt_o  0x26f0d8e8       0xbc c:/program files/microchip/xc32/v4.10/bin/bin/../../lib/gcc/pic32c/8.3.1/../../../../pic32c/lib/arm/v7-a+simd/hard\libc-musl.a(__fmt_o.o)
                0x26f0d8e8                __fmt_o
                0x26f0d8e8                __fmt_o_needed
 .text.__fmt_s  0x26f0d9a4       0x88 c:/program files/microchip/xc32/v4.10/bin/bin/../../lib/gcc/pic32c/8.3.1/../../../../pic32c/lib/arm/v7-a+simd/hard\libc-musl.a(__fmt_s.o)
                0x26f0d9a4                __fmt_s
                0x26f0d9a4                __fmt_0_needed
                0x26f0d9a4                __fmt_s_needed
 .text.__cvt_u  0x26f0da2c       0xb8 c:/program files/microchip/xc32/v4.10/bin/bin/../../lib/gcc/pic32c/8.3.1/../../../../pic32c/lib/arm/v7-a+simd/hard\libc-musl.a(__fmt_u.o)
                0x26f0da2c                __cvt_u
 .text.__fmt_u  0x26f0dae4       0x94 c:/program files/microchip/xc32/v4.10/bin/bin/../../lib/gcc/pic32c/8.3.1/../../../../pic32c/lib/arm/v7-a+simd/hard\libc-musl.a(__fmt_u.o)
                0x26f0dae4                __fmt_u_needed
                0x26f0dae4                __fmt_u
 .text.__fmt_x  0x26f0db78      0x190 c:/program files/microchip/xc32/v4.10/bin/bin/../../lib/gcc/pic32c/8.3.1/../../../../pic32c/lib/arm/v7-a+simd/hard\libc-musl.a(__fmt_x.o)
                0x26f0db78                __fmt_x_needed
                0x26f0db78                __fmt_x
 .text.__pop_float
                0x26f0dd08       0x44 c:/program files/microchip/xc32/v4.10/bin/bin/../../lib/gcc/pic32c/8.3.1/../../../../pic32c/lib/arm/v7-a+simd/hard\libc-musl.a(__pop_float.o)
                0x26f0dd08                __pop_float_needed
                0x26f0dd08                __pop_float
 .text.__pop_int
                0x26f0dd4c      0x158 c:/program files/microchip/xc32/v4.10/bin/bin/../../lib/gcc/pic32c/8.3.1/../../../../pic32c/lib/arm/v7-a+simd/hard\libc-musl.a(__pop_int.o)
                0x26f0dd4c                __pop_int_needed
                0x26f0dd4c                __pop_int
 .text.__pop_ptr
                0x26f0dea4       0xec c:/program files/microchip/xc32/v4.10/bin/bin/../../lib/gcc/pic32c/8.3.1/../../../../pic32c/lib/arm/v7-a+simd/hard\libc-musl.a(__pop_ptr.o)
                0x26f0dea4                __pop_ptr
                0x26f0dea4                __pop_ptr_needed
 .text.strcpy   0x26f0df90       0x14 c:/program files/microchip/xc32/v4.10/bin/bin/../../lib/gcc/pic32c/8.3.1/../../../../pic32c/lib/arm/v7-a+simd/hard\libc-musl.a(strcpy.o)
                0x26f0df90                strcpy
 .text.toupper  0x26f0dfa4       0x10 c:/program files/microchip/xc32/v4.10/bin/bin/../../lib/gcc/pic32c/8.3.1/../../../../pic32c/lib/arm/v7-a+simd/hard\libc-musl.a(toupper.o)
                0x26f0dfa4                toupper
 .text.stpcpy   0x26f0dfb4       0x1c c:/program files/microchip/xc32/v4.10/bin/bin/../../lib/gcc/pic32c/8.3.1/../../../../pic32c/lib/arm/v7-a+simd/hard\libc-musl.a(stpcpy.o)
                0x26f0dfb4                __stpcpy
                0x26f0dfb4                stpcpy
 .text.floor    0x26f0dfd0       0xa8 c:/program files/microchip/xc32/v4.10/bin/bin/../../lib/gcc/pic32c/8.3.1/../../../../pic32c/lib/arm/v7-a+simd/hard\libm-musl.a(floor.o)
                0x26f0dfd0                floor
 .text.normalize
                0x26f0e078       0x7c c:/program files/microchip/xc32/v4.10/bin/bin/../../lib/gcc/pic32c/8.3.1/../../../../pic32c/lib/arm/v7-a+simd/hard\libm-musl.a(fma.o)
 *fill*         0x26f0e0f4        0x4 
 .text.fma      0x26f0e0f8      0x62c c:/program files/microchip/xc32/v4.10/bin/bin/../../lib/gcc/pic32c/8.3.1/../../../../pic32c/lib/arm/v7-a+simd/hard\libm-musl.a(fma.o)
                0x26f0e0f8                fma
 *fill*         0x26f0e724        0x4 
 .text.scalbn   0x26f0e728       0xac c:/program files/microchip/xc32/v4.10/bin/bin/../../lib/gcc/pic32c/8.3.1/../../../../pic32c/lib/arm/v7-a+simd/hard\libm-musl.a(scalbn.o)
                0x26f0e728                scalbn
 .text._sbrk    0x26f0e7d4       0x3c c:/program files/microchip/xc32/v4.10/bin/bin/../../lib/gcc/pic32c/8.3.1/../../../../pic32c/lib/arm/v7-a+simd/hard\libpic32c.a(sbrk.o)
                0x26f0e7d4                _sbrk
 .text          0x26f0e810      0x3c0 c:/program files/microchip/xc32/v4.10/bin/bin/../../lib/gcc/pic32c/8.3.1/arm/v7-a+simd/hard\libgcc.a(_arm_addsubdf3.o)
                0x26f0e810                __aeabi_drsub
                0x26f0e818                __aeabi_dsub
                0x26f0e818                __subdf3
                0x26f0e81c                __aeabi_dadd
                0x26f0e81c                __adddf3
                0x26f0eac8                __floatunsidf
                0x26f0eac8                __aeabi_ui2d
                0x26f0eaec                __floatsidf
                0x26f0eaec                __aeabi_i2d
                0x26f0eb14                __aeabi_f2d
                0x26f0eb14                __extendsfdf2
                0x26f0eb5c                __floatundidf
                0x26f0eb5c                __aeabi_ul2d
                0x26f0eb70                __floatdidf
                0x26f0eb70                __aeabi_l2d
 .text          0x26f0ebd0       0xd4 c:/program files/microchip/xc32/v4.10/bin/bin/../../lib/gcc/pic32c/8.3.1/arm/v7-a+simd/hard\libgcc.a(_aeabi_ldivmod.o)
                0x26f0ebd0                __aeabi_ldivmod
 *(.rodata .rodata* .gnu.linkonce.r.*)
 .rodata        0x26f0eca4      0x10c build/sam_a5d27_som1_winc3400/production/_ext/1279932671/drv_spi.o
 .rodata        0x26f0edb0       0x14 build/sam_a5d27_som1_winc3400/production/_ext/1846510740/wdrv_winc_spi.o
 .rodata        0x26f0edc4      0x664 build/sam_a5d27_som1_winc3400/production/_ext/1909873291/nmspi.o
 .rodata.crc7_syndrome_table
                0x26f0f428      0x100 build/sam_a5d27_som1_winc3400/production/_ext/1909873291/nmspi.o
 .rodata        0x26f0f528      0x1d8 build/sam_a5d27_som1_winc3400/production/_ext/1909873291/nmdrv.o
 .rodata        0x26f0f700       0x38 build/sam_a5d27_som1_winc3400/production/_ext/1909873291/m2m_ota.o
 .rodata        0x26f0f738      0x10c build/sam_a5d27_som1_winc3400/production/_ext/1909873291/m2m_ssl.o
 .rodata        0x26f0f844      0x450 build/sam_a5d27_som1_winc3400/production/_ext/1909873291/m2m_hif.o
 .rodata.gau16HifBlacklist
                0x26f0fc94       0x1c build/sam_a5d27_som1_winc3400/production/_ext/1909873291/m2m_hif.o
 .rodata        0x26f0fcb0      0x184 build/sam_a5d27_som1_winc3400/production/_ext/1909873291/nmasic.o
 .rodata        0x26f0fe34      0x27c build/sam_a5d27_som1_winc3400/production/_ext/1909873291/m2m_wifi.o
 .rodata        0x26f100b0      0x100 build/sam_a5d27_som1_winc3400/production/_ext/1483395904/socket.o
 .rodata        0x26f101b0       0x80 build/sam_a5d27_som1_winc3400/production/_ext/237603529/wdrv_winc.o
 .rodata.bleGapMDevReadyMsg.12450
                0x26f10230        0xc build/sam_a5d27_som1_winc3400/production/_ext/237603529/wdrv_winc.o
 .rodata.portNumCb
                0x26f1023c        0x8 build/sam_a5d27_som1_winc3400/production/_ext/883925144/plib_pio.o
 .rodata.sysConsoleUARTDevDesc
                0x26f10244       0x2c build/sam_a5d27_som1_winc3400/production/_ext/1006343247/sys_console_uart.o
                0x26f10244                sysConsoleUARTDevDesc
 .rodata.debugInit
                0x26f10270        0x4 build/sam_a5d27_som1_winc3400/production/_ext/1420774346/initialization.o
                0x26f10270                debugInit
 .rodata.drvSPI0InitData
                0x26f10274       0x30 build/sam_a5d27_som1_winc3400/production/_ext/1420774346/initialization.o
                0x26f10274                drvSPI0InitData
 .rodata.drvSPI0InterruptSources
                0x26f102a4       0x18 build/sam_a5d27_som1_winc3400/production/_ext/1420774346/initialization.o
                0x26f102a4                drvSPI0InterruptSources
 .rodata.drvSPI0PlibAPI
                0x26f102bc       0x10 build/sam_a5d27_som1_winc3400/production/_ext/1420774346/initialization.o
                0x26f102bc                drvSPI0PlibAPI
 .rodata.drvSPI0remapClockPhase
                0x26f102cc        0x8 build/sam_a5d27_som1_winc3400/production/_ext/1420774346/initialization.o
                0x26f102cc                drvSPI0remapClockPhase
 .rodata.drvSPI0remapClockPolarity
                0x26f102d4        0x8 build/sam_a5d27_som1_winc3400/production/_ext/1420774346/initialization.o
                0x26f102d4                drvSPI0remapClockPolarity
 .rodata.drvSPI0remapDataBits
                0x26f102dc       0x28 build/sam_a5d27_som1_winc3400/production/_ext/1420774346/initialization.o
                0x26f102dc                drvSPI0remapDataBits
 .rodata.sysConsole0Init
                0x26f10304        0xc build/sam_a5d27_som1_winc3400/production/_ext/1420774346/initialization.o
                0x26f10304                sysConsole0Init
 .rodata.sysConsole0UARTInitData
                0x26f10310        0x4 build/sam_a5d27_som1_winc3400/production/_ext/1420774346/initialization.o
                0x26f10310                sysConsole0UARTInitData
 .rodata.sysConsole0UARTPlibAPI
                0x26f10314       0x18 build/sam_a5d27_som1_winc3400/production/_ext/1420774346/initialization.o
                0x26f10314                sysConsole0UARTPlibAPI
 .rodata.sysTimeInitData
                0x26f1032c        0x8 build/sam_a5d27_som1_winc3400/production/_ext/1420774346/initialization.o
                0x26f1032c                sysTimeInitData
 .rodata.sysTimePlibAPI
                0x26f10334       0x1c build/sam_a5d27_som1_winc3400/production/_ext/1420774346/initialization.o
                0x26f10334                sysTimePlibAPI
 .rodata.wdrvWincInitData
                0x26f10350        0x8 build/sam_a5d27_som1_winc3400/production/_ext/1420774346/initialization.o
 .rodata        0x26f10358       0xfc build/sam_a5d27_som1_winc3400/production/_ext/1360937237/example.o
 .rodata        0x26f10454       0x5c c:/program files/microchip/xc32/v4.10/bin/bin/../../lib/gcc/pic32c/8.3.1/../../../../pic32c/lib/arm/v7-a+simd/hard\libc-musl.a(malloc.o)
 .rodata        0x26f104b0        0x4 c:/program files/microchip/xc32/v4.10/bin/bin/../../lib/gcc/pic32c/8.3.1/../../../../pic32c/lib/arm/v7-a+simd/hard\libc-musl.a(mktime.o)
 .rodata        0x26f104b4        0xc c:/program files/microchip/xc32/v4.10/bin/bin/../../lib/gcc/pic32c/8.3.1/../../../../pic32c/lib/arm/v7-a+simd/hard\libc-musl.a(__secs_to_tm.o)
 .rodata        0x26f104c0       0x1c c:/program files/microchip/xc32/v4.10/bin/bin/../../lib/gcc/pic32c/8.3.1/../../../../pic32c/lib/arm/v7-a+simd/hard\libc-musl.a(__printf_core.o)
 .rodata        0x26f104dc       0x30 c:/program files/microchip/xc32/v4.10/bin/bin/../../lib/gcc/pic32c/8.3.1/../../../../pic32c/lib/arm/v7-a+simd/hard\libc-musl.a(__month_to_secs.o)
 .rodata        0x26f1050c       0x10 c:/program files/microchip/xc32/v4.10/bin/bin/../../lib/gcc/pic32c/8.3.1/../../../../pic32c/lib/arm/v7-a+simd/hard\libc-musl.a(__fmt_a.o)
 .rodata        0x26f1051c       0x10 c:/program files/microchip/xc32/v4.10/bin/bin/../../lib/gcc/pic32c/8.3.1/../../../../pic32c/lib/arm/v7-a+simd/hard\libc-musl.a(__fmt_fp.o)
 .rodata        0x26f1052c        0x7 c:/program files/microchip/xc32/v4.10/bin/bin/../../lib/gcc/pic32c/8.3.1/../../../../pic32c/lib/arm/v7-a+simd/hard\libc-musl.a(__fmt_s.o)
 *(.ARM.extab* .gnu.linkonce.armextab.*)
                0x26f10534                . = ALIGN (0x4)
 *fill*         0x26f10533        0x1 
 *(.init)
 .init          0x26f10534        0xc c:/program files/microchip/xc32/v4.10/bin/bin/../../lib/gcc/pic32c/8.3.1/arm/v7-a+simd/hard/crti.o
                0x26f10534                _init
 .init          0x26f10540        0xc c:/program files/microchip/xc32/v4.10/bin/bin/../../lib/gcc/pic32c/8.3.1/arm/v7-a+simd/hard/crtn.o
                0x26f1054c                . = ALIGN (0x4)
                0x26f1054c                __preinit_array_start = .
 *(.preinit_array)
                0x26f1054c                __preinit_array_end = .
                0x26f1054c                . = ALIGN (0x4)
                0x26f1054c                __init_array_start = .
 *(SORT_BY_NAME(.init_array.*))
 *(.init_array)
 .init_array    0x26f1054c        0x4 c:/program files/microchip/xc32/v4.10/bin/bin/../../lib/gcc/pic32c/8.3.1/arm/v7-a+simd/hard/crtbegin.o
                0x26f10550                __init_array_end = .
                0x26f10550                . = ALIGN (0x4)
 *crtbegin.o(.ctors)
 *(EXCLUDE_FILE(*crtend.o) .ctors)
 *(SORT_BY_NAME(.ctors.*))
 *crtend.o(.ctors)
                0x26f10550                . = ALIGN (0x4)
 *(.fini)
 .fini          0x26f10550        0xc c:/program files/microchip/xc32/v4.10/bin/bin/../../lib/gcc/pic32c/8.3.1/arm/v7-a+simd/hard/crti.o
                0x26f10550                _fini
 .fini          0x26f1055c        0xc c:/program files/microchip/xc32/v4.10/bin/bin/../../lib/gcc/pic32c/8.3.1/arm/v7-a+simd/hard/crtn.o
                0x26f10568                . = ALIGN (0x4)
                0x26f10568                __fini_array_start = .
 *(.fini_array)
 .fini_array    0x26f10568        0x4 c:/program files/microchip/xc32/v4.10/bin/bin/../../lib/gcc/pic32c/8.3.1/arm/v7-a+simd/hard/crtbegin.o
 *(SORT_BY_NAME(.fini_array.*))
                0x26f1056c                __fini_array_end = .
 *crtbegin.o(.dtors)
 *(EXCLUDE_FILE(*crtend.o) .dtors)
 *(SORT_BY_NAME(.dtors.*))
 *crtend.o(.dtors)
 *(.dinit*)
                0x26f1056c                . = ALIGN (0x4)

.data           0x26f1056c       0x78
 *(.data .data.*)
 .data.genuStatus
                0x26f1056c        0x1 build/sam_a5d27_som1_winc3400/production/_ext/1909873291/m2m_ssl.o
 *fill*         0x26f1056d        0x3 
 .data.egstrNmBusCapabilities
                0x26f10570        0x2 build/sam_a5d27_som1_winc3400/production/_ext/1909873291/nmbus.o
                0x26f10570                egstrNmBusCapabilities
 *fill*         0x26f10572        0x2 
 .data.gu321xTlsHsFlags
                0x26f10574        0x4 build/sam_a5d27_som1_winc3400/production/_ext/1909873291/m2m_wifi.o
 .data.gSysTimeTokenCount
                0x26f10578        0x2 build/sam_a5d27_som1_winc3400/production/_ext/695691069/sys_time.o
 *fill*         0x26f1057a        0x2 
 .data.irqData  0x26f1057c       0x64 build/sam_a5d27_som1_winc3400/production/_ext/1420774346/interrupts.o
                0x26f1057c                irqData
 .data.irqDataEntryCount
                0x26f105e0        0x4 build/sam_a5d27_som1_winc3400/production/_ext/1420774346/interrupts.o
                0x26f105e0                irqDataEntryCount
                0x26f105e4                . = ALIGN (0x4)
                0x26f105e4                _efixed = .
                [!provide]                PROVIDE (__exidx_start = .)

.ARM.exidx      0x26f105e4        0x8
 *(.ARM.exidx* .gnu.linkonce.armexidx.*)
 .ARM.exidx     0x26f105e4        0x8 c:/program files/microchip/xc32/v4.10/bin/bin/../../lib/gcc/pic32c/8.3.1/arm/v7-a+simd/hard\libgcc.a(_udivmoddi4.o)
                [!provide]                PROVIDE (__exidx_end = .)
                0x26f105ec                . = ALIGN (0x4)
                0x26f105ec                _etext = .

.relocate       0x00200000       0x3c load address 0x26f105ec
                0x00200000                . = ALIGN (0x4)
                0x00200000                _srelocate = .
 *(.vectors .vectors.*)
 .vectors       0x00200000       0x3c build/sam_a5d27_som1_winc3400/production/_ext/1420774346/cstartup.o
 *(.ramfunc)
                0x0020003c                . = ALIGN (0x4)
                0x0020003c                _erelocate = .

.region_cache_aligned_const
                0x26f10628       0x18
                0x26f10640                . = ALIGN (0x20)
 *fill*         0x26f10628       0x18 
 *(.region_cache_aligned_const .region_cache_aligned_const.*)
                0x26f10640                . = ALIGN (0x20)

.region_sram    0x0020003c        0x0
                0x0020003c                . = ALIGN (0x4)
 *(.region_sram .region_sram.*)

.region_ram     0x26f10640        0x0
                0x26f10640                . = ALIGN (0x4)
 *(.region_ram .region_ram.*)

.region_nocache
                0x20000000        0x0
                0x20000000                . = ALIGN (0x4)
 *(.region_nocache .region_nocache.*)

.bss            0x26f14000     0x8e08
                0x26f14000                . = ALIGN (0x4)
                0x26f14000                _szero = .
 *(.bss .bss.*)
 .bss           0x26f14000       0x1c c:/program files/microchip/xc32/v4.10/bin/bin/../../lib/gcc/pic32c/8.3.1/arm/v7-a+simd/hard/crtbegin.o
 .bss.gDrvSPIObj
                0x26f1401c       0x70 build/sam_a5d27_som1_winc3400/production/_ext/1279932671/drv_spi.o
 *fill*         0x26f1408c       0x14 
 .bss.txDummyData
                0x26f140a0       0x20 build/sam_a5d27_som1_winc3400/production/_ext/1279932671/drv_spi.o
 .bss.dummy.11541
                0x26f140c0        0x1 build/sam_a5d27_som1_winc3400/production/_ext/1846510740/wdrv_winc_spi.o
 *fill*         0x26f140c1        0x3 
 .bss.spiDcpt   0x26f140c4       0x14 build/sam_a5d27_som1_winc3400/production/_ext/1846510740/wdrv_winc_spi.o
 .bss.gu8Crc_off
                0x26f140d8        0x1 build/sam_a5d27_som1_winc3400/production/_ext/1909873291/nmspi.o
 .bss.s_spiLock
                0x26f140d9        0x1 build/sam_a5d27_som1_winc3400/production/_ext/1909873291/nmspi.o
 .bss.genuNmState
                0x26f140da        0x1 build/sam_a5d27_som1_winc3400/production/_ext/1909873291/nmdrv.o
 *fill*         0x26f140db        0x1 
 .bss.gpfOtaUpdateCb
                0x26f140dc        0x4 build/sam_a5d27_som1_winc3400/production/_ext/1909873291/m2m_ota.o
 .bss.gpfAppSSLCb
                0x26f140e0        0x4 build/sam_a5d27_som1_winc3400/production/_ext/1909873291/m2m_ssl.o
 .bss.gu32HIFAddr
                0x26f140e4        0x4 build/sam_a5d27_som1_winc3400/production/_ext/1909873291/m2m_ssl.o
 .bss.gstrHifCxt
                0x26f140e8       0x24 build/sam_a5d27_som1_winc3400/production/_ext/1909873291/m2m_hif.o
                0x26f140e8                gstrHifCxt
 .bss.gu8HifBlOffset
                0x26f1410c        0x1 build/sam_a5d27_som1_winc3400/production/_ext/1909873291/m2m_hif.o
 .bss.hifSemaphore
                0x26f1410d        0x1 build/sam_a5d27_som1_winc3400/production/_ext/1909873291/m2m_hif.o
 *fill*         0x26f1410e        0x2 
 .bss.chipid.11182
                0x26f14110        0x4 build/sam_a5d27_som1_winc3400/production/_ext/1909873291/nmasic.o
 .bss.gau81xRootSha1
                0x26f14114       0x14 build/sam_a5d27_som1_winc3400/production/_ext/1909873291/m2m_wifi.o
 .bss.gau8ethRcvBuf
                0x26f14128        0x4 build/sam_a5d27_som1_winc3400/production/_ext/1909873291/m2m_wifi.o
 .bss.gpfAppEthCb
                0x26f1412c        0x4 build/sam_a5d27_som1_winc3400/production/_ext/1909873291/m2m_wifi.o
 .bss.gpfAppWifiCb
                0x26f14130        0x4 build/sam_a5d27_som1_winc3400/production/_ext/1909873291/m2m_wifi.o
 .bss.gu16ethRcvBufSize
                0x26f14134        0x2 build/sam_a5d27_som1_winc3400/production/_ext/1909873291/m2m_wifi.o
 .bss.gu81xFlags
                0x26f14136        0x1 build/sam_a5d27_som1_winc3400/production/_ext/1909873291/m2m_wifi.o
 .bss.gu8ChNum  0x26f14137        0x1 build/sam_a5d27_som1_winc3400/production/_ext/1909873291/m2m_wifi.o
 .bss.gastrSockets
                0x26f14138       0xc0 build/sam_a5d27_som1_winc3400/production/_ext/1483395904/socket.o
                0x26f14138                gastrSockets
 .bss.gbSocketInit
                0x26f141f8        0x1 build/sam_a5d27_som1_winc3400/production/_ext/1483395904/socket.o
                0x26f141f8                gbSocketInit
 *fill*         0x26f141f9        0x3 
 .bss.gfpPingCb
                0x26f141fc        0x4 build/sam_a5d27_som1_winc3400/production/_ext/1483395904/socket.o
 .bss.gpfAppResolveCb
                0x26f14200        0x4 build/sam_a5d27_som1_winc3400/production/_ext/1483395904/socket.o
                0x26f14200                gpfAppResolveCb
 .bss.gpfAppSocketCb
                0x26f14204        0x4 build/sam_a5d27_som1_winc3400/production/_ext/1483395904/socket.o
                0x26f14204                gpfAppSocketCb
 .bss.gu16SessionID
                0x26f14208        0x2 build/sam_a5d27_som1_winc3400/production/_ext/1483395904/socket.o
                0x26f14208                gu16SessionID
 *fill*         0x26f1420a        0x2 
 .bss.gu32PingId
                0x26f1420c        0x4 build/sam_a5d27_som1_winc3400/production/_ext/1483395904/socket.o
 .bss.wincCtrlDescriptor
                0x26f14210       0xdc build/sam_a5d27_som1_winc3400/production/_ext/237603529/wdrv_winc.o
 .bss.wincDescriptor
                0x26f142ec       0x10 build/sam_a5d27_som1_winc3400/production/_ext/237603529/wdrv_winc.o
 .bss.flexcom4SpiObj
                0x26f142fc       0x2c build/sam_a5d27_som1_winc3400/production/_ext/1895127654/plib_flexcom4_spi_master.o
                0x26f142fc                flexcom4SpiObj
 .bss.isLastByteTransferInProgress.8334
                0x26f14328        0x1 build/sam_a5d27_som1_winc3400/production/_ext/1895127654/plib_flexcom4_spi_master.o
 *fill*         0x26f14329     0x3cd7 
 .bss.tlb       0x26f18000     0x4000 build/sam_a5d27_som1_winc3400/production/_ext/883927897/plib_mmu.o
 .bss.portPinCbObj
                0x26f1c000        0xc build/sam_a5d27_som1_winc3400/production/_ext/883925144/plib_pio.o
 .bss.TC0_CH0_CallbackObj
                0x26f1c00c        0x8 build/sam_a5d27_som1_winc3400/production/_ext/941317725/plib_tc0.o
 .bss.UART1_ReadBuffer
                0x26f1c014       0x80 build/sam_a5d27_som1_winc3400/production/_ext/1631734212/plib_uart1.o
 .bss.UART1_WriteBuffer
                0x26f1c094      0x800 build/sam_a5d27_som1_winc3400/production/_ext/1631734212/plib_uart1.o
 .bss.uart1Obj  0x26f1c894       0x38 build/sam_a5d27_som1_winc3400/production/_ext/1631734212/plib_uart1.o
                0x26f1c894                uart1Obj
 .bss.xdmacChannelObj
                0x26f1c8cc       0x20 build/sam_a5d27_som1_winc3400/production/_ext/958701621/plib_xdmac0.o
                0x26f1c8cc                xdmacChannelObj
 .bss.gConsoleUartData
                0x26f1c8ec       0x10 build/sam_a5d27_som1_winc3400/production/_ext/1006343247/sys_console_uart.o
 .bss.consoleDeviceInstance
                0x26f1c8fc        0xc build/sam_a5d27_som1_winc3400/production/_ext/1006343247/sys_console.o
 .bss.consolePrintBuffer
                0x26f1c908       0xc8 build/sam_a5d27_som1_winc3400/production/_ext/1006343247/sys_console.o
 .bss.consolePrintBufferMutex
                0x26f1c9d0        0x1 build/sam_a5d27_som1_winc3400/production/_ext/1006343247/sys_console.o
 .bss.isConsoleMutexCreated
                0x26f1c9d1        0x1 build/sam_a5d27_som1_winc3400/production/_ext/1006343247/sys_console.o
 .bss.gblErrLvl
                0x26f1c9d2        0x1 build/sam_a5d27_som1_winc3400/production/_ext/100066323/sys_debug.o
                0x26f1c9d2                gblErrLvl
 *fill*         0x26f1c9d3        0x1 
 .bss.sysDebugInstance
                0x26f1c9d4        0x4 build/sam_a5d27_som1_winc3400/production/_ext/100066323/sys_debug.o
 .bss.gSystemCounterObj
                0x26f1c9d8       0x40 build/sam_a5d27_som1_winc3400/production/_ext/695691069/sys_time.o
 .bss.timers    0x26f1ca18       0xa0 build/sam_a5d27_som1_winc3400/production/_ext/695691069/sys_time.o
 .bss.drvSPI0ClientObjPool
                0x26f1cab8       0x28 build/sam_a5d27_som1_winc3400/production/_ext/1420774346/initialization.o
 .bss.drvSPI0TransferObjPool
                0x26f1cae0       0x90 build/sam_a5d27_som1_winc3400/production/_ext/1420774346/initialization.o
 .bss.sysObj    0x26f1cb70       0x14 build/sam_a5d27_som1_winc3400/production/_ext/1420774346/initialization.o
                0x26f1cb70                sysObj
 .bss.wdrvWincSpiInitData
                0x26f1cb84        0x2 build/sam_a5d27_som1_winc3400/production/_ext/1420774346/initialization.o
 *fill*         0x26f1cb86        0x2 
 .bss.spuriousEventCount
                0x26f1cb88        0x4 build/sam_a5d27_som1_winc3400/production/_ext/1420774346/interrupts.o
                0x26f1cb88                spuriousEventCount
 .bss.appData   0x26f1cb8c        0x8 build/sam_a5d27_som1_winc3400/production/_ext/1360937237/app.o
                0x26f1cb8c                appData
 .bss.wdrvHandle
                0x26f1cb94        0x4 build/sam_a5d27_som1_winc3400/production/_ext/1360937237/app.o
 .bss.foundBSS  0x26f1cb98        0x1 build/sam_a5d27_som1_winc3400/production/_ext/1360937237/example.o
 .bss.state     0x26f1cb99        0x1 build/sam_a5d27_som1_winc3400/production/_ext/1360937237/example.o
 *fill*         0x26f1cb9a        0x2 
 .bss           0x26f1cb9c       0x50 c:/program files/microchip/xc32/v4.10/bin/bin/../../lib/gcc/pic32c/8.3.1/../../../../pic32c/lib/arm/v7-a+simd/hard\libc-musl.a(libc.o)
                0x26f1cb9c                __progname_full
                0x26f1cb9c                program_invocation_name
                0x26f1cba0                program_invocation_short_name
                0x26f1cba0                __progname
                0x26f1cba4                __sysinfo
                0x26f1cba8                __hwcap
                0x26f1cbac                __libc
 *fill*         0x26f1cbec        0x4 
 .bss           0x26f1cbf0      0x20c c:/program files/microchip/xc32/v4.10/bin/bin/../../lib/gcc/pic32c/8.3.1/../../../../pic32c/lib/arm/v7-a+simd/hard\libc-musl.a(malloc.o)
 .bss           0x26f1cdfc        0x4 c:/program files/microchip/xc32/v4.10/bin/bin/../../lib/gcc/pic32c/8.3.1/../../../../pic32c/lib/arm/v7-a+simd/hard\libc-musl.a(__environ.o)
                0x26f1cdfc                __environ
                0x26f1cdfc                environ
                0x26f1cdfc                ___environ
                0x26f1cdfc                _environ
 .bss           0x26f1ce00        0x4 c:/program files/microchip/xc32/v4.10/bin/bin/../../lib/gcc/pic32c/8.3.1/../../../../pic32c/lib/arm/v7-a+simd/hard\libc-musl.a(__errno_location.o)
                0x26f1ce00                __errno_val
 .bss           0x26f1ce04        0x4 c:/program files/microchip/xc32/v4.10/bin/bin/../../lib/gcc/pic32c/8.3.1/../../../../pic32c/lib/arm/v7-a+simd/hard\libpic32c.a(sbrk.o)
 *(COMMON)
                0x26f1ce08                . = ALIGN (0x4)
                0x26f1ce08                _ezero = .

.region_cache_aligned
                0x26f1ce08       0x18
                0x26f1ce20                . = ALIGN (0x20)
 *fill*         0x26f1ce08       0x18 
 *(.region_cache_aligned .region_cache_aligned.*)
                0x26f1ce20                . = ALIGN (0x20)

.stacks         0x26f1ce20     0x2140
                0x26f1ce80                . = (. + IRQ_STACK_SIZE)
 *fill*         0x26f1ce20       0x60 
                0x26f1ce80                . = ALIGN (0x8)
                0x26f1ce80                _irqstack = .
                0x26f1cee0                . = (. + FIQ_STACK_SIZE)
 *fill*         0x26f1ce80       0x60 
                0x26f1cee0                . = ALIGN (0x8)
                0x26f1cee0                _fiqstack = .
                0x26f1cf20                . = (. + ABT_STACK_SIZE)
 *fill*         0x26f1cee0       0x40 
                0x26f1cf20                . = ALIGN (0x8)
                0x26f1cf20                _abtstack = .
                0x26f1cf60                . = (. + UND_STACK_SIZE)
 *fill*         0x26f1cf20       0x40 
                0x26f1cf60                . = ALIGN (0x8)
                0x26f1cf60                _undstack = .
                0x26f1df60                . = (. + SVC_STACK_SIZE)
 *fill*         0x26f1cf60     0x1000 
                0x26f1df60                . = ALIGN (0x8)
                0x26f1df60                _svcstack = .
                0x26f1ef60                . = (. + C_STACK_SIZE)
 *fill*         0x26f1df60     0x1000 
                0x26f1ef60                . = ALIGN (0x8)
                0x26f1ef60                _cstack = .
                0x26f1ef60                _end = .
                0x26f1ef60                _ramcode_lma = _end

.ramcode        0x0020003c        0x0 load address 0x26f1ef60
                0x0020003c                _sramcode = .
 *(.ramcode_section .ramcode_section.*)
                0x0020003c                _eramcode = .
                0x26f1ef60                _ramdata_lma = ((_end + _eramcode) - _sramcode)

.ramdata        0x0020003c        0x0 load address 0x26f1ef60
                0x0020003c                _sramdata = .
 *(.ramdata_section .ramdata_section.*)
                0x0020003c                _eramdata = .
                0x00000200                _min_heap_size = 0x200
START GROUP
LOAD c:/program files/microchip/xc32/v4.10/bin/bin/../../lib/gcc/pic32c/8.3.1/../../../../pic32c/lib/arm/v7-a+simd/hard\libpic32c.a
LOAD c:/program files/microchip/xc32/v4.10/bin/bin/../../lib/gcc/pic32c/8.3.1/arm/v7-a+simd/hard\libgcc.a
LOAD c:/program files/microchip/xc32/v4.10/bin/bin/../../lib/gcc/pic32c/8.3.1/../../../../pic32c/lib/arm/v7-a+simd/hard\libm-musl.a
LOAD c:/program files/microchip/xc32/v4.10/bin/bin/../../lib/gcc/pic32c/8.3.1/../../../../pic32c/lib/arm/v7-a+simd/hard\libc-musl.a
LOAD c:/program files/microchip/xc32/v4.10/bin/bin/../../lib/gcc/pic32c/8.3.1/../../../../pic32c/lib/arm/v7-a+simd/hard\libm-musl.a
END GROUP
LOAD c:/program files/microchip/xc32/v4.10/bin/bin/../../lib/gcc/pic32c/8.3.1/arm/v7-a+simd/hard/crtend.o
LOAD c:/program files/microchip/xc32/v4.10/bin/bin/../../lib/gcc/pic32c/8.3.1/arm/v7-a+simd/hard/crtn.o
OUTPUT(dist/sam_a5d27_som1_winc3400/production/sam_a5d27_som1_winc3400.X.production.elf elf32-littlearm)
LOAD stack

.ARM.attributes
                0x00000000       0x37
 .ARM.attributes
                0x00000000       0x1f c:/program files/microchip/xc32/v4.10/bin/bin/../../lib/gcc/pic32c/8.3.1/arm/v7-a+simd/hard/crti.o
 .ARM.attributes
                0x0000001f       0x35 c:/program files/microchip/xc32/v4.10/bin/bin/../../lib/gcc/pic32c/8.3.1/arm/v7-a+simd/hard/crtbegin.o
 .ARM.attributes
                0x00000054       0x39 build/sam_a5d27_som1_winc3400/production/_ext/1279932671/drv_spi.o
 .ARM.attributes
                0x0000008d       0x39 build/sam_a5d27_som1_winc3400/production/_ext/1407615473/wdrv_winc_gpio.o
 .ARM.attributes
                0x000000c6       0x39 build/sam_a5d27_som1_winc3400/production/_ext/1407615473/wdrv_winc_eint.o
 .ARM.attributes
                0x000000ff       0x39 build/sam_a5d27_som1_winc3400/production/_ext/1846510740/wdrv_winc_spi.o
 .ARM.attributes
                0x00000138       0x39 build/sam_a5d27_som1_winc3400/production/_ext/1941162184/nm_common.o
 .ARM.attributes
                0x00000171       0x39 build/sam_a5d27_som1_winc3400/production/_ext/1909873291/nmspi.o
 .ARM.attributes
                0x000001aa       0x39 build/sam_a5d27_som1_winc3400/production/_ext/1909873291/nmdrv.o
 .ARM.attributes
                0x000001e3       0x39 build/sam_a5d27_som1_winc3400/production/_ext/1909873291/m2m_ota.o
 .ARM.attributes
                0x0000021c       0x39 build/sam_a5d27_som1_winc3400/production/_ext/1909873291/m2m_ssl.o
 .ARM.attributes
                0x00000255       0x39 build/sam_a5d27_som1_winc3400/production/_ext/1909873291/m2m_hif.o
 .ARM.attributes
                0x0000028e       0x39 build/sam_a5d27_som1_winc3400/production/_ext/1909873291/nmasic.o
 .ARM.attributes
                0x000002c7       0x39 build/sam_a5d27_som1_winc3400/production/_ext/1909873291/nmbus.o
 .ARM.attributes
                0x00000300       0x39 build/sam_a5d27_som1_winc3400/production/_ext/1909873291/m2m_wifi.o
 .ARM.attributes
                0x00000339       0x39 build/sam_a5d27_som1_winc3400/production/_ext/1483395904/inet_ntop.o
 .ARM.attributes
                0x00000372       0x39 build/sam_a5d27_som1_winc3400/production/_ext/1483395904/socket.o
 .ARM.attributes
                0x000003ab       0x39 build/sam_a5d27_som1_winc3400/production/_ext/973425813/wdrv_winc_osal.o
 .ARM.attributes
                0x000003e4       0x39 build/sam_a5d27_som1_winc3400/production/_ext/237603529/wdrv_winc_systime.o
 .ARM.attributes
                0x0000041d       0x39 build/sam_a5d27_som1_winc3400/production/_ext/237603529/wdrv_winc_sta.o
 .ARM.attributes
                0x00000456       0x39 build/sam_a5d27_som1_winc3400/production/_ext/237603529/wdrv_winc_bssctx.o
 .ARM.attributes
                0x0000048f       0x39 build/sam_a5d27_som1_winc3400/production/_ext/237603529/wdrv_winc_bssfind.o
 .ARM.attributes
                0x000004c8       0x39 build/sam_a5d27_som1_winc3400/production/_ext/237603529/wdrv_winc_socket.o
 .ARM.attributes
                0x00000501       0x39 build/sam_a5d27_som1_winc3400/production/_ext/237603529/wdrv_winc.o
 .ARM.attributes
                0x0000053a       0x39 build/sam_a5d27_som1_winc3400/production/_ext/237603529/wdrv_winc_authctx.o
 .ARM.attributes
                0x00000573       0x39 build/sam_a5d27_som1_winc3400/production/_ext/883939571/plib_aic.o
 .ARM.attributes
                0x000005ac       0x39 build/sam_a5d27_som1_winc3400/production/_ext/883937548/plib_clk.o
 .ARM.attributes
                0x000005e5       0x39 build/sam_a5d27_som1_winc3400/production/_ext/1895127654/plib_flexcom4_spi_master.o
 .ARM.attributes
                0x0000061e       0x39 build/sam_a5d27_som1_winc3400/production/_ext/662486865/plib_matrix.o
 .ARM.attributes
                0x00000657       0x39 build/sam_a5d27_som1_winc3400/production/_ext/883927897/plib_mmu.o
 .ARM.attributes
                0x00000690       0x39 build/sam_a5d27_som1_winc3400/production/_ext/883925144/plib_pio.o
 .ARM.attributes
                0x000006c9       0x39 build/sam_a5d27_som1_winc3400/production/_ext/941317725/plib_tc0.o
 .ARM.attributes
                0x00000702       0x39 build/sam_a5d27_som1_winc3400/production/_ext/1631734212/plib_uart1.o
 .ARM.attributes
                0x0000073b       0x39 build/sam_a5d27_som1_winc3400/production/_ext/958701621/plib_xdmac0.o
 .ARM.attributes
                0x00000774       0x39 build/sam_a5d27_som1_winc3400/production/_ext/1006343247/sys_console_uart.o
 .ARM.attributes
                0x000007ad       0x39 build/sam_a5d27_som1_winc3400/production/_ext/1006343247/sys_console.o
 .ARM.attributes
                0x000007e6       0x39 build/sam_a5d27_som1_winc3400/production/_ext/100066323/sys_debug.o
 .ARM.attributes
                0x0000081f       0x39 build/sam_a5d27_som1_winc3400/production/_ext/775042947/sys_dma.o
 .ARM.attributes
                0x00000858       0x39 build/sam_a5d27_som1_winc3400/production/_ext/937565385/sys_int.o
 .ARM.attributes
                0x00000891       0x39 build/sam_a5d27_som1_winc3400/production/_ext/695691069/sys_time.o
 .ARM.attributes
                0x000008ca       0x39 build/sam_a5d27_som1_winc3400/production/_ext/1420774346/initialization.o
 .ARM.attributes
                0x00000903       0x39 build/sam_a5d27_som1_winc3400/production/_ext/1420774346/fault_handlers.o
 .ARM.attributes
                0x0000093c       0x25 build/sam_a5d27_som1_winc3400/production/_ext/1420774346/cstartup.o
 .ARM.attributes
                0x00000961       0x39 build/sam_a5d27_som1_winc3400/production/_ext/1420774346/tasks.o
 .ARM.attributes
                0x0000099a       0x39 build/sam_a5d27_som1_winc3400/production/_ext/1420774346/interrupts.o
 .ARM.attributes
                0x000009d3       0x39 build/sam_a5d27_som1_winc3400/production/_ext/1360937237/app.o
 .ARM.attributes
                0x00000a0c       0x39 build/sam_a5d27_som1_winc3400/production/_ext/1360937237/main.o
 .ARM.attributes
                0x00000a45       0x39 build/sam_a5d27_som1_winc3400/production/_ext/1360937237/example.o
 .ARM.attributes
                0x00000a7e       0x1f c:/program files/microchip/xc32/v4.10/bin/bin/../../lib/gcc/pic32c/8.3.1/arm/v7-a+simd/hard\libgcc.a(_udivsi3.o)
 .ARM.attributes
                0x00000a9d       0x1f c:/program files/microchip/xc32/v4.10/bin/bin/../../lib/gcc/pic32c/8.3.1/arm/v7-a+simd/hard\libgcc.a(_divsi3.o)
 .ARM.attributes
                0x00000abc       0x1f c:/program files/microchip/xc32/v4.10/bin/bin/../../lib/gcc/pic32c/8.3.1/arm/v7-a+simd/hard\libgcc.a(_dvmd_tls.o)
 .ARM.attributes
                0x00000adb       0x1f c:/program files/microchip/xc32/v4.10/bin/bin/../../lib/gcc/pic32c/8.3.1/arm/v7-a+simd/hard\libgcc.a(_aeabi_uldivmod.o)
 .ARM.attributes
                0x00000afa       0x35 c:/program files/microchip/xc32/v4.10/bin/bin/../../lib/gcc/pic32c/8.3.1/arm/v7-a+simd/hard\libgcc.a(_udivmoddi4.o)
 .ARM.attributes
                0x00000b2f       0x37 c:/program files/microchip/xc32/v4.10/bin/bin/../../lib/gcc/pic32c/8.3.1/../../../../pic32c/lib/arm/v7-a+simd/hard\libc-musl.a(__libc_start_main.o)
 .ARM.attributes
                0x00000b66       0x33 c:/program files/microchip/xc32/v4.10/bin/bin/../../lib/gcc/pic32c/8.3.1/../../../../pic32c/lib/arm/v7-a+simd/hard\libc-musl.a(libc.o)
 .ARM.attributes
                0x00000b99       0x37 c:/program files/microchip/xc32/v4.10/bin/bin/../../lib/gcc/pic32c/8.3.1/../../../../pic32c/lib/arm/v7-a+simd/hard\libc-musl.a(malloc.o)
 .ARM.attributes
                0x00000bd0       0x37 c:/program files/microchip/xc32/v4.10/bin/bin/../../lib/gcc/pic32c/8.3.1/../../../../pic32c/lib/arm/v7-a+simd/hard\libc-musl.a(expand_heap.o)
 .ARM.attributes
                0x00000c07       0x37 c:/program files/microchip/xc32/v4.10/bin/bin/../../lib/gcc/pic32c/8.3.1/../../../../pic32c/lib/arm/v7-a+simd/hard\libc-musl.a(vsnprintf.o)
 .ARM.attributes
                0x00000c3e       0x37 c:/program files/microchip/xc32/v4.10/bin/bin/../../lib/gcc/pic32c/8.3.1/../../../../pic32c/lib/arm/v7-a+simd/hard\libc-musl.a(memcmp.o)
 .ARM.attributes
                0x00000c75       0x37 c:/program files/microchip/xc32/v4.10/bin/bin/../../lib/gcc/pic32c/8.3.1/../../../../pic32c/lib/arm/v7-a+simd/hard\libc-musl.a(memcpy.o)
 .ARM.attributes
                0x00000cac       0x37 c:/program files/microchip/xc32/v4.10/bin/bin/../../lib/gcc/pic32c/8.3.1/../../../../pic32c/lib/arm/v7-a+simd/hard\libc-musl.a(memset.o)
 .ARM.attributes
                0x00000ce3       0x37 c:/program files/microchip/xc32/v4.10/bin/bin/../../lib/gcc/pic32c/8.3.1/../../../../pic32c/lib/arm/v7-a+simd/hard\libc-musl.a(strlen.o)
 .ARM.attributes
                0x00000d1a       0x37 c:/program files/microchip/xc32/v4.10/bin/bin/../../lib/gcc/pic32c/8.3.1/../../../../pic32c/lib/arm/v7-a+simd/hard\libc-musl.a(strchr.o)
 .ARM.attributes
                0x00000d51       0x37 c:/program files/microchip/xc32/v4.10/bin/bin/../../lib/gcc/pic32c/8.3.1/../../../../pic32c/lib/arm/v7-a+simd/hard\libc-musl.a(strchrnul.o)
 .ARM.attributes
                0x00000d88       0x37 c:/program files/microchip/xc32/v4.10/bin/bin/../../lib/gcc/pic32c/8.3.1/../../../../pic32c/lib/arm/v7-a+simd/hard\libc-musl.a(mktime.o)
 .ARM.attributes
                0x00000dbf       0x33 c:/program files/microchip/xc32/v4.10/bin/bin/../../lib/gcc/pic32c/8.3.1/../../../../pic32c/lib/arm/v7-a+simd/hard\libc-musl.a(__environ.o)
 .ARM.attributes
                0x00000df2       0x33 c:/program files/microchip/xc32/v4.10/bin/bin/../../lib/gcc/pic32c/8.3.1/../../../../pic32c/lib/arm/v7-a+simd/hard\libc-musl.a(__errno_location.o)
 .ARM.attributes
                0x00000e25       0x37 c:/program files/microchip/xc32/v4.10/bin/bin/../../lib/gcc/pic32c/8.3.1/../../../../pic32c/lib/arm/v7-a+simd/hard\libc-musl.a(vfprintf.o)
 .ARM.attributes
                0x00000e5c       0x37 c:/program files/microchip/xc32/v4.10/bin/bin/../../lib/gcc/pic32c/8.3.1/../../../../pic32c/lib/arm/v7-a+simd/hard\libc-musl.a(__tm_to_secs.o)
 .ARM.attributes
                0x00000e93       0x37 c:/program files/microchip/xc32/v4.10/bin/bin/../../lib/gcc/pic32c/8.3.1/../../../../pic32c/lib/arm/v7-a+simd/hard\libc-musl.a(__year_to_secs.o)
 .ARM.attributes
                0x00000eca       0x37 c:/program files/microchip/xc32/v4.10/bin/bin/../../lib/gcc/pic32c/8.3.1/../../../../pic32c/lib/arm/v7-a+simd/hard\libc-musl.a(__secs_to_tm.o)
 .ARM.attributes
                0x00000f01       0x37 c:/program files/microchip/xc32/v4.10/bin/bin/../../lib/gcc/pic32c/8.3.1/../../../../pic32c/lib/arm/v7-a+simd/hard\libc-musl.a(__printf_core.o)
 .ARM.attributes
                0x00000f38       0x37 c:/program files/microchip/xc32/v4.10/bin/bin/../../lib/gcc/pic32c/8.3.1/../../../../pic32c/lib/arm/v7-a+simd/hard\libc-musl.a(atoi.o)
 .ARM.attributes
                0x00000f6f       0x37 c:/program files/microchip/xc32/v4.10/bin/bin/../../lib/gcc/pic32c/8.3.1/../../../../pic32c/lib/arm/v7-a+simd/hard\libc-musl.a(__month_to_secs.o)
 .ARM.attributes
                0x00000fa6       0x37 c:/program files/microchip/xc32/v4.10/bin/bin/../../lib/gcc/pic32c/8.3.1/../../../../pic32c/lib/arm/v7-a+simd/hard\libc-musl.a(tolower.o)
 .ARM.attributes
                0x00000fdd       0x37 c:/program files/microchip/xc32/v4.10/bin/bin/../../lib/gcc/pic32c/8.3.1/../../../../pic32c/lib/arm/v7-a+simd/hard\libc-musl.a(__fmt_a.o)
 .ARM.attributes
                0x00001014       0x37 c:/program files/microchip/xc32/v4.10/bin/bin/../../lib/gcc/pic32c/8.3.1/../../../../pic32c/lib/arm/v7-a+simd/hard\libc-musl.a(__fmt_d.o)
 .ARM.attributes
                0x0000104b       0x37 c:/program files/microchip/xc32/v4.10/bin/bin/../../lib/gcc/pic32c/8.3.1/../../../../pic32c/lib/arm/v7-a+simd/hard\libc-musl.a(__fmt_fp.o)
 .ARM.attributes
                0x00001082       0x37 c:/program files/microchip/xc32/v4.10/bin/bin/../../lib/gcc/pic32c/8.3.1/../../../../pic32c/lib/arm/v7-a+simd/hard\libc-musl.a(__fmt_o.o)
 .ARM.attributes
                0x000010b9       0x37 c:/program files/microchip/xc32/v4.10/bin/bin/../../lib/gcc/pic32c/8.3.1/../../../../pic32c/lib/arm/v7-a+simd/hard\libc-musl.a(__fmt_s.o)
 .ARM.attributes
                0x000010f0       0x37 c:/program files/microchip/xc32/v4.10/bin/bin/../../lib/gcc/pic32c/8.3.1/../../../../pic32c/lib/arm/v7-a+simd/hard\libc-musl.a(__fmt_u.o)
 .ARM.attributes
                0x00001127       0x37 c:/program files/microchip/xc32/v4.10/bin/bin/../../lib/gcc/pic32c/8.3.1/../../../../pic32c/lib/arm/v7-a+simd/hard\libc-musl.a(__fmt_x.o)
 .ARM.attributes
                0x0000115e       0x37 c:/program files/microchip/xc32/v4.10/bin/bin/../../lib/gcc/pic32c/8.3.1/../../../../pic32c/lib/arm/v7-a+simd/hard\libc-musl.a(__pop_float.o)
 .ARM.attributes
                0x00001195       0x37 c:/program files/microchip/xc32/v4.10/bin/bin/../../lib/gcc/pic32c/8.3.1/../../../../pic32c/lib/arm/v7-a+simd/hard\libc-musl.a(__pop_int.o)
 .ARM.attributes
                0x000011cc       0x37 c:/program files/microchip/xc32/v4.10/bin/bin/../../lib/gcc/pic32c/8.3.1/../../../../pic32c/lib/arm/v7-a+simd/hard\libc-musl.a(__pop_ptr.o)
 .ARM.attributes
                0x00001203       0x37 c:/program files/microchip/xc32/v4.10/bin/bin/../../lib/gcc/pic32c/8.3.1/../../../../pic32c/lib/arm/v7-a+simd/hard\libc-musl.a(strcpy.o)
 .ARM.attributes
                0x0000123a       0x37 c:/program files/microchip/xc32/v4.10/bin/bin/../../lib/gcc/pic32c/8.3.1/../../../../pic32c/lib/arm/v7-a+simd/hard\libc-musl.a(toupper.o)
 .ARM.attributes
                0x00001271       0x37 c:/program files/microchip/xc32/v4.10/bin/bin/../../lib/gcc/pic32c/8.3.1/../../../../pic32c/lib/arm/v7-a+simd/hard\libc-musl.a(stpcpy.o)
 .ARM.attributes
                0x000012a8       0x37 c:/program files/microchip/xc32/v4.10/bin/bin/../../lib/gcc/pic32c/8.3.1/../../../../pic32c/lib/arm/v7-a+simd/hard\libm-musl.a(floor.o)
 .ARM.attributes
                0x000012df       0x37 c:/program files/microchip/xc32/v4.10/bin/bin/../../lib/gcc/pic32c/8.3.1/../../../../pic32c/lib/arm/v7-a+simd/hard\libm-musl.a(fma.o)
 .ARM.attributes
                0x00001316       0x37 c:/program files/microchip/xc32/v4.10/bin/bin/../../lib/gcc/pic32c/8.3.1/../../../../pic32c/lib/arm/v7-a+simd/hard\libm-musl.a(scalbn.o)
 .ARM.attributes
                0x0000134d       0x35 c:/program files/microchip/xc32/v4.10/bin/bin/../../lib/gcc/pic32c/8.3.1/../../../../pic32c/lib/arm/v7-a+simd/hard\libpic32c.a(sbrk.o)
 .ARM.attributes
                0x00001382       0x1f c:/program files/microchip/xc32/v4.10/bin/bin/../../lib/gcc/pic32c/8.3.1/arm/v7-a+simd/hard\libgcc.a(_arm_addsubdf3.o)
 .ARM.attributes
                0x000013a1       0x1f c:/program files/microchip/xc32/v4.10/bin/bin/../../lib/gcc/pic32c/8.3.1/arm/v7-a+simd/hard\libgcc.a(_aeabi_ldivmod.o)
 .ARM.attributes
                0x000013c0       0x1f c:/program files/microchip/xc32/v4.10/bin/bin/../../lib/gcc/pic32c/8.3.1/arm/v7-a+simd/hard/crtn.o

.comment        0x00000000       0x2b
 .comment       0x00000000       0x2b c:/program files/microchip/xc32/v4.10/bin/bin/../../lib/gcc/pic32c/8.3.1/arm/v7-a+simd/hard/crtbegin.o
                                 0x2c (size before relaxing)
 .comment       0x0000002b       0x2c build/sam_a5d27_som1_winc3400/production/_ext/1279932671/drv_spi.o
 .comment       0x0000002b       0x2c build/sam_a5d27_som1_winc3400/production/_ext/1407615473/wdrv_winc_gpio.o
 .comment       0x0000002b       0x2c build/sam_a5d27_som1_winc3400/production/_ext/1407615473/wdrv_winc_eint.o
 .comment       0x0000002b       0x2c build/sam_a5d27_som1_winc3400/production/_ext/1846510740/wdrv_winc_spi.o
 .comment       0x0000002b       0x2c build/sam_a5d27_som1_winc3400/production/_ext/1941162184/nm_common.o
 .comment       0x0000002b       0x2c build/sam_a5d27_som1_winc3400/production/_ext/1909873291/nmspi.o
 .comment       0x0000002b       0x2c build/sam_a5d27_som1_winc3400/production/_ext/1909873291/nmdrv.o
 .comment       0x0000002b       0x2c build/sam_a5d27_som1_winc3400/production/_ext/1909873291/m2m_ota.o
 .comment       0x0000002b       0x2c build/sam_a5d27_som1_winc3400/production/_ext/1909873291/m2m_ssl.o
 .comment       0x0000002b       0x2c build/sam_a5d27_som1_winc3400/production/_ext/1909873291/m2m_hif.o
 .comment       0x0000002b       0x2c build/sam_a5d27_som1_winc3400/production/_ext/1909873291/nmasic.o
 .comment       0x0000002b       0x2c build/sam_a5d27_som1_winc3400/production/_ext/1909873291/nmbus.o
 .comment       0x0000002b       0x2c build/sam_a5d27_som1_winc3400/production/_ext/1909873291/m2m_wifi.o
 .comment       0x0000002b       0x2c build/sam_a5d27_som1_winc3400/production/_ext/1483395904/inet_ntop.o
 .comment       0x0000002b       0x2c build/sam_a5d27_som1_winc3400/production/_ext/1483395904/socket.o
 .comment       0x0000002b       0x2c build/sam_a5d27_som1_winc3400/production/_ext/973425813/wdrv_winc_osal.o
 .comment       0x0000002b       0x2c build/sam_a5d27_som1_winc3400/production/_ext/237603529/wdrv_winc_systime.o
 .comment       0x0000002b       0x2c build/sam_a5d27_som1_winc3400/production/_ext/237603529/wdrv_winc_sta.o
 .comment       0x0000002b       0x2c build/sam_a5d27_som1_winc3400/production/_ext/237603529/wdrv_winc_bssctx.o
 .comment       0x0000002b       0x2c build/sam_a5d27_som1_winc3400/production/_ext/237603529/wdrv_winc_bssfind.o
 .comment       0x0000002b       0x2c build/sam_a5d27_som1_winc3400/production/_ext/237603529/wdrv_winc_socket.o
 .comment       0x0000002b       0x2c build/sam_a5d27_som1_winc3400/production/_ext/237603529/wdrv_winc.o
 .comment       0x0000002b       0x2c build/sam_a5d27_som1_winc3400/production/_ext/237603529/wdrv_winc_authctx.o
 .comment       0x0000002b       0x2c build/sam_a5d27_som1_winc3400/production/_ext/883939571/plib_aic.o
 .comment       0x0000002b       0x2c build/sam_a5d27_som1_winc3400/production/_ext/883937548/plib_clk.o
 .comment       0x0000002b       0x2c build/sam_a5d27_som1_winc3400/production/_ext/1895127654/plib_flexcom4_spi_master.o
 .comment       0x0000002b       0x2c build/sam_a5d27_som1_winc3400/production/_ext/662486865/plib_matrix.o
 .comment       0x0000002b       0x2c build/sam_a5d27_som1_winc3400/production/_ext/883927897/plib_mmu.o
 .comment       0x0000002b       0x2c build/sam_a5d27_som1_winc3400/production/_ext/883925144/plib_pio.o
 .comment       0x0000002b       0x2c build/sam_a5d27_som1_winc3400/production/_ext/941317725/plib_tc0.o
 .comment       0x0000002b       0x2c build/sam_a5d27_som1_winc3400/production/_ext/1631734212/plib_uart1.o
 .comment       0x0000002b       0x2c build/sam_a5d27_som1_winc3400/production/_ext/958701621/plib_xdmac0.o
 .comment       0x0000002b       0x2c build/sam_a5d27_som1_winc3400/production/_ext/1006343247/sys_console_uart.o
 .comment       0x0000002b       0x2c build/sam_a5d27_som1_winc3400/production/_ext/1006343247/sys_console.o
 .comment       0x0000002b       0x2c build/sam_a5d27_som1_winc3400/production/_ext/100066323/sys_debug.o
 .comment       0x0000002b       0x2c build/sam_a5d27_som1_winc3400/production/_ext/775042947/sys_dma.o
 .comment       0x0000002b       0x2c build/sam_a5d27_som1_winc3400/production/_ext/937565385/sys_int.o
 .comment       0x0000002b       0x2c build/sam_a5d27_som1_winc3400/production/_ext/695691069/sys_time.o
 .comment       0x0000002b       0x2c build/sam_a5d27_som1_winc3400/production/_ext/1420774346/initialization.o
 .comment       0x0000002b       0x2c build/sam_a5d27_som1_winc3400/production/_ext/1420774346/fault_handlers.o
 .comment       0x0000002b       0x2c build/sam_a5d27_som1_winc3400/production/_ext/1420774346/tasks.o
 .comment       0x0000002b       0x2c build/sam_a5d27_som1_winc3400/production/_ext/1420774346/interrupts.o
 .comment       0x0000002b       0x2c build/sam_a5d27_som1_winc3400/production/_ext/1360937237/app.o
 .comment       0x0000002b       0x2c build/sam_a5d27_som1_winc3400/production/_ext/1360937237/main.o
 .comment       0x0000002b       0x2c build/sam_a5d27_som1_winc3400/production/_ext/1360937237/example.o
 .comment       0x0000002b       0x2c c:/program files/microchip/xc32/v4.10/bin/bin/../../lib/gcc/pic32c/8.3.1/arm/v7-a+simd/hard\libgcc.a(_udivmoddi4.o)
 .comment       0x0000002b       0x2c c:/program files/microchip/xc32/v4.10/bin/bin/../../lib/gcc/pic32c/8.3.1/../../../../pic32c/lib/arm/v7-a+simd/hard\libc-musl.a(__libc_start_main.o)
 .comment       0x0000002b       0x2c c:/program files/microchip/xc32/v4.10/bin/bin/../../lib/gcc/pic32c/8.3.1/../../../../pic32c/lib/arm/v7-a+simd/hard\libc-musl.a(libc.o)
 .comment       0x0000002b       0x2c c:/program files/microchip/xc32/v4.10/bin/bin/../../lib/gcc/pic32c/8.3.1/../../../../pic32c/lib/arm/v7-a+simd/hard\libc-musl.a(malloc.o)
 .comment       0x0000002b       0x2c c:/program files/microchip/xc32/v4.10/bin/bin/../../lib/gcc/pic32c/8.3.1/../../../../pic32c/lib/arm/v7-a+simd/hard\libc-musl.a(expand_heap.o)
 .comment       0x0000002b       0x2c c:/program files/microchip/xc32/v4.10/bin/bin/../../lib/gcc/pic32c/8.3.1/../../../../pic32c/lib/arm/v7-a+simd/hard\libc-musl.a(vsnprintf.o)
 .comment       0x0000002b       0x2c c:/program files/microchip/xc32/v4.10/bin/bin/../../lib/gcc/pic32c/8.3.1/../../../../pic32c/lib/arm/v7-a+simd/hard\libc-musl.a(memcmp.o)
 .comment       0x0000002b       0x2c c:/program files/microchip/xc32/v4.10/bin/bin/../../lib/gcc/pic32c/8.3.1/../../../../pic32c/lib/arm/v7-a+simd/hard\libc-musl.a(memcpy.o)
 .comment       0x0000002b       0x2c c:/program files/microchip/xc32/v4.10/bin/bin/../../lib/gcc/pic32c/8.3.1/../../../../pic32c/lib/arm/v7-a+simd/hard\libc-musl.a(memset.o)
 .comment       0x0000002b       0x2c c:/program files/microchip/xc32/v4.10/bin/bin/../../lib/gcc/pic32c/8.3.1/../../../../pic32c/lib/arm/v7-a+simd/hard\libc-musl.a(strlen.o)
 .comment       0x0000002b       0x2c c:/program files/microchip/xc32/v4.10/bin/bin/../../lib/gcc/pic32c/8.3.1/../../../../pic32c/lib/arm/v7-a+simd/hard\libc-musl.a(strchr.o)
 .comment       0x0000002b       0x2c c:/program files/microchip/xc32/v4.10/bin/bin/../../lib/gcc/pic32c/8.3.1/../../../../pic32c/lib/arm/v7-a+simd/hard\libc-musl.a(strchrnul.o)
 .comment       0x0000002b       0x2c c:/program files/microchip/xc32/v4.10/bin/bin/../../lib/gcc/pic32c/8.3.1/../../../../pic32c/lib/arm/v7-a+simd/hard\libc-musl.a(mktime.o)
 .comment       0x0000002b       0x2c c:/program files/microchip/xc32/v4.10/bin/bin/../../lib/gcc/pic32c/8.3.1/../../../../pic32c/lib/arm/v7-a+simd/hard\libc-musl.a(__environ.o)
 .comment       0x0000002b       0x2c c:/program files/microchip/xc32/v4.10/bin/bin/../../lib/gcc/pic32c/8.3.1/../../../../pic32c/lib/arm/v7-a+simd/hard\libc-musl.a(__errno_location.o)
 .comment       0x0000002b       0x2c c:/program files/microchip/xc32/v4.10/bin/bin/../../lib/gcc/pic32c/8.3.1/../../../../pic32c/lib/arm/v7-a+simd/hard\libc-musl.a(vfprintf.o)
 .comment       0x0000002b       0x2c c:/program files/microchip/xc32/v4.10/bin/bin/../../lib/gcc/pic32c/8.3.1/../../../../pic32c/lib/arm/v7-a+simd/hard\libc-musl.a(__tm_to_secs.o)
 .comment       0x0000002b       0x2c c:/program files/microchip/xc32/v4.10/bin/bin/../../lib/gcc/pic32c/8.3.1/../../../../pic32c/lib/arm/v7-a+simd/hard\libc-musl.a(__year_to_secs.o)
 .comment       0x0000002b       0x2c c:/program files/microchip/xc32/v4.10/bin/bin/../../lib/gcc/pic32c/8.3.1/../../../../pic32c/lib/arm/v7-a+simd/hard\libc-musl.a(__secs_to_tm.o)
 .comment       0x0000002b       0x2c c:/program files/microchip/xc32/v4.10/bin/bin/../../lib/gcc/pic32c/8.3.1/../../../../pic32c/lib/arm/v7-a+simd/hard\libc-musl.a(__printf_core.o)
 .comment       0x0000002b       0x2c c:/program files/microchip/xc32/v4.10/bin/bin/../../lib/gcc/pic32c/8.3.1/../../../../pic32c/lib/arm/v7-a+simd/hard\libc-musl.a(atoi.o)
 .comment       0x0000002b       0x2c c:/program files/microchip/xc32/v4.10/bin/bin/../../lib/gcc/pic32c/8.3.1/../../../../pic32c/lib/arm/v7-a+simd/hard\libc-musl.a(__month_to_secs.o)
 .comment       0x0000002b       0x2c c:/program files/microchip/xc32/v4.10/bin/bin/../../lib/gcc/pic32c/8.3.1/../../../../pic32c/lib/arm/v7-a+simd/hard\libc-musl.a(tolower.o)
 .comment       0x0000002b       0x2c c:/program files/microchip/xc32/v4.10/bin/bin/../../lib/gcc/pic32c/8.3.1/../../../../pic32c/lib/arm/v7-a+simd/hard\libc-musl.a(__fmt_a.o)
 .comment       0x0000002b       0x2c c:/program files/microchip/xc32/v4.10/bin/bin/../../lib/gcc/pic32c/8.3.1/../../../../pic32c/lib/arm/v7-a+simd/hard\libc-musl.a(__fmt_d.o)
 .comment       0x0000002b       0x2c c:/program files/microchip/xc32/v4.10/bin/bin/../../lib/gcc/pic32c/8.3.1/../../../../pic32c/lib/arm/v7-a+simd/hard\libc-musl.a(__fmt_fp.o)
 .comment       0x0000002b       0x2c c:/program files/microchip/xc32/v4.10/bin/bin/../../lib/gcc/pic32c/8.3.1/../../../../pic32c/lib/arm/v7-a+simd/hard\libc-musl.a(__fmt_o.o)
 .comment       0x0000002b       0x2c c:/program files/microchip/xc32/v4.10/bin/bin/../../lib/gcc/pic32c/8.3.1/../../../../pic32c/lib/arm/v7-a+simd/hard\libc-musl.a(__fmt_s.o)
 .comment       0x0000002b       0x2c c:/program files/microchip/xc32/v4.10/bin/bin/../../lib/gcc/pic32c/8.3.1/../../../../pic32c/lib/arm/v7-a+simd/hard\libc-musl.a(__fmt_u.o)
 .comment       0x0000002b       0x2c c:/program files/microchip/xc32/v4.10/bin/bin/../../lib/gcc/pic32c/8.3.1/../../../../pic32c/lib/arm/v7-a+simd/hard\libc-musl.a(__fmt_x.o)
 .comment       0x0000002b       0x2c c:/program files/microchip/xc32/v4.10/bin/bin/../../lib/gcc/pic32c/8.3.1/../../../../pic32c/lib/arm/v7-a+simd/hard\libc-musl.a(__pop_float.o)
 .comment       0x0000002b       0x2c c:/program files/microchip/xc32/v4.10/bin/bin/../../lib/gcc/pic32c/8.3.1/../../../../pic32c/lib/arm/v7-a+simd/hard\libc-musl.a(__pop_int.o)
 .comment       0x0000002b       0x2c c:/program files/microchip/xc32/v4.10/bin/bin/../../lib/gcc/pic32c/8.3.1/../../../../pic32c/lib/arm/v7-a+simd/hard\libc-musl.a(__pop_ptr.o)
 .comment       0x0000002b       0x2c c:/program files/microchip/xc32/v4.10/bin/bin/../../lib/gcc/pic32c/8.3.1/../../../../pic32c/lib/arm/v7-a+simd/hard\libc-musl.a(strcpy.o)
 .comment       0x0000002b       0x2c c:/program files/microchip/xc32/v4.10/bin/bin/../../lib/gcc/pic32c/8.3.1/../../../../pic32c/lib/arm/v7-a+simd/hard\libc-musl.a(toupper.o)
 .comment       0x0000002b       0x2c c:/program files/microchip/xc32/v4.10/bin/bin/../../lib/gcc/pic32c/8.3.1/../../../../pic32c/lib/arm/v7-a+simd/hard\libc-musl.a(stpcpy.o)
 .comment       0x0000002b       0x2c c:/program files/microchip/xc32/v4.10/bin/bin/../../lib/gcc/pic32c/8.3.1/../../../../pic32c/lib/arm/v7-a+simd/hard\libm-musl.a(floor.o)
 .comment       0x0000002b       0x2c c:/program files/microchip/xc32/v4.10/bin/bin/../../lib/gcc/pic32c/8.3.1/../../../../pic32c/lib/arm/v7-a+simd/hard\libm-musl.a(fma.o)
 .comment       0x0000002b       0x2c c:/program files/microchip/xc32/v4.10/bin/bin/../../lib/gcc/pic32c/8.3.1/../../../../pic32c/lib/arm/v7-a+simd/hard\libm-musl.a(scalbn.o)
 .comment       0x0000002b       0x2c c:/program files/microchip/xc32/v4.10/bin/bin/../../lib/gcc/pic32c/8.3.1/../../../../pic32c/lib/arm/v7-a+simd/hard\libpic32c.a(sbrk.o)

.debug_info     0x00000000    0x579bc
 .debug_info    0x00000000     0x4f5a build/sam_a5d27_som1_winc3400/production/_ext/1279932671/drv_spi.o
 .debug_info    0x00004f5a      0x95f build/sam_a5d27_som1_winc3400/production/_ext/1407615473/wdrv_winc_gpio.o
 .debug_info    0x000058b9      0x603 build/sam_a5d27_som1_winc3400/production/_ext/1407615473/wdrv_winc_eint.o
 .debug_info    0x00005ebc     0x1967 build/sam_a5d27_som1_winc3400/production/_ext/1846510740/wdrv_winc_spi.o
 .debug_info    0x00007823      0x5de build/sam_a5d27_som1_winc3400/production/_ext/1941162184/nm_common.o
 .debug_info    0x00007e01     0x266a build/sam_a5d27_som1_winc3400/production/_ext/1909873291/nmspi.o
 .debug_info    0x0000a46b     0x1631 build/sam_a5d27_som1_winc3400/production/_ext/1909873291/nmdrv.o
 .debug_info    0x0000ba9c     0x1686 build/sam_a5d27_som1_winc3400/production/_ext/1909873291/m2m_ota.o
 .debug_info    0x0000d122     0x1bc6 build/sam_a5d27_som1_winc3400/production/_ext/1909873291/m2m_ssl.o
 .debug_info    0x0000ece8     0x32e0 build/sam_a5d27_som1_winc3400/production/_ext/1909873291/m2m_hif.o
 .debug_info    0x00011fc8     0x18fb build/sam_a5d27_som1_winc3400/production/_ext/1909873291/nmasic.o
 .debug_info    0x000138c3     0x103f build/sam_a5d27_som1_winc3400/production/_ext/1909873291/nmbus.o
 .debug_info    0x00014902     0x7edc build/sam_a5d27_som1_winc3400/production/_ext/1909873291/m2m_wifi.o
 .debug_info    0x0001c7de      0x497 build/sam_a5d27_som1_winc3400/production/_ext/1483395904/inet_ntop.o
 .debug_info    0x0001cc75     0x38a5 build/sam_a5d27_som1_winc3400/production/_ext/1483395904/socket.o
 .debug_info    0x0002051a      0x41f build/sam_a5d27_som1_winc3400/production/_ext/973425813/wdrv_winc_osal.o
 .debug_info    0x00020939     0x25fb build/sam_a5d27_som1_winc3400/production/_ext/237603529/wdrv_winc_systime.o
 .debug_info    0x00022f34     0x2ac1 build/sam_a5d27_som1_winc3400/production/_ext/237603529/wdrv_winc_sta.o
 .debug_info    0x000259f5      0xbad build/sam_a5d27_som1_winc3400/production/_ext/237603529/wdrv_winc_bssctx.o
 .debug_info    0x000265a2     0x2b86 build/sam_a5d27_som1_winc3400/production/_ext/237603529/wdrv_winc_bssfind.o
 .debug_info    0x00029128     0x2918 build/sam_a5d27_som1_winc3400/production/_ext/237603529/wdrv_winc_socket.o
 .debug_info    0x0002ba40     0x6117 build/sam_a5d27_som1_winc3400/production/_ext/237603529/wdrv_winc.o
 .debug_info    0x00031b57     0x1a69 build/sam_a5d27_som1_winc3400/production/_ext/237603529/wdrv_winc_authctx.o
 .debug_info    0x000335c0      0xc42 build/sam_a5d27_som1_winc3400/production/_ext/883939571/plib_aic.o
 .debug_info    0x00034202      0x8fe build/sam_a5d27_som1_winc3400/production/_ext/883937548/plib_clk.o
 .debug_info    0x00034b00     0x15f5 build/sam_a5d27_som1_winc3400/production/_ext/1895127654/plib_flexcom4_spi_master.o
 .debug_info    0x000360f5      0x947 build/sam_a5d27_som1_winc3400/production/_ext/662486865/plib_matrix.o
 .debug_info    0x00036a3c      0x851 build/sam_a5d27_som1_winc3400/production/_ext/883927897/plib_mmu.o
 .debug_info    0x0003728d      0xdbe build/sam_a5d27_som1_winc3400/production/_ext/883925144/plib_pio.o
 .debug_info    0x0003804b      0x8d5 build/sam_a5d27_som1_winc3400/production/_ext/941317725/plib_tc0.o
 .debug_info    0x00038920     0x13e9 build/sam_a5d27_som1_winc3400/production/_ext/1631734212/plib_uart1.o
 .debug_info    0x00039d09      0xd7a build/sam_a5d27_som1_winc3400/production/_ext/958701621/plib_xdmac0.o
 .debug_info    0x0003aa83     0x1b9e build/sam_a5d27_som1_winc3400/production/_ext/1006343247/sys_console_uart.o
 .debug_info    0x0003c621     0x149f build/sam_a5d27_som1_winc3400/production/_ext/1006343247/sys_console.o
 .debug_info    0x0003dac0      0x7a1 build/sam_a5d27_som1_winc3400/production/_ext/100066323/sys_debug.o
 .debug_info    0x0003e261      0x874 build/sam_a5d27_som1_winc3400/production/_ext/775042947/sys_dma.o
 .debug_info    0x0003ead5     0x11a5 build/sam_a5d27_som1_winc3400/production/_ext/937565385/sys_int.o
 .debug_info    0x0003fc7a     0x2a67 build/sam_a5d27_som1_winc3400/production/_ext/695691069/sys_time.o
 .debug_info    0x000426e1     0x40c0 build/sam_a5d27_som1_winc3400/production/_ext/1420774346/initialization.o
 .debug_info    0x000467a1      0x2ff build/sam_a5d27_som1_winc3400/production/_ext/1420774346/fault_handlers.o
 .debug_info    0x00046aa0       0x22 build/sam_a5d27_som1_winc3400/production/_ext/1420774346/cstartup.o
 .debug_info    0x00046ac2      0x41b build/sam_a5d27_som1_winc3400/production/_ext/1420774346/tasks.o
 .debug_info    0x00046edd      0xd1f build/sam_a5d27_som1_winc3400/production/_ext/1420774346/interrupts.o
 .debug_info    0x00047bfc     0x1010 build/sam_a5d27_som1_winc3400/production/_ext/1360937237/app.o
 .debug_info    0x00048c0c      0x340 build/sam_a5d27_som1_winc3400/production/_ext/1360937237/main.o
 .debug_info    0x00048f4c     0x1f4c build/sam_a5d27_som1_winc3400/production/_ext/1360937237/example.o
 .debug_info    0x0004ae98       0x26 c:/program files/microchip/xc32/v4.10/bin/bin/../../lib/gcc/pic32c/8.3.1/arm/v7-a+simd/hard\libgcc.a(_udivsi3.o)
 .debug_info    0x0004aebe       0x26 c:/program files/microchip/xc32/v4.10/bin/bin/../../lib/gcc/pic32c/8.3.1/arm/v7-a+simd/hard\libgcc.a(_divsi3.o)
 .debug_info    0x0004aee4       0x26 c:/program files/microchip/xc32/v4.10/bin/bin/../../lib/gcc/pic32c/8.3.1/arm/v7-a+simd/hard\libgcc.a(_dvmd_tls.o)
 .debug_info    0x0004af0a       0x26 c:/program files/microchip/xc32/v4.10/bin/bin/../../lib/gcc/pic32c/8.3.1/arm/v7-a+simd/hard\libgcc.a(_aeabi_uldivmod.o)
 .debug_info    0x0004af30      0x432 c:/program files/microchip/xc32/v4.10/bin/bin/../../lib/gcc/pic32c/8.3.1/arm/v7-a+simd/hard\libgcc.a(_udivmoddi4.o)
 .debug_info    0x0004b362      0x626 c:/program files/microchip/xc32/v4.10/bin/bin/../../lib/gcc/pic32c/8.3.1/../../../../pic32c/lib/arm/v7-a+simd/hard\libc-musl.a(__libc_start_main.o)
 .debug_info    0x0004b988      0x538 c:/program files/microchip/xc32/v4.10/bin/bin/../../lib/gcc/pic32c/8.3.1/../../../../pic32c/lib/arm/v7-a+simd/hard\libc-musl.a(libc.o)
 .debug_info    0x0004bec0     0x13ab c:/program files/microchip/xc32/v4.10/bin/bin/../../lib/gcc/pic32c/8.3.1/../../../../pic32c/lib/arm/v7-a+simd/hard\libc-musl.a(malloc.o)
 .debug_info    0x0004d26b      0x37f c:/program files/microchip/xc32/v4.10/bin/bin/../../lib/gcc/pic32c/8.3.1/../../../../pic32c/lib/arm/v7-a+simd/hard\libc-musl.a(expand_heap.o)
 .debug_info    0x0004d5ea      0x705 c:/program files/microchip/xc32/v4.10/bin/bin/../../lib/gcc/pic32c/8.3.1/../../../../pic32c/lib/arm/v7-a+simd/hard\libc-musl.a(vsnprintf.o)
 .debug_info    0x0004dcef      0x2e5 c:/program files/microchip/xc32/v4.10/bin/bin/../../lib/gcc/pic32c/8.3.1/../../../../pic32c/lib/arm/v7-a+simd/hard\libc-musl.a(memcmp.o)
 .debug_info    0x0004dfd4      0x2f9 c:/program files/microchip/xc32/v4.10/bin/bin/../../lib/gcc/pic32c/8.3.1/../../../../pic32c/lib/arm/v7-a+simd/hard\libc-musl.a(memcpy.o)
 .debug_info    0x0004e2cd      0x2b8 c:/program files/microchip/xc32/v4.10/bin/bin/../../lib/gcc/pic32c/8.3.1/../../../../pic32c/lib/arm/v7-a+simd/hard\libc-musl.a(memset.o)
 .debug_info    0x0004e585      0x2a9 c:/program files/microchip/xc32/v4.10/bin/bin/../../lib/gcc/pic32c/8.3.1/../../../../pic32c/lib/arm/v7-a+simd/hard\libc-musl.a(strlen.o)
 .debug_info    0x0004e82e      0x2cb c:/program files/microchip/xc32/v4.10/bin/bin/../../lib/gcc/pic32c/8.3.1/../../../../pic32c/lib/arm/v7-a+simd/hard\libc-musl.a(strchr.o)
 .debug_info    0x0004eaf9      0x3fd c:/program files/microchip/xc32/v4.10/bin/bin/../../lib/gcc/pic32c/8.3.1/../../../../pic32c/lib/arm/v7-a+simd/hard\libc-musl.a(strchrnul.o)
 .debug_info    0x0004eef6      0x42e c:/program files/microchip/xc32/v4.10/bin/bin/../../lib/gcc/pic32c/8.3.1/../../../../pic32c/lib/arm/v7-a+simd/hard\libc-musl.a(mktime.o)
 .debug_info    0x0004f324      0x2b2 c:/program files/microchip/xc32/v4.10/bin/bin/../../lib/gcc/pic32c/8.3.1/../../../../pic32c/lib/arm/v7-a+simd/hard\libc-musl.a(__environ.o)
 .debug_info    0x0004f5d6      0x276 c:/program files/microchip/xc32/v4.10/bin/bin/../../lib/gcc/pic32c/8.3.1/../../../../pic32c/lib/arm/v7-a+simd/hard\libc-musl.a(__errno_location.o)
 .debug_info    0x0004f84c      0x6c6 c:/program files/microchip/xc32/v4.10/bin/bin/../../lib/gcc/pic32c/8.3.1/../../../../pic32c/lib/arm/v7-a+simd/hard\libc-musl.a(vfprintf.o)
 .debug_info    0x0004ff12      0x458 c:/program files/microchip/xc32/v4.10/bin/bin/../../lib/gcc/pic32c/8.3.1/../../../../pic32c/lib/arm/v7-a+simd/hard\libc-musl.a(__tm_to_secs.o)
 .debug_info    0x0005036a      0x332 c:/program files/microchip/xc32/v4.10/bin/bin/../../lib/gcc/pic32c/8.3.1/../../../../pic32c/lib/arm/v7-a+simd/hard\libc-musl.a(__year_to_secs.o)
 .debug_info    0x0005069c      0x52e c:/program files/microchip/xc32/v4.10/bin/bin/../../lib/gcc/pic32c/8.3.1/../../../../pic32c/lib/arm/v7-a+simd/hard\libc-musl.a(__secs_to_tm.o)
 .debug_info    0x00050bca      0xcfa c:/program files/microchip/xc32/v4.10/bin/bin/../../lib/gcc/pic32c/8.3.1/../../../../pic32c/lib/arm/v7-a+simd/hard\libc-musl.a(__printf_core.o)
 .debug_info    0x000518c4      0x2fd c:/program files/microchip/xc32/v4.10/bin/bin/../../lib/gcc/pic32c/8.3.1/../../../../pic32c/lib/arm/v7-a+simd/hard\libc-musl.a(atoi.o)
 .debug_info    0x00051bc1      0x2dd c:/program files/microchip/xc32/v4.10/bin/bin/../../lib/gcc/pic32c/8.3.1/../../../../pic32c/lib/arm/v7-a+simd/hard\libc-musl.a(__month_to_secs.o)
 .debug_info    0x00051e9e      0x356 c:/program files/microchip/xc32/v4.10/bin/bin/../../lib/gcc/pic32c/8.3.1/../../../../pic32c/lib/arm/v7-a+simd/hard\libc-musl.a(tolower.o)
 .debug_info    0x000521f4      0x964 c:/program files/microchip/xc32/v4.10/bin/bin/../../lib/gcc/pic32c/8.3.1/../../../../pic32c/lib/arm/v7-a+simd/hard\libc-musl.a(__fmt_a.o)
 .debug_info    0x00052b58      0x5c5 c:/program files/microchip/xc32/v4.10/bin/bin/../../lib/gcc/pic32c/8.3.1/../../../../pic32c/lib/arm/v7-a+simd/hard\libc-musl.a(__fmt_d.o)
 .debug_info    0x0005311d      0xa01 c:/program files/microchip/xc32/v4.10/bin/bin/../../lib/gcc/pic32c/8.3.1/../../../../pic32c/lib/arm/v7-a+simd/hard\libc-musl.a(__fmt_fp.o)
 .debug_info    0x00053b1e      0x596 c:/program files/microchip/xc32/v4.10/bin/bin/../../lib/gcc/pic32c/8.3.1/../../../../pic32c/lib/arm/v7-a+simd/hard\libc-musl.a(__fmt_o.o)
 .debug_info    0x000540b4      0x53a c:/program files/microchip/xc32/v4.10/bin/bin/../../lib/gcc/pic32c/8.3.1/../../../../pic32c/lib/arm/v7-a+simd/hard\libc-musl.a(__fmt_s.o)
 .debug_info    0x000545ee      0x659 c:/program files/microchip/xc32/v4.10/bin/bin/../../lib/gcc/pic32c/8.3.1/../../../../pic32c/lib/arm/v7-a+simd/hard\libc-musl.a(__fmt_u.o)
 .debug_info    0x00054c47      0x5c6 c:/program files/microchip/xc32/v4.10/bin/bin/../../lib/gcc/pic32c/8.3.1/../../../../pic32c/lib/arm/v7-a+simd/hard\libc-musl.a(__fmt_x.o)
 .debug_info    0x0005520d      0x3e0 c:/program files/microchip/xc32/v4.10/bin/bin/../../lib/gcc/pic32c/8.3.1/../../../../pic32c/lib/arm/v7-a+simd/hard\libc-musl.a(__pop_float.o)
 .debug_info    0x000555ed      0x404 c:/program files/microchip/xc32/v4.10/bin/bin/../../lib/gcc/pic32c/8.3.1/../../../../pic32c/lib/arm/v7-a+simd/hard\libc-musl.a(__pop_int.o)
 .debug_info    0x000559f1      0x409 c:/program files/microchip/xc32/v4.10/bin/bin/../../lib/gcc/pic32c/8.3.1/../../../../pic32c/lib/arm/v7-a+simd/hard\libc-musl.a(__pop_ptr.o)
 .debug_info    0x00055dfa      0x2b7 c:/program files/microchip/xc32/v4.10/bin/bin/../../lib/gcc/pic32c/8.3.1/../../../../pic32c/lib/arm/v7-a+simd/hard\libc-musl.a(strcpy.o)
 .debug_info    0x000560b1      0x356 c:/program files/microchip/xc32/v4.10/bin/bin/../../lib/gcc/pic32c/8.3.1/../../../../pic32c/lib/arm/v7-a+simd/hard\libc-musl.a(toupper.o)
 .debug_info    0x00056407      0x2bb c:/program files/microchip/xc32/v4.10/bin/bin/../../lib/gcc/pic32c/8.3.1/../../../../pic32c/lib/arm/v7-a+simd/hard\libc-musl.a(stpcpy.o)
 .debug_info    0x000566c2      0x3e7 c:/program files/microchip/xc32/v4.10/bin/bin/../../lib/gcc/pic32c/8.3.1/../../../../pic32c/lib/arm/v7-a+simd/hard\libm-musl.a(floor.o)
 .debug_info    0x00056aa9      0x8c6 c:/program files/microchip/xc32/v4.10/bin/bin/../../lib/gcc/pic32c/8.3.1/../../../../pic32c/lib/arm/v7-a+simd/hard\libm-musl.a(fma.o)
 .debug_info    0x0005736f      0x371 c:/program files/microchip/xc32/v4.10/bin/bin/../../lib/gcc/pic32c/8.3.1/../../../../pic32c/lib/arm/v7-a+simd/hard\libm-musl.a(scalbn.o)
 .debug_info    0x000576e0      0x290 c:/program files/microchip/xc32/v4.10/bin/bin/../../lib/gcc/pic32c/8.3.1/../../../../pic32c/lib/arm/v7-a+simd/hard\libpic32c.a(sbrk.o)
 .debug_info    0x00057970       0x26 c:/program files/microchip/xc32/v4.10/bin/bin/../../lib/gcc/pic32c/8.3.1/arm/v7-a+simd/hard\libgcc.a(_arm_addsubdf3.o)
 .debug_info    0x00057996       0x26 c:/program files/microchip/xc32/v4.10/bin/bin/../../lib/gcc/pic32c/8.3.1/arm/v7-a+simd/hard\libgcc.a(_aeabi_ldivmod.o)

.debug_abbrev   0x00000000     0x9a89
 .debug_abbrev  0x00000000      0x561 build/sam_a5d27_som1_winc3400/production/_ext/1279932671/drv_spi.o
 .debug_abbrev  0x00000561       0xc2 build/sam_a5d27_som1_winc3400/production/_ext/1407615473/wdrv_winc_gpio.o
 .debug_abbrev  0x00000623      0x133 build/sam_a5d27_som1_winc3400/production/_ext/1407615473/wdrv_winc_eint.o
 .debug_abbrev  0x00000756      0x356 build/sam_a5d27_som1_winc3400/production/_ext/1846510740/wdrv_winc_spi.o
 .debug_abbrev  0x00000aac      0x194 build/sam_a5d27_som1_winc3400/production/_ext/1941162184/nm_common.o
 .debug_abbrev  0x00000c40      0x3e0 build/sam_a5d27_som1_winc3400/production/_ext/1909873291/nmspi.o
 .debug_abbrev  0x00001020      0x24b build/sam_a5d27_som1_winc3400/production/_ext/1909873291/nmdrv.o
 .debug_abbrev  0x0000126b      0x2a4 build/sam_a5d27_som1_winc3400/production/_ext/1909873291/m2m_ota.o
 .debug_abbrev  0x0000150f      0x34e build/sam_a5d27_som1_winc3400/production/_ext/1909873291/m2m_ssl.o
 .debug_abbrev  0x0000185d      0x4fa build/sam_a5d27_som1_winc3400/production/_ext/1909873291/m2m_hif.o
 .debug_abbrev  0x00001d57      0x26a build/sam_a5d27_som1_winc3400/production/_ext/1909873291/nmasic.o
 .debug_abbrev  0x00001fc1      0x268 build/sam_a5d27_som1_winc3400/production/_ext/1909873291/nmbus.o
 .debug_abbrev  0x00002229      0x4a1 build/sam_a5d27_som1_winc3400/production/_ext/1909873291/m2m_wifi.o
 .debug_abbrev  0x000026ca       0xbc build/sam_a5d27_som1_winc3400/production/_ext/1483395904/inet_ntop.o
 .debug_abbrev  0x00002786      0x520 build/sam_a5d27_som1_winc3400/production/_ext/1483395904/socket.o
 .debug_abbrev  0x00002ca6       0xd4 build/sam_a5d27_som1_winc3400/production/_ext/973425813/wdrv_winc_osal.o
 .debug_abbrev  0x00002d7a      0x279 build/sam_a5d27_som1_winc3400/production/_ext/237603529/wdrv_winc_systime.o
 .debug_abbrev  0x00002ff3      0x320 build/sam_a5d27_som1_winc3400/production/_ext/237603529/wdrv_winc_sta.o
 .debug_abbrev  0x00003313      0x1cd build/sam_a5d27_som1_winc3400/production/_ext/237603529/wdrv_winc_bssctx.o
 .debug_abbrev  0x000034e0      0x31b build/sam_a5d27_som1_winc3400/production/_ext/237603529/wdrv_winc_bssfind.o
 .debug_abbrev  0x000037fb      0x343 build/sam_a5d27_som1_winc3400/production/_ext/237603529/wdrv_winc_socket.o
 .debug_abbrev  0x00003b3e      0x520 build/sam_a5d27_som1_winc3400/production/_ext/237603529/wdrv_winc.o
 .debug_abbrev  0x0000405e      0x315 build/sam_a5d27_som1_winc3400/production/_ext/237603529/wdrv_winc_authctx.o
 .debug_abbrev  0x00004373      0x212 build/sam_a5d27_som1_winc3400/production/_ext/883939571/plib_aic.o
 .debug_abbrev  0x00004585       0xc2 build/sam_a5d27_som1_winc3400/production/_ext/883937548/plib_clk.o
 .debug_abbrev  0x00004647      0x264 build/sam_a5d27_som1_winc3400/production/_ext/1895127654/plib_flexcom4_spi_master.o
 .debug_abbrev  0x000048ab       0xcd build/sam_a5d27_som1_winc3400/production/_ext/662486865/plib_matrix.o
 .debug_abbrev  0x00004978      0x1ea build/sam_a5d27_som1_winc3400/production/_ext/883927897/plib_mmu.o
 .debug_abbrev  0x00004b62      0x224 build/sam_a5d27_som1_winc3400/production/_ext/883925144/plib_pio.o
 .debug_abbrev  0x00004d86      0x194 build/sam_a5d27_som1_winc3400/production/_ext/941317725/plib_tc0.o
 .debug_abbrev  0x00004f1a      0x4a1 build/sam_a5d27_som1_winc3400/production/_ext/1631734212/plib_uart1.o
 .debug_abbrev  0x000053bb      0x2ad build/sam_a5d27_som1_winc3400/production/_ext/958701621/plib_xdmac0.o
 .debug_abbrev  0x00005668      0x3b8 build/sam_a5d27_som1_winc3400/production/_ext/1006343247/sys_console_uart.o
 .debug_abbrev  0x00005a20      0x412 build/sam_a5d27_som1_winc3400/production/_ext/1006343247/sys_console.o
 .debug_abbrev  0x00005e32      0x17c build/sam_a5d27_som1_winc3400/production/_ext/100066323/sys_debug.o
 .debug_abbrev  0x00005fae       0xf2 build/sam_a5d27_som1_winc3400/production/_ext/775042947/sys_dma.o
 .debug_abbrev  0x000060a0      0x2a5 build/sam_a5d27_som1_winc3400/production/_ext/937565385/sys_int.o
 .debug_abbrev  0x00006345      0x58b build/sam_a5d27_som1_winc3400/production/_ext/695691069/sys_time.o
 .debug_abbrev  0x000068d0      0x275 build/sam_a5d27_som1_winc3400/production/_ext/1420774346/initialization.o
 .debug_abbrev  0x00006b45       0x33 build/sam_a5d27_som1_winc3400/production/_ext/1420774346/fault_handlers.o
 .debug_abbrev  0x00006b78       0x12 build/sam_a5d27_som1_winc3400/production/_ext/1420774346/cstartup.o
 .debug_abbrev  0x00006b8a       0xb2 build/sam_a5d27_som1_winc3400/production/_ext/1420774346/tasks.o
 .debug_abbrev  0x00006c3c      0x147 build/sam_a5d27_som1_winc3400/production/_ext/1420774346/interrupts.o
 .debug_abbrev  0x00006d83      0x1b9 build/sam_a5d27_som1_winc3400/production/_ext/1360937237/app.o
 .debug_abbrev  0x00006f3c       0x77 build/sam_a5d27_som1_winc3400/production/_ext/1360937237/main.o
 .debug_abbrev  0x00006fb3      0x28a build/sam_a5d27_som1_winc3400/production/_ext/1360937237/example.o
 .debug_abbrev  0x0000723d       0x14 c:/program files/microchip/xc32/v4.10/bin/bin/../../lib/gcc/pic32c/8.3.1/arm/v7-a+simd/hard\libgcc.a(_udivsi3.o)
 .debug_abbrev  0x00007251       0x14 c:/program files/microchip/xc32/v4.10/bin/bin/../../lib/gcc/pic32c/8.3.1/arm/v7-a+simd/hard\libgcc.a(_divsi3.o)
 .debug_abbrev  0x00007265       0x14 c:/program files/microchip/xc32/v4.10/bin/bin/../../lib/gcc/pic32c/8.3.1/arm/v7-a+simd/hard\libgcc.a(_dvmd_tls.o)
 .debug_abbrev  0x00007279       0x14 c:/program files/microchip/xc32/v4.10/bin/bin/../../lib/gcc/pic32c/8.3.1/arm/v7-a+simd/hard\libgcc.a(_aeabi_uldivmod.o)
 .debug_abbrev  0x0000728d       0x8e c:/program files/microchip/xc32/v4.10/bin/bin/../../lib/gcc/pic32c/8.3.1/arm/v7-a+simd/hard\libgcc.a(_udivmoddi4.o)
 .debug_abbrev  0x0000731b      0x117 c:/program files/microchip/xc32/v4.10/bin/bin/../../lib/gcc/pic32c/8.3.1/../../../../pic32c/lib/arm/v7-a+simd/hard\libc-musl.a(__libc_start_main.o)
 .debug_abbrev  0x00007432       0xb8 c:/program files/microchip/xc32/v4.10/bin/bin/../../lib/gcc/pic32c/8.3.1/../../../../pic32c/lib/arm/v7-a+simd/hard\libc-musl.a(libc.o)
 .debug_abbrev  0x000074ea      0x413 c:/program files/microchip/xc32/v4.10/bin/bin/../../lib/gcc/pic32c/8.3.1/../../../../pic32c/lib/arm/v7-a+simd/hard\libc-musl.a(malloc.o)
 .debug_abbrev  0x000078fd       0xa5 c:/program files/microchip/xc32/v4.10/bin/bin/../../lib/gcc/pic32c/8.3.1/../../../../pic32c/lib/arm/v7-a+simd/hard\libc-musl.a(expand_heap.o)
 .debug_abbrev  0x000079a2      0x168 c:/program files/microchip/xc32/v4.10/bin/bin/../../lib/gcc/pic32c/8.3.1/../../../../pic32c/lib/arm/v7-a+simd/hard\libc-musl.a(vsnprintf.o)
 .debug_abbrev  0x00007b0a       0x8b c:/program files/microchip/xc32/v4.10/bin/bin/../../lib/gcc/pic32c/8.3.1/../../../../pic32c/lib/arm/v7-a+simd/hard\libc-musl.a(memcmp.o)
 .debug_abbrev  0x00007b95       0x9c c:/program files/microchip/xc32/v4.10/bin/bin/../../lib/gcc/pic32c/8.3.1/../../../../pic32c/lib/arm/v7-a+simd/hard\libc-musl.a(memcpy.o)
 .debug_abbrev  0x00007c31       0x97 c:/program files/microchip/xc32/v4.10/bin/bin/../../lib/gcc/pic32c/8.3.1/../../../../pic32c/lib/arm/v7-a+simd/hard\libc-musl.a(memset.o)
 .debug_abbrev  0x00007cc8       0x86 c:/program files/microchip/xc32/v4.10/bin/bin/../../lib/gcc/pic32c/8.3.1/../../../../pic32c/lib/arm/v7-a+simd/hard\libc-musl.a(strlen.o)
 .debug_abbrev  0x00007d4e       0xa2 c:/program files/microchip/xc32/v4.10/bin/bin/../../lib/gcc/pic32c/8.3.1/../../../../pic32c/lib/arm/v7-a+simd/hard\libc-musl.a(strchr.o)
 .debug_abbrev  0x00007df0       0xf0 c:/program files/microchip/xc32/v4.10/bin/bin/../../lib/gcc/pic32c/8.3.1/../../../../pic32c/lib/arm/v7-a+simd/hard\libc-musl.a(strchrnul.o)
 .debug_abbrev  0x00007ee0       0xff c:/program files/microchip/xc32/v4.10/bin/bin/../../lib/gcc/pic32c/8.3.1/../../../../pic32c/lib/arm/v7-a+simd/hard\libc-musl.a(mktime.o)
 .debug_abbrev  0x00007fdf       0x57 c:/program files/microchip/xc32/v4.10/bin/bin/../../lib/gcc/pic32c/8.3.1/../../../../pic32c/lib/arm/v7-a+simd/hard\libc-musl.a(__environ.o)
 .debug_abbrev  0x00008036       0x2e c:/program files/microchip/xc32/v4.10/bin/bin/../../lib/gcc/pic32c/8.3.1/../../../../pic32c/lib/arm/v7-a+simd/hard\libc-musl.a(__errno_location.o)
 .debug_abbrev  0x00008064      0x16d c:/program files/microchip/xc32/v4.10/bin/bin/../../lib/gcc/pic32c/8.3.1/../../../../pic32c/lib/arm/v7-a+simd/hard\libc-musl.a(vfprintf.o)
 .debug_abbrev  0x000081d1       0xed c:/program files/microchip/xc32/v4.10/bin/bin/../../lib/gcc/pic32c/8.3.1/../../../../pic32c/lib/arm/v7-a+simd/hard\libc-musl.a(__tm_to_secs.o)
 .debug_abbrev  0x000082be       0x77 c:/program files/microchip/xc32/v4.10/bin/bin/../../lib/gcc/pic32c/8.3.1/../../../../pic32c/lib/arm/v7-a+simd/hard\libc-musl.a(__year_to_secs.o)
 .debug_abbrev  0x00008335       0xbc c:/program files/microchip/xc32/v4.10/bin/bin/../../lib/gcc/pic32c/8.3.1/../../../../pic32c/lib/arm/v7-a+simd/hard\libc-musl.a(__secs_to_tm.o)
 .debug_abbrev  0x000083f1      0x2ce c:/program files/microchip/xc32/v4.10/bin/bin/../../lib/gcc/pic32c/8.3.1/../../../../pic32c/lib/arm/v7-a+simd/hard\libc-musl.a(__printf_core.o)
 .debug_abbrev  0x000086bf       0xbb c:/program files/microchip/xc32/v4.10/bin/bin/../../lib/gcc/pic32c/8.3.1/../../../../pic32c/lib/arm/v7-a+simd/hard\libc-musl.a(atoi.o)
 .debug_abbrev  0x0000877a       0xa2 c:/program files/microchip/xc32/v4.10/bin/bin/../../lib/gcc/pic32c/8.3.1/../../../../pic32c/lib/arm/v7-a+simd/hard\libc-musl.a(__month_to_secs.o)
 .debug_abbrev  0x0000881c       0xfd c:/program files/microchip/xc32/v4.10/bin/bin/../../lib/gcc/pic32c/8.3.1/../../../../pic32c/lib/arm/v7-a+simd/hard\libc-musl.a(tolower.o)
 .debug_abbrev  0x00008919      0x19f c:/program files/microchip/xc32/v4.10/bin/bin/../../lib/gcc/pic32c/8.3.1/../../../../pic32c/lib/arm/v7-a+simd/hard\libc-musl.a(__fmt_a.o)
 .debug_abbrev  0x00008ab8      0x120 c:/program files/microchip/xc32/v4.10/bin/bin/../../lib/gcc/pic32c/8.3.1/../../../../pic32c/lib/arm/v7-a+simd/hard\libc-musl.a(__fmt_d.o)
 .debug_abbrev  0x00008bd8      0x1a2 c:/program files/microchip/xc32/v4.10/bin/bin/../../lib/gcc/pic32c/8.3.1/../../../../pic32c/lib/arm/v7-a+simd/hard\libc-musl.a(__fmt_fp.o)
 .debug_abbrev  0x00008d7a      0x120 c:/program files/microchip/xc32/v4.10/bin/bin/../../lib/gcc/pic32c/8.3.1/../../../../pic32c/lib/arm/v7-a+simd/hard\libc-musl.a(__fmt_o.o)
 .debug_abbrev  0x00008e9a      0x10b c:/program files/microchip/xc32/v4.10/bin/bin/../../lib/gcc/pic32c/8.3.1/../../../../pic32c/lib/arm/v7-a+simd/hard\libc-musl.a(__fmt_s.o)
 .debug_abbrev  0x00008fa5      0x174 c:/program files/microchip/xc32/v4.10/bin/bin/../../lib/gcc/pic32c/8.3.1/../../../../pic32c/lib/arm/v7-a+simd/hard\libc-musl.a(__fmt_u.o)
 .debug_abbrev  0x00009119      0x10f c:/program files/microchip/xc32/v4.10/bin/bin/../../lib/gcc/pic32c/8.3.1/../../../../pic32c/lib/arm/v7-a+simd/hard\libc-musl.a(__fmt_x.o)
 .debug_abbrev  0x00009228       0xbd c:/program files/microchip/xc32/v4.10/bin/bin/../../lib/gcc/pic32c/8.3.1/../../../../pic32c/lib/arm/v7-a+simd/hard\libc-musl.a(__pop_float.o)
 .debug_abbrev  0x000092e5       0xbd c:/program files/microchip/xc32/v4.10/bin/bin/../../lib/gcc/pic32c/8.3.1/../../../../pic32c/lib/arm/v7-a+simd/hard\libc-musl.a(__pop_int.o)
 .debug_abbrev  0x000093a2       0xce c:/program files/microchip/xc32/v4.10/bin/bin/../../lib/gcc/pic32c/8.3.1/../../../../pic32c/lib/arm/v7-a+simd/hard\libc-musl.a(__pop_ptr.o)
 .debug_abbrev  0x00009470       0x8e c:/program files/microchip/xc32/v4.10/bin/bin/../../lib/gcc/pic32c/8.3.1/../../../../pic32c/lib/arm/v7-a+simd/hard\libc-musl.a(strcpy.o)
 .debug_abbrev  0x000094fe       0xfd c:/program files/microchip/xc32/v4.10/bin/bin/../../lib/gcc/pic32c/8.3.1/../../../../pic32c/lib/arm/v7-a+simd/hard\libc-musl.a(toupper.o)
 .debug_abbrev  0x000095fb       0x63 c:/program files/microchip/xc32/v4.10/bin/bin/../../lib/gcc/pic32c/8.3.1/../../../../pic32c/lib/arm/v7-a+simd/hard\libc-musl.a(stpcpy.o)
 .debug_abbrev  0x0000965e       0xf7 c:/program files/microchip/xc32/v4.10/bin/bin/../../lib/gcc/pic32c/8.3.1/../../../../pic32c/lib/arm/v7-a+simd/hard\libm-musl.a(floor.o)
 .debug_abbrev  0x00009755      0x23d c:/program files/microchip/xc32/v4.10/bin/bin/../../lib/gcc/pic32c/8.3.1/../../../../pic32c/lib/arm/v7-a+simd/hard\libm-musl.a(fma.o)
 .debug_abbrev  0x00009992       0xa1 c:/program files/microchip/xc32/v4.10/bin/bin/../../lib/gcc/pic32c/8.3.1/../../../../pic32c/lib/arm/v7-a+simd/hard\libm-musl.a(scalbn.o)
 .debug_abbrev  0x00009a33       0x2e c:/program files/microchip/xc32/v4.10/bin/bin/../../lib/gcc/pic32c/8.3.1/../../../../pic32c/lib/arm/v7-a+simd/hard\libpic32c.a(sbrk.o)
 .debug_abbrev  0x00009a61       0x14 c:/program files/microchip/xc32/v4.10/bin/bin/../../lib/gcc/pic32c/8.3.1/arm/v7-a+simd/hard\libgcc.a(_arm_addsubdf3.o)
 .debug_abbrev  0x00009a75       0x14 c:/program files/microchip/xc32/v4.10/bin/bin/../../lib/gcc/pic32c/8.3.1/arm/v7-a+simd/hard\libgcc.a(_aeabi_ldivmod.o)

.debug_loc      0x00000000    0x20fd6
 .debug_loc     0x00000000     0x2541 build/sam_a5d27_som1_winc3400/production/_ext/1279932671/drv_spi.o
 .debug_loc     0x00002541      0x196 build/sam_a5d27_som1_winc3400/production/_ext/1407615473/wdrv_winc_eint.o
 .debug_loc     0x000026d7      0x61d build/sam_a5d27_som1_winc3400/production/_ext/1846510740/wdrv_winc_spi.o
 .debug_loc     0x00002cf4      0x2a9 build/sam_a5d27_som1_winc3400/production/_ext/1941162184/nm_common.o
 .debug_loc     0x00002f9d     0x1651 build/sam_a5d27_som1_winc3400/production/_ext/1909873291/nmspi.o
 .debug_loc     0x000045ee      0x53e build/sam_a5d27_som1_winc3400/production/_ext/1909873291/nmdrv.o
 .debug_loc     0x00004b2c      0x755 build/sam_a5d27_som1_winc3400/production/_ext/1909873291/m2m_ota.o
 .debug_loc     0x00005281      0xd4d build/sam_a5d27_som1_winc3400/production/_ext/1909873291/m2m_ssl.o
 .debug_loc     0x00005fce     0x10d2 build/sam_a5d27_som1_winc3400/production/_ext/1909873291/m2m_hif.o
 .debug_loc     0x000070a0      0xea1 build/sam_a5d27_som1_winc3400/production/_ext/1909873291/nmasic.o
 .debug_loc     0x00007f41      0x556 build/sam_a5d27_som1_winc3400/production/_ext/1909873291/nmbus.o
 .debug_loc     0x00008497     0x40b4 build/sam_a5d27_som1_winc3400/production/_ext/1909873291/m2m_wifi.o
 .debug_loc     0x0000c54b      0x3bb build/sam_a5d27_som1_winc3400/production/_ext/1483395904/inet_ntop.o
 .debug_loc     0x0000c906     0x28cf build/sam_a5d27_som1_winc3400/production/_ext/1483395904/socket.o
 .debug_loc     0x0000f1d5       0x5d build/sam_a5d27_som1_winc3400/production/_ext/973425813/wdrv_winc_osal.o
 .debug_loc     0x0000f232      0x74a build/sam_a5d27_som1_winc3400/production/_ext/237603529/wdrv_winc_systime.o
 .debug_loc     0x0000f97c      0xa12 build/sam_a5d27_som1_winc3400/production/_ext/237603529/wdrv_winc_sta.o
 .debug_loc     0x0001038e      0x4d6 build/sam_a5d27_som1_winc3400/production/_ext/237603529/wdrv_winc_bssctx.o
 .debug_loc     0x00010864     0x1101 build/sam_a5d27_som1_winc3400/production/_ext/237603529/wdrv_winc_bssfind.o
 .debug_loc     0x00011965     0x144d build/sam_a5d27_som1_winc3400/production/_ext/237603529/wdrv_winc_socket.o
 .debug_loc     0x00012db2     0x2069 build/sam_a5d27_som1_winc3400/production/_ext/237603529/wdrv_winc.o
 .debug_loc     0x00014e1b      0xa85 build/sam_a5d27_som1_winc3400/production/_ext/237603529/wdrv_winc_authctx.o
 .debug_loc     0x000158a0      0x162 build/sam_a5d27_som1_winc3400/production/_ext/883939571/plib_aic.o
 .debug_loc     0x00015a02      0x525 build/sam_a5d27_som1_winc3400/production/_ext/1895127654/plib_flexcom4_spi_master.o
 .debug_loc     0x00015f27       0x67 build/sam_a5d27_som1_winc3400/production/_ext/662486865/plib_matrix.o
 .debug_loc     0x00015f8e      0x1f4 build/sam_a5d27_som1_winc3400/production/_ext/883927897/plib_mmu.o
 .debug_loc     0x00016182      0x310 build/sam_a5d27_som1_winc3400/production/_ext/883925144/plib_pio.o
 .debug_loc     0x00016492       0x66 build/sam_a5d27_som1_winc3400/production/_ext/941317725/plib_tc0.o
 .debug_loc     0x000164f8      0x89d build/sam_a5d27_som1_winc3400/production/_ext/1631734212/plib_uart1.o
 .debug_loc     0x00016d95      0x37b build/sam_a5d27_som1_winc3400/production/_ext/958701621/plib_xdmac0.o
 .debug_loc     0x00017110      0x9b6 build/sam_a5d27_som1_winc3400/production/_ext/1006343247/sys_console_uart.o
 .debug_loc     0x00017ac6      0xc5e build/sam_a5d27_som1_winc3400/production/_ext/1006343247/sys_console.o
 .debug_loc     0x00018724       0xa1 build/sam_a5d27_som1_winc3400/production/_ext/100066323/sys_debug.o
 .debug_loc     0x000187c5      0x1a9 build/sam_a5d27_som1_winc3400/production/_ext/775042947/sys_dma.o
 .debug_loc     0x0001896e      0x55c build/sam_a5d27_som1_winc3400/production/_ext/937565385/sys_int.o
 .debug_loc     0x00018eca     0x22e6 build/sam_a5d27_som1_winc3400/production/_ext/695691069/sys_time.o
 .debug_loc     0x0001b1b0       0x45 build/sam_a5d27_som1_winc3400/production/_ext/1420774346/initialization.o
 .debug_loc     0x0001b1f5       0x20 build/sam_a5d27_som1_winc3400/production/_ext/1420774346/tasks.o
 .debug_loc     0x0001b215       0x20 build/sam_a5d27_som1_winc3400/production/_ext/1360937237/app.o
 .debug_loc     0x0001b235       0x20 build/sam_a5d27_som1_winc3400/production/_ext/1360937237/main.o
 .debug_loc     0x0001b255      0x306 build/sam_a5d27_som1_winc3400/production/_ext/1360937237/example.o
 .debug_loc     0x0001b55b      0x235 c:/program files/microchip/xc32/v4.10/bin/bin/../../lib/gcc/pic32c/8.3.1/arm/v7-a+simd/hard\libgcc.a(_udivmoddi4.o)
 .debug_loc     0x0001b790       0x51 c:/program files/microchip/xc32/v4.10/bin/bin/../../lib/gcc/pic32c/8.3.1/../../../../pic32c/lib/arm/v7-a+simd/hard\libc-musl.a(__libc_start_main.o)
 .debug_loc     0x0001b7e1      0xbbf c:/program files/microchip/xc32/v4.10/bin/bin/../../lib/gcc/pic32c/8.3.1/../../../../pic32c/lib/arm/v7-a+simd/hard\libc-musl.a(malloc.o)
 .debug_loc     0x0001c3a0       0x8b c:/program files/microchip/xc32/v4.10/bin/bin/../../lib/gcc/pic32c/8.3.1/../../../../pic32c/lib/arm/v7-a+simd/hard\libc-musl.a(expand_heap.o)
 .debug_loc     0x0001c42b       0xeb c:/program files/microchip/xc32/v4.10/bin/bin/../../lib/gcc/pic32c/8.3.1/../../../../pic32c/lib/arm/v7-a+simd/hard\libc-musl.a(vsnprintf.o)
 .debug_loc     0x0001c516      0x12b c:/program files/microchip/xc32/v4.10/bin/bin/../../lib/gcc/pic32c/8.3.1/../../../../pic32c/lib/arm/v7-a+simd/hard\libc-musl.a(memcmp.o)
 .debug_loc     0x0001c641       0x9a c:/program files/microchip/xc32/v4.10/bin/bin/../../lib/gcc/pic32c/8.3.1/../../../../pic32c/lib/arm/v7-a+simd/hard\libc-musl.a(memcpy.o)
 .debug_loc     0x0001c6db       0x56 c:/program files/microchip/xc32/v4.10/bin/bin/../../lib/gcc/pic32c/8.3.1/../../../../pic32c/lib/arm/v7-a+simd/hard\libc-musl.a(memset.o)
 .debug_loc     0x0001c731       0x47 c:/program files/microchip/xc32/v4.10/bin/bin/../../lib/gcc/pic32c/8.3.1/../../../../pic32c/lib/arm/v7-a+simd/hard\libc-musl.a(strlen.o)
 .debug_loc     0x0001c778       0x8c c:/program files/microchip/xc32/v4.10/bin/bin/../../lib/gcc/pic32c/8.3.1/../../../../pic32c/lib/arm/v7-a+simd/hard\libc-musl.a(strchr.o)
 .debug_loc     0x0001c804      0x17b c:/program files/microchip/xc32/v4.10/bin/bin/../../lib/gcc/pic32c/8.3.1/../../../../pic32c/lib/arm/v7-a+simd/hard\libc-musl.a(strchrnul.o)
 .debug_loc     0x0001c97f       0x68 c:/program files/microchip/xc32/v4.10/bin/bin/../../lib/gcc/pic32c/8.3.1/../../../../pic32c/lib/arm/v7-a+simd/hard\libc-musl.a(mktime.o)
 .debug_loc     0x0001c9e7       0x88 c:/program files/microchip/xc32/v4.10/bin/bin/../../lib/gcc/pic32c/8.3.1/../../../../pic32c/lib/arm/v7-a+simd/hard\libc-musl.a(vfprintf.o)
 .debug_loc     0x0001ca6f       0xe0 c:/program files/microchip/xc32/v4.10/bin/bin/../../lib/gcc/pic32c/8.3.1/../../../../pic32c/lib/arm/v7-a+simd/hard\libc-musl.a(__tm_to_secs.o)
 .debug_loc     0x0001cb4f      0x25d c:/program files/microchip/xc32/v4.10/bin/bin/../../lib/gcc/pic32c/8.3.1/../../../../pic32c/lib/arm/v7-a+simd/hard\libc-musl.a(__year_to_secs.o)
 .debug_loc     0x0001cdac      0x2ba c:/program files/microchip/xc32/v4.10/bin/bin/../../lib/gcc/pic32c/8.3.1/../../../../pic32c/lib/arm/v7-a+simd/hard\libc-musl.a(__secs_to_tm.o)
 .debug_loc     0x0001d066      0x5ff c:/program files/microchip/xc32/v4.10/bin/bin/../../lib/gcc/pic32c/8.3.1/../../../../pic32c/lib/arm/v7-a+simd/hard\libc-musl.a(__printf_core.o)
 .debug_loc     0x0001d665       0xae c:/program files/microchip/xc32/v4.10/bin/bin/../../lib/gcc/pic32c/8.3.1/../../../../pic32c/lib/arm/v7-a+simd/hard\libc-musl.a(atoi.o)
 .debug_loc     0x0001d713       0x5d c:/program files/microchip/xc32/v4.10/bin/bin/../../lib/gcc/pic32c/8.3.1/../../../../pic32c/lib/arm/v7-a+simd/hard\libc-musl.a(__month_to_secs.o)
 .debug_loc     0x0001d770       0x4a c:/program files/microchip/xc32/v4.10/bin/bin/../../lib/gcc/pic32c/8.3.1/../../../../pic32c/lib/arm/v7-a+simd/hard\libc-musl.a(tolower.o)
 .debug_loc     0x0001d7ba      0xb9c c:/program files/microchip/xc32/v4.10/bin/bin/../../lib/gcc/pic32c/8.3.1/../../../../pic32c/lib/arm/v7-a+simd/hard\libc-musl.a(__fmt_a.o)
 .debug_loc     0x0001e356      0x1cf c:/program files/microchip/xc32/v4.10/bin/bin/../../lib/gcc/pic32c/8.3.1/../../../../pic32c/lib/arm/v7-a+simd/hard\libc-musl.a(__fmt_d.o)
 .debug_loc     0x0001e525      0xba2 c:/program files/microchip/xc32/v4.10/bin/bin/../../lib/gcc/pic32c/8.3.1/../../../../pic32c/lib/arm/v7-a+simd/hard\libc-musl.a(__fmt_fp.o)
 .debug_loc     0x0001f0c7      0x10a c:/program files/microchip/xc32/v4.10/bin/bin/../../lib/gcc/pic32c/8.3.1/../../../../pic32c/lib/arm/v7-a+simd/hard\libc-musl.a(__fmt_o.o)
 .debug_loc     0x0001f1d1      0x1c2 c:/program files/microchip/xc32/v4.10/bin/bin/../../lib/gcc/pic32c/8.3.1/../../../../pic32c/lib/arm/v7-a+simd/hard\libc-musl.a(__fmt_s.o)
 .debug_loc     0x0001f393      0x27d c:/program files/microchip/xc32/v4.10/bin/bin/../../lib/gcc/pic32c/8.3.1/../../../../pic32c/lib/arm/v7-a+simd/hard\libc-musl.a(__fmt_u.o)
 .debug_loc     0x0001f610      0x25c c:/program files/microchip/xc32/v4.10/bin/bin/../../lib/gcc/pic32c/8.3.1/../../../../pic32c/lib/arm/v7-a+simd/hard\libc-musl.a(__fmt_x.o)
 .debug_loc     0x0001f86c       0xa6 c:/program files/microchip/xc32/v4.10/bin/bin/../../lib/gcc/pic32c/8.3.1/../../../../pic32c/lib/arm/v7-a+simd/hard\libc-musl.a(__pop_float.o)
 .debug_loc     0x0001f912      0x2c6 c:/program files/microchip/xc32/v4.10/bin/bin/../../lib/gcc/pic32c/8.3.1/../../../../pic32c/lib/arm/v7-a+simd/hard\libc-musl.a(__pop_int.o)
 .debug_loc     0x0001fbd8      0x181 c:/program files/microchip/xc32/v4.10/bin/bin/../../lib/gcc/pic32c/8.3.1/../../../../pic32c/lib/arm/v7-a+simd/hard\libc-musl.a(__pop_ptr.o)
 .debug_loc     0x0001fd59       0x67 c:/program files/microchip/xc32/v4.10/bin/bin/../../lib/gcc/pic32c/8.3.1/../../../../pic32c/lib/arm/v7-a+simd/hard\libc-musl.a(strcpy.o)
 .debug_loc     0x0001fdc0       0x4a c:/program files/microchip/xc32/v4.10/bin/bin/../../lib/gcc/pic32c/8.3.1/../../../../pic32c/lib/arm/v7-a+simd/hard\libc-musl.a(toupper.o)
 .debug_loc     0x0001fe0a       0x60 c:/program files/microchip/xc32/v4.10/bin/bin/../../lib/gcc/pic32c/8.3.1/../../../../pic32c/lib/arm/v7-a+simd/hard\libc-musl.a(stpcpy.o)
 .debug_loc     0x0001fe6a      0x144 c:/program files/microchip/xc32/v4.10/bin/bin/../../lib/gcc/pic32c/8.3.1/../../../../pic32c/lib/arm/v7-a+simd/hard\libm-musl.a(floor.o)
 .debug_loc     0x0001ffae      0xe69 c:/program files/microchip/xc32/v4.10/bin/bin/../../lib/gcc/pic32c/8.3.1/../../../../pic32c/lib/arm/v7-a+simd/hard\libm-musl.a(fma.o)
 .debug_loc     0x00020e17      0x1bf c:/program files/microchip/xc32/v4.10/bin/bin/../../lib/gcc/pic32c/8.3.1/../../../../pic32c/lib/arm/v7-a+simd/hard\libm-musl.a(scalbn.o)

.debug_aranges  0x00000000     0x1970
 .debug_aranges
                0x00000000       0xb8 build/sam_a5d27_som1_winc3400/production/_ext/1279932671/drv_spi.o
 .debug_aranges
                0x000000b8       0x38 build/sam_a5d27_som1_winc3400/production/_ext/1407615473/wdrv_winc_gpio.o
 .debug_aranges
                0x000000f0       0x28 build/sam_a5d27_som1_winc3400/production/_ext/1407615473/wdrv_winc_eint.o
 .debug_aranges
                0x00000118       0x48 build/sam_a5d27_som1_winc3400/production/_ext/1846510740/wdrv_winc_spi.o
 .debug_aranges
                0x00000160       0x30 build/sam_a5d27_som1_winc3400/production/_ext/1941162184/nm_common.o
 .debug_aranges
                0x00000190       0x80 build/sam_a5d27_som1_winc3400/production/_ext/1909873291/nmspi.o
 .debug_aranges
                0x00000210       0x68 build/sam_a5d27_som1_winc3400/production/_ext/1909873291/nmdrv.o
 .debug_aranges
                0x00000278       0x58 build/sam_a5d27_som1_winc3400/production/_ext/1909873291/m2m_ota.o
 .debug_aranges
                0x000002d0       0x70 build/sam_a5d27_som1_winc3400/production/_ext/1909873291/m2m_ssl.o
 .debug_aranges
                0x00000340       0x90 build/sam_a5d27_som1_winc3400/production/_ext/1909873291/m2m_hif.o
 .debug_aranges
                0x000003d0       0xd0 build/sam_a5d27_som1_winc3400/production/_ext/1909873291/nmasic.o
 .debug_aranges
                0x000004a0       0x60 build/sam_a5d27_som1_winc3400/production/_ext/1909873291/nmbus.o
 .debug_aranges
                0x00000500      0x290 build/sam_a5d27_som1_winc3400/production/_ext/1909873291/m2m_wifi.o
 .debug_aranges
                0x00000790       0x20 build/sam_a5d27_som1_winc3400/production/_ext/1483395904/inet_ntop.o
 .debug_aranges
                0x000007b0       0xe0 build/sam_a5d27_som1_winc3400/production/_ext/1483395904/socket.o
 .debug_aranges
                0x00000890       0x20 build/sam_a5d27_som1_winc3400/production/_ext/973425813/wdrv_winc_osal.o
 .debug_aranges
                0x000008b0       0x48 build/sam_a5d27_som1_winc3400/production/_ext/237603529/wdrv_winc_systime.o
 .debug_aranges
                0x000008f8       0x40 build/sam_a5d27_som1_winc3400/production/_ext/237603529/wdrv_winc_sta.o
 .debug_aranges
                0x00000938       0x48 build/sam_a5d27_som1_winc3400/production/_ext/237603529/wdrv_winc_bssctx.o
 .debug_aranges
                0x00000980       0x68 build/sam_a5d27_som1_winc3400/production/_ext/237603529/wdrv_winc_bssfind.o
 .debug_aranges
                0x000009e8       0x98 build/sam_a5d27_som1_winc3400/production/_ext/237603529/wdrv_winc_socket.o
 .debug_aranges
                0x00000a80       0xd8 build/sam_a5d27_som1_winc3400/production/_ext/237603529/wdrv_winc.o
 .debug_aranges
                0x00000b58       0x48 build/sam_a5d27_som1_winc3400/production/_ext/237603529/wdrv_winc_authctx.o
 .debug_aranges
                0x00000ba0       0x38 build/sam_a5d27_som1_winc3400/production/_ext/883939571/plib_aic.o
 .debug_aranges
                0x00000bd8       0x20 build/sam_a5d27_som1_winc3400/production/_ext/883937548/plib_clk.o
 .debug_aranges
                0x00000bf8       0x60 build/sam_a5d27_som1_winc3400/production/_ext/1895127654/plib_flexcom4_spi_master.o
 .debug_aranges
                0x00000c58       0x20 build/sam_a5d27_som1_winc3400/production/_ext/662486865/plib_matrix.o
 .debug_aranges
                0x00000c78       0x38 build/sam_a5d27_som1_winc3400/production/_ext/883927897/plib_mmu.o
 .debug_aranges
                0x00000cb0       0x80 build/sam_a5d27_som1_winc3400/production/_ext/883925144/plib_pio.o
 .debug_aranges
                0x00000d30       0x70 build/sam_a5d27_som1_winc3400/production/_ext/941317725/plib_tc0.o
 .debug_aranges
                0x00000da0       0xb8 build/sam_a5d27_som1_winc3400/production/_ext/1631734212/plib_uart1.o
 .debug_aranges
                0x00000e58       0x78 build/sam_a5d27_som1_winc3400/production/_ext/958701621/plib_xdmac0.o
 .debug_aranges
                0x00000ed0       0x68 build/sam_a5d27_som1_winc3400/production/_ext/1006343247/sys_console_uart.o
 .debug_aranges
                0x00000f38       0x88 build/sam_a5d27_som1_winc3400/production/_ext/1006343247/sys_console.o
 .debug_aranges
                0x00000fc0       0x48 build/sam_a5d27_som1_winc3400/production/_ext/100066323/sys_debug.o
 .debug_aranges
                0x00001008       0x28 build/sam_a5d27_som1_winc3400/production/_ext/775042947/sys_dma.o
 .debug_aranges
                0x00001030       0x70 build/sam_a5d27_som1_winc3400/production/_ext/937565385/sys_int.o
 .debug_aranges
                0x000010a0      0x120 build/sam_a5d27_som1_winc3400/production/_ext/695691069/sys_time.o
 .debug_aranges
                0x000011c0       0x20 build/sam_a5d27_som1_winc3400/production/_ext/1420774346/initialization.o
 .debug_aranges
                0x000011e0       0x38 build/sam_a5d27_som1_winc3400/production/_ext/1420774346/fault_handlers.o
 .debug_aranges
                0x00001218       0x30 build/sam_a5d27_som1_winc3400/production/_ext/1420774346/cstartup.o
 .debug_aranges
                0x00001248       0x20 build/sam_a5d27_som1_winc3400/production/_ext/1420774346/tasks.o
 .debug_aranges
                0x00001268       0x30 build/sam_a5d27_som1_winc3400/production/_ext/1420774346/interrupts.o
 .debug_aranges
                0x00001298       0x28 build/sam_a5d27_som1_winc3400/production/_ext/1360937237/app.o
 .debug_aranges
                0x000012c0       0x20 build/sam_a5d27_som1_winc3400/production/_ext/1360937237/main.o
 .debug_aranges
                0x000012e0       0x38 build/sam_a5d27_som1_winc3400/production/_ext/1360937237/example.o
 .debug_aranges
                0x00001318       0x20 c:/program files/microchip/xc32/v4.10/bin/bin/../../lib/gcc/pic32c/8.3.1/arm/v7-a+simd/hard\libgcc.a(_udivsi3.o)
 .debug_aranges
                0x00001338       0x20 c:/program files/microchip/xc32/v4.10/bin/bin/../../lib/gcc/pic32c/8.3.1/arm/v7-a+simd/hard\libgcc.a(_divsi3.o)
 .debug_aranges
                0x00001358       0x20 c:/program files/microchip/xc32/v4.10/bin/bin/../../lib/gcc/pic32c/8.3.1/arm/v7-a+simd/hard\libgcc.a(_dvmd_tls.o)
 .debug_aranges
                0x00001378       0x20 c:/program files/microchip/xc32/v4.10/bin/bin/../../lib/gcc/pic32c/8.3.1/arm/v7-a+simd/hard\libgcc.a(_aeabi_uldivmod.o)
 .debug_aranges
                0x00001398       0x20 c:/program files/microchip/xc32/v4.10/bin/bin/../../lib/gcc/pic32c/8.3.1/arm/v7-a+simd/hard\libgcc.a(_udivmoddi4.o)
 .debug_aranges
                0x000013b8       0x28 c:/program files/microchip/xc32/v4.10/bin/bin/../../lib/gcc/pic32c/8.3.1/../../../../pic32c/lib/arm/v7-a+simd/hard\libc-musl.a(__libc_start_main.o)
 .debug_aranges
                0x000013e0       0x18 c:/program files/microchip/xc32/v4.10/bin/bin/../../lib/gcc/pic32c/8.3.1/../../../../pic32c/lib/arm/v7-a+simd/hard\libc-musl.a(libc.o)
 .debug_aranges
                0x000013f8       0x70 c:/program files/microchip/xc32/v4.10/bin/bin/../../lib/gcc/pic32c/8.3.1/../../../../pic32c/lib/arm/v7-a+simd/hard\libc-musl.a(malloc.o)
 .debug_aranges
                0x00001468       0x20 c:/program files/microchip/xc32/v4.10/bin/bin/../../lib/gcc/pic32c/8.3.1/../../../../pic32c/lib/arm/v7-a+simd/hard\libc-musl.a(expand_heap.o)
 .debug_aranges
                0x00001488       0x20 c:/program files/microchip/xc32/v4.10/bin/bin/../../lib/gcc/pic32c/8.3.1/../../../../pic32c/lib/arm/v7-a+simd/hard\libc-musl.a(vsnprintf.o)
 .debug_aranges
                0x000014a8       0x20 c:/program files/microchip/xc32/v4.10/bin/bin/../../lib/gcc/pic32c/8.3.1/../../../../pic32c/lib/arm/v7-a+simd/hard\libc-musl.a(memcmp.o)
 .debug_aranges
                0x000014c8       0x20 c:/program files/microchip/xc32/v4.10/bin/bin/../../lib/gcc/pic32c/8.3.1/../../../../pic32c/lib/arm/v7-a+simd/hard\libc-musl.a(memcpy.o)
 .debug_aranges
                0x000014e8       0x20 c:/program files/microchip/xc32/v4.10/bin/bin/../../lib/gcc/pic32c/8.3.1/../../../../pic32c/lib/arm/v7-a+simd/hard\libc-musl.a(memset.o)
 .debug_aranges
                0x00001508       0x20 c:/program files/microchip/xc32/v4.10/bin/bin/../../lib/gcc/pic32c/8.3.1/../../../../pic32c/lib/arm/v7-a+simd/hard\libc-musl.a(strlen.o)
 .debug_aranges
                0x00001528       0x20 c:/program files/microchip/xc32/v4.10/bin/bin/../../lib/gcc/pic32c/8.3.1/../../../../pic32c/lib/arm/v7-a+simd/hard\libc-musl.a(strchr.o)
 .debug_aranges
                0x00001548       0x20 c:/program files/microchip/xc32/v4.10/bin/bin/../../lib/gcc/pic32c/8.3.1/../../../../pic32c/lib/arm/v7-a+simd/hard\libc-musl.a(strchrnul.o)
 .debug_aranges
                0x00001568       0x20 c:/program files/microchip/xc32/v4.10/bin/bin/../../lib/gcc/pic32c/8.3.1/../../../../pic32c/lib/arm/v7-a+simd/hard\libc-musl.a(mktime.o)
 .debug_aranges
                0x00001588       0x18 c:/program files/microchip/xc32/v4.10/bin/bin/../../lib/gcc/pic32c/8.3.1/../../../../pic32c/lib/arm/v7-a+simd/hard\libc-musl.a(__environ.o)
 .debug_aranges
                0x000015a0       0x18 c:/program files/microchip/xc32/v4.10/bin/bin/../../lib/gcc/pic32c/8.3.1/../../../../pic32c/lib/arm/v7-a+simd/hard\libc-musl.a(__errno_location.o)
 .debug_aranges
                0x000015b8       0x28 c:/program files/microchip/xc32/v4.10/bin/bin/../../lib/gcc/pic32c/8.3.1/../../../../pic32c/lib/arm/v7-a+simd/hard\libc-musl.a(vfprintf.o)
 .debug_aranges
                0x000015e0       0x20 c:/program files/microchip/xc32/v4.10/bin/bin/../../lib/gcc/pic32c/8.3.1/../../../../pic32c/lib/arm/v7-a+simd/hard\libc-musl.a(__tm_to_secs.o)
 .debug_aranges
                0x00001600       0x20 c:/program files/microchip/xc32/v4.10/bin/bin/../../lib/gcc/pic32c/8.3.1/../../../../pic32c/lib/arm/v7-a+simd/hard\libc-musl.a(__year_to_secs.o)
 .debug_aranges
                0x00001620       0x20 c:/program files/microchip/xc32/v4.10/bin/bin/../../lib/gcc/pic32c/8.3.1/../../../../pic32c/lib/arm/v7-a+simd/hard\libc-musl.a(__secs_to_tm.o)
 .debug_aranges
                0x00001640       0x50 c:/program files/microchip/xc32/v4.10/bin/bin/../../lib/gcc/pic32c/8.3.1/../../../../pic32c/lib/arm/v7-a+simd/hard\libc-musl.a(__printf_core.o)
 .debug_aranges
                0x00001690       0x20 c:/program files/microchip/xc32/v4.10/bin/bin/../../lib/gcc/pic32c/8.3.1/../../../../pic32c/lib/arm/v7-a+simd/hard\libc-musl.a(atoi.o)
 .debug_aranges
                0x000016b0       0x20 c:/program files/microchip/xc32/v4.10/bin/bin/../../lib/gcc/pic32c/8.3.1/../../../../pic32c/lib/arm/v7-a+simd/hard\libc-musl.a(__month_to_secs.o)
 .debug_aranges
                0x000016d0       0x28 c:/program files/microchip/xc32/v4.10/bin/bin/../../lib/gcc/pic32c/8.3.1/../../../../pic32c/lib/arm/v7-a+simd/hard\libc-musl.a(tolower.o)
 .debug_aranges
                0x000016f8       0x20 c:/program files/microchip/xc32/v4.10/bin/bin/../../lib/gcc/pic32c/8.3.1/../../../../pic32c/lib/arm/v7-a+simd/hard\libc-musl.a(__fmt_a.o)
 .debug_aranges
                0x00001718       0x20 c:/program files/microchip/xc32/v4.10/bin/bin/../../lib/gcc/pic32c/8.3.1/../../../../pic32c/lib/arm/v7-a+simd/hard\libc-musl.a(__fmt_d.o)
 .debug_aranges
                0x00001738       0x20 c:/program files/microchip/xc32/v4.10/bin/bin/../../lib/gcc/pic32c/8.3.1/../../../../pic32c/lib/arm/v7-a+simd/hard\libc-musl.a(__fmt_fp.o)
 .debug_aranges
                0x00001758       0x20 c:/program files/microchip/xc32/v4.10/bin/bin/../../lib/gcc/pic32c/8.3.1/../../../../pic32c/lib/arm/v7-a+simd/hard\libc-musl.a(__fmt_o.o)
 .debug_aranges
                0x00001778       0x20 c:/program files/microchip/xc32/v4.10/bin/bin/../../lib/gcc/pic32c/8.3.1/../../../../pic32c/lib/arm/v7-a+simd/hard\libc-musl.a(__fmt_s.o)
 .debug_aranges
                0x00001798       0x28 c:/program files/microchip/xc32/v4.10/bin/bin/../../lib/gcc/pic32c/8.3.1/../../../../pic32c/lib/arm/v7-a+simd/hard\libc-musl.a(__fmt_u.o)
 .debug_aranges
                0x000017c0       0x20 c:/program files/microchip/xc32/v4.10/bin/bin/../../lib/gcc/pic32c/8.3.1/../../../../pic32c/lib/arm/v7-a+simd/hard\libc-musl.a(__fmt_x.o)
 .debug_aranges
                0x000017e0       0x20 c:/program files/microchip/xc32/v4.10/bin/bin/../../lib/gcc/pic32c/8.3.1/../../../../pic32c/lib/arm/v7-a+simd/hard\libc-musl.a(__pop_float.o)
 .debug_aranges
                0x00001800       0x20 c:/program files/microchip/xc32/v4.10/bin/bin/../../lib/gcc/pic32c/8.3.1/../../../../pic32c/lib/arm/v7-a+simd/hard\libc-musl.a(__pop_int.o)
 .debug_aranges
                0x00001820       0x20 c:/program files/microchip/xc32/v4.10/bin/bin/../../lib/gcc/pic32c/8.3.1/../../../../pic32c/lib/arm/v7-a+simd/hard\libc-musl.a(__pop_ptr.o)
 .debug_aranges
                0x00001840       0x20 c:/program files/microchip/xc32/v4.10/bin/bin/../../lib/gcc/pic32c/8.3.1/../../../../pic32c/lib/arm/v7-a+simd/hard\libc-musl.a(strcpy.o)
 .debug_aranges
                0x00001860       0x28 c:/program files/microchip/xc32/v4.10/bin/bin/../../lib/gcc/pic32c/8.3.1/../../../../pic32c/lib/arm/v7-a+simd/hard\libc-musl.a(toupper.o)
 .debug_aranges
                0x00001888       0x20 c:/program files/microchip/xc32/v4.10/bin/bin/../../lib/gcc/pic32c/8.3.1/../../../../pic32c/lib/arm/v7-a+simd/hard\libc-musl.a(stpcpy.o)
 .debug_aranges
                0x000018a8       0x20 c:/program files/microchip/xc32/v4.10/bin/bin/../../lib/gcc/pic32c/8.3.1/../../../../pic32c/lib/arm/v7-a+simd/hard\libm-musl.a(floor.o)
 .debug_aranges
                0x000018c8       0x28 c:/program files/microchip/xc32/v4.10/bin/bin/../../lib/gcc/pic32c/8.3.1/../../../../pic32c/lib/arm/v7-a+simd/hard\libm-musl.a(fma.o)
 .debug_aranges
                0x000018f0       0x20 c:/program files/microchip/xc32/v4.10/bin/bin/../../lib/gcc/pic32c/8.3.1/../../../../pic32c/lib/arm/v7-a+simd/hard\libm-musl.a(scalbn.o)
 .debug_aranges
                0x00001910       0x20 c:/program files/microchip/xc32/v4.10/bin/bin/../../lib/gcc/pic32c/8.3.1/../../../../pic32c/lib/arm/v7-a+simd/hard\libpic32c.a(sbrk.o)
 .debug_aranges
                0x00001930       0x20 c:/program files/microchip/xc32/v4.10/bin/bin/../../lib/gcc/pic32c/8.3.1/arm/v7-a+simd/hard\libgcc.a(_arm_addsubdf3.o)
 .debug_aranges
                0x00001950       0x20 c:/program files/microchip/xc32/v4.10/bin/bin/../../lib/gcc/pic32c/8.3.1/arm/v7-a+simd/hard\libgcc.a(_aeabi_ldivmod.o)

.debug_ranges   0x00000000     0x2108
 .debug_ranges  0x00000000      0x190 build/sam_a5d27_som1_winc3400/production/_ext/1279932671/drv_spi.o
 .debug_ranges  0x00000190       0x28 build/sam_a5d27_som1_winc3400/production/_ext/1407615473/wdrv_winc_gpio.o
 .debug_ranges  0x000001b8       0x18 build/sam_a5d27_som1_winc3400/production/_ext/1407615473/wdrv_winc_eint.o
 .debug_ranges  0x000001d0       0x68 build/sam_a5d27_som1_winc3400/production/_ext/1846510740/wdrv_winc_spi.o
 .debug_ranges  0x00000238       0x70 build/sam_a5d27_som1_winc3400/production/_ext/1941162184/nm_common.o
 .debug_ranges  0x000002a8      0x228 build/sam_a5d27_som1_winc3400/production/_ext/1909873291/nmspi.o
 .debug_ranges  0x000004d0       0x58 build/sam_a5d27_som1_winc3400/production/_ext/1909873291/nmdrv.o
 .debug_ranges  0x00000528       0x60 build/sam_a5d27_som1_winc3400/production/_ext/1909873291/m2m_ota.o
 .debug_ranges  0x00000588       0xb8 build/sam_a5d27_som1_winc3400/production/_ext/1909873291/m2m_ssl.o
 .debug_ranges  0x00000640      0x120 build/sam_a5d27_som1_winc3400/production/_ext/1909873291/m2m_hif.o
 .debug_ranges  0x00000760       0xd8 build/sam_a5d27_som1_winc3400/production/_ext/1909873291/nmasic.o
 .debug_ranges  0x00000838       0x80 build/sam_a5d27_som1_winc3400/production/_ext/1909873291/nmbus.o
 .debug_ranges  0x000008b8      0x340 build/sam_a5d27_som1_winc3400/production/_ext/1909873291/m2m_wifi.o
 .debug_ranges  0x00000bf8       0x10 build/sam_a5d27_som1_winc3400/production/_ext/1483395904/inet_ntop.o
 .debug_ranges  0x00000c08      0x200 build/sam_a5d27_som1_winc3400/production/_ext/1483395904/socket.o
 .debug_ranges  0x00000e08       0x10 build/sam_a5d27_som1_winc3400/production/_ext/973425813/wdrv_winc_osal.o
 .debug_ranges  0x00000e18       0x38 build/sam_a5d27_som1_winc3400/production/_ext/237603529/wdrv_winc_systime.o
 .debug_ranges  0x00000e50       0x78 build/sam_a5d27_som1_winc3400/production/_ext/237603529/wdrv_winc_sta.o
 .debug_ranges  0x00000ec8       0x50 build/sam_a5d27_som1_winc3400/production/_ext/237603529/wdrv_winc_bssctx.o
 .debug_ranges  0x00000f18       0x70 build/sam_a5d27_som1_winc3400/production/_ext/237603529/wdrv_winc_bssfind.o
 .debug_ranges  0x00000f88       0xa0 build/sam_a5d27_som1_winc3400/production/_ext/237603529/wdrv_winc_socket.o
 .debug_ranges  0x00001028      0x148 build/sam_a5d27_som1_winc3400/production/_ext/237603529/wdrv_winc.o
 .debug_ranges  0x00001170       0x88 build/sam_a5d27_som1_winc3400/production/_ext/237603529/wdrv_winc_authctx.o
 .debug_ranges  0x000011f8       0x70 build/sam_a5d27_som1_winc3400/production/_ext/883939571/plib_aic.o
 .debug_ranges  0x00001268       0x10 build/sam_a5d27_som1_winc3400/production/_ext/883937548/plib_clk.o
 .debug_ranges  0x00001278       0x50 build/sam_a5d27_som1_winc3400/production/_ext/1895127654/plib_flexcom4_spi_master.o
 .debug_ranges  0x000012c8       0x10 build/sam_a5d27_som1_winc3400/production/_ext/662486865/plib_matrix.o
 .debug_ranges  0x000012d8      0x118 build/sam_a5d27_som1_winc3400/production/_ext/883927897/plib_mmu.o
 .debug_ranges  0x000013f0       0x70 build/sam_a5d27_som1_winc3400/production/_ext/883925144/plib_pio.o
 .debug_ranges  0x00001460       0x60 build/sam_a5d27_som1_winc3400/production/_ext/941317725/plib_tc0.o
 .debug_ranges  0x000014c0      0x150 build/sam_a5d27_som1_winc3400/production/_ext/1631734212/plib_uart1.o
 .debug_ranges  0x00001610       0x68 build/sam_a5d27_som1_winc3400/production/_ext/958701621/plib_xdmac0.o
 .debug_ranges  0x00001678      0x1c0 build/sam_a5d27_som1_winc3400/production/_ext/1006343247/sys_console_uart.o
 .debug_ranges  0x00001838       0x90 build/sam_a5d27_som1_winc3400/production/_ext/1006343247/sys_console.o
 .debug_ranges  0x000018c8       0x38 build/sam_a5d27_som1_winc3400/production/_ext/100066323/sys_debug.o
 .debug_ranges  0x00001900       0x18 build/sam_a5d27_som1_winc3400/production/_ext/775042947/sys_dma.o
 .debug_ranges  0x00001918       0x98 build/sam_a5d27_som1_winc3400/production/_ext/937565385/sys_int.o
 .debug_ranges  0x000019b0      0x158 build/sam_a5d27_som1_winc3400/production/_ext/695691069/sys_time.o
 .debug_ranges  0x00001b08       0x10 build/sam_a5d27_som1_winc3400/production/_ext/1420774346/initialization.o
 .debug_ranges  0x00001b18       0x28 build/sam_a5d27_som1_winc3400/production/_ext/1420774346/fault_handlers.o
 .debug_ranges  0x00001b40       0x28 build/sam_a5d27_som1_winc3400/production/_ext/1420774346/cstartup.o
 .debug_ranges  0x00001b68       0x10 build/sam_a5d27_som1_winc3400/production/_ext/1420774346/tasks.o
 .debug_ranges  0x00001b78       0x20 build/sam_a5d27_som1_winc3400/production/_ext/1420774346/interrupts.o
 .debug_ranges  0x00001b98       0x18 build/sam_a5d27_som1_winc3400/production/_ext/1360937237/app.o
 .debug_ranges  0x00001bb0       0x10 build/sam_a5d27_som1_winc3400/production/_ext/1360937237/main.o
 .debug_ranges  0x00001bc0       0x28 build/sam_a5d27_som1_winc3400/production/_ext/1360937237/example.o
 .debug_ranges  0x00001be8       0x38 c:/program files/microchip/xc32/v4.10/bin/bin/../../lib/gcc/pic32c/8.3.1/../../../../pic32c/lib/arm/v7-a+simd/hard\libc-musl.a(__libc_start_main.o)
 .debug_ranges  0x00001c20      0x188 c:/program files/microchip/xc32/v4.10/bin/bin/../../lib/gcc/pic32c/8.3.1/../../../../pic32c/lib/arm/v7-a+simd/hard\libc-musl.a(malloc.o)
 .debug_ranges  0x00001da8       0x10 c:/program files/microchip/xc32/v4.10/bin/bin/../../lib/gcc/pic32c/8.3.1/../../../../pic32c/lib/arm/v7-a+simd/hard\libc-musl.a(expand_heap.o)
 .debug_ranges  0x00001db8       0x10 c:/program files/microchip/xc32/v4.10/bin/bin/../../lib/gcc/pic32c/8.3.1/../../../../pic32c/lib/arm/v7-a+simd/hard\libc-musl.a(vsnprintf.o)
 .debug_ranges  0x00001dc8       0x10 c:/program files/microchip/xc32/v4.10/bin/bin/../../lib/gcc/pic32c/8.3.1/../../../../pic32c/lib/arm/v7-a+simd/hard\libc-musl.a(memcmp.o)
 .debug_ranges  0x00001dd8       0x10 c:/program files/microchip/xc32/v4.10/bin/bin/../../lib/gcc/pic32c/8.3.1/../../../../pic32c/lib/arm/v7-a+simd/hard\libc-musl.a(memcpy.o)
 .debug_ranges  0x00001de8       0x10 c:/program files/microchip/xc32/v4.10/bin/bin/../../lib/gcc/pic32c/8.3.1/../../../../pic32c/lib/arm/v7-a+simd/hard\libc-musl.a(memset.o)
 .debug_ranges  0x00001df8       0x10 c:/program files/microchip/xc32/v4.10/bin/bin/../../lib/gcc/pic32c/8.3.1/../../../../pic32c/lib/arm/v7-a+simd/hard\libc-musl.a(strlen.o)
 .debug_ranges  0x00001e08       0x10 c:/program files/microchip/xc32/v4.10/bin/bin/../../lib/gcc/pic32c/8.3.1/../../../../pic32c/lib/arm/v7-a+simd/hard\libc-musl.a(strchr.o)
 .debug_ranges  0x00001e18       0x10 c:/program files/microchip/xc32/v4.10/bin/bin/../../lib/gcc/pic32c/8.3.1/../../../../pic32c/lib/arm/v7-a+simd/hard\libc-musl.a(strchrnul.o)
 .debug_ranges  0x00001e28       0x10 c:/program files/microchip/xc32/v4.10/bin/bin/../../lib/gcc/pic32c/8.3.1/../../../../pic32c/lib/arm/v7-a+simd/hard\libc-musl.a(mktime.o)
 .debug_ranges  0x00001e38       0x18 c:/program files/microchip/xc32/v4.10/bin/bin/../../lib/gcc/pic32c/8.3.1/../../../../pic32c/lib/arm/v7-a+simd/hard\libc-musl.a(vfprintf.o)
 .debug_ranges  0x00001e50       0x10 c:/program files/microchip/xc32/v4.10/bin/bin/../../lib/gcc/pic32c/8.3.1/../../../../pic32c/lib/arm/v7-a+simd/hard\libc-musl.a(__tm_to_secs.o)
 .debug_ranges  0x00001e60       0x28 c:/program files/microchip/xc32/v4.10/bin/bin/../../lib/gcc/pic32c/8.3.1/../../../../pic32c/lib/arm/v7-a+simd/hard\libc-musl.a(__year_to_secs.o)
 .debug_ranges  0x00001e88       0x10 c:/program files/microchip/xc32/v4.10/bin/bin/../../lib/gcc/pic32c/8.3.1/../../../../pic32c/lib/arm/v7-a+simd/hard\libc-musl.a(__secs_to_tm.o)
 .debug_ranges  0x00001e98       0x68 c:/program files/microchip/xc32/v4.10/bin/bin/../../lib/gcc/pic32c/8.3.1/../../../../pic32c/lib/arm/v7-a+simd/hard\libc-musl.a(__printf_core.o)
 .debug_ranges  0x00001f00       0x10 c:/program files/microchip/xc32/v4.10/bin/bin/../../lib/gcc/pic32c/8.3.1/../../../../pic32c/lib/arm/v7-a+simd/hard\libc-musl.a(atoi.o)
 .debug_ranges  0x00001f10       0x10 c:/program files/microchip/xc32/v4.10/bin/bin/../../lib/gcc/pic32c/8.3.1/../../../../pic32c/lib/arm/v7-a+simd/hard\libc-musl.a(__month_to_secs.o)
 .debug_ranges  0x00001f20       0x18 c:/program files/microchip/xc32/v4.10/bin/bin/../../lib/gcc/pic32c/8.3.1/../../../../pic32c/lib/arm/v7-a+simd/hard\libc-musl.a(tolower.o)
 .debug_ranges  0x00001f38       0x10 c:/program files/microchip/xc32/v4.10/bin/bin/../../lib/gcc/pic32c/8.3.1/../../../../pic32c/lib/arm/v7-a+simd/hard\libc-musl.a(__fmt_a.o)
 .debug_ranges  0x00001f48       0x10 c:/program files/microchip/xc32/v4.10/bin/bin/../../lib/gcc/pic32c/8.3.1/../../../../pic32c/lib/arm/v7-a+simd/hard\libc-musl.a(__fmt_d.o)
 .debug_ranges  0x00001f58       0x10 c:/program files/microchip/xc32/v4.10/bin/bin/../../lib/gcc/pic32c/8.3.1/../../../../pic32c/lib/arm/v7-a+simd/hard\libc-musl.a(__fmt_fp.o)
 .debug_ranges  0x00001f68       0x10 c:/program files/microchip/xc32/v4.10/bin/bin/../../lib/gcc/pic32c/8.3.1/../../../../pic32c/lib/arm/v7-a+simd/hard\libc-musl.a(__fmt_o.o)
 .debug_ranges  0x00001f78       0x10 c:/program files/microchip/xc32/v4.10/bin/bin/../../lib/gcc/pic32c/8.3.1/../../../../pic32c/lib/arm/v7-a+simd/hard\libc-musl.a(__fmt_s.o)
 .debug_ranges  0x00001f88       0x18 c:/program files/microchip/xc32/v4.10/bin/bin/../../lib/gcc/pic32c/8.3.1/../../../../pic32c/lib/arm/v7-a+simd/hard\libc-musl.a(__fmt_u.o)
 .debug_ranges  0x00001fa0       0x10 c:/program files/microchip/xc32/v4.10/bin/bin/../../lib/gcc/pic32c/8.3.1/../../../../pic32c/lib/arm/v7-a+simd/hard\libc-musl.a(__fmt_x.o)
 .debug_ranges  0x00001fb0       0x10 c:/program files/microchip/xc32/v4.10/bin/bin/../../lib/gcc/pic32c/8.3.1/../../../../pic32c/lib/arm/v7-a+simd/hard\libc-musl.a(__pop_float.o)
 .debug_ranges  0x00001fc0       0x10 c:/program files/microchip/xc32/v4.10/bin/bin/../../lib/gcc/pic32c/8.3.1/../../../../pic32c/lib/arm/v7-a+simd/hard\libc-musl.a(__pop_int.o)
 .debug_ranges  0x00001fd0       0x10 c:/program files/microchip/xc32/v4.10/bin/bin/../../lib/gcc/pic32c/8.3.1/../../../../pic32c/lib/arm/v7-a+simd/hard\libc-musl.a(__pop_ptr.o)
 .debug_ranges  0x00001fe0       0x10 c:/program files/microchip/xc32/v4.10/bin/bin/../../lib/gcc/pic32c/8.3.1/../../../../pic32c/lib/arm/v7-a+simd/hard\libc-musl.a(strcpy.o)
 .debug_ranges  0x00001ff0       0x18 c:/program files/microchip/xc32/v4.10/bin/bin/../../lib/gcc/pic32c/8.3.1/../../../../pic32c/lib/arm/v7-a+simd/hard\libc-musl.a(toupper.o)
 .debug_ranges  0x00002008       0x10 c:/program files/microchip/xc32/v4.10/bin/bin/../../lib/gcc/pic32c/8.3.1/../../../../pic32c/lib/arm/v7-a+simd/hard\libc-musl.a(stpcpy.o)
 .debug_ranges  0x00002018       0x28 c:/program files/microchip/xc32/v4.10/bin/bin/../../lib/gcc/pic32c/8.3.1/../../../../pic32c/lib/arm/v7-a+simd/hard\libm-musl.a(floor.o)
 .debug_ranges  0x00002040       0xa8 c:/program files/microchip/xc32/v4.10/bin/bin/../../lib/gcc/pic32c/8.3.1/../../../../pic32c/lib/arm/v7-a+simd/hard\libm-musl.a(fma.o)
 .debug_ranges  0x000020e8       0x10 c:/program files/microchip/xc32/v4.10/bin/bin/../../lib/gcc/pic32c/8.3.1/../../../../pic32c/lib/arm/v7-a+simd/hard\libm-musl.a(scalbn.o)
 .debug_ranges  0x000020f8       0x10 c:/program files/microchip/xc32/v4.10/bin/bin/../../lib/gcc/pic32c/8.3.1/../../../../pic32c/lib/arm/v7-a+simd/hard\libpic32c.a(sbrk.o)

.debug_line     0x00000000    0x19d26
 .debug_line    0x00000000     0x166e build/sam_a5d27_som1_winc3400/production/_ext/1279932671/drv_spi.o
 .debug_line    0x0000166e      0x14e build/sam_a5d27_som1_winc3400/production/_ext/1407615473/wdrv_winc_gpio.o
 .debug_line    0x000017bc      0x1ab build/sam_a5d27_som1_winc3400/production/_ext/1407615473/wdrv_winc_eint.o
 .debug_line    0x00001967      0x67a build/sam_a5d27_som1_winc3400/production/_ext/1846510740/wdrv_winc_spi.o
 .debug_line    0x00001fe1      0x27d build/sam_a5d27_som1_winc3400/production/_ext/1941162184/nm_common.o
 .debug_line    0x0000225e      0xf3e build/sam_a5d27_som1_winc3400/production/_ext/1909873291/nmspi.o
 .debug_line    0x0000319c      0x68b build/sam_a5d27_som1_winc3400/production/_ext/1909873291/nmdrv.o
 .debug_line    0x00003827      0x59e build/sam_a5d27_som1_winc3400/production/_ext/1909873291/m2m_ota.o
 .debug_line    0x00003dc5      0x7b1 build/sam_a5d27_som1_winc3400/production/_ext/1909873291/m2m_ssl.o
 .debug_line    0x00004576      0xfbe build/sam_a5d27_som1_winc3400/production/_ext/1909873291/m2m_hif.o
 .debug_line    0x00005534      0xc81 build/sam_a5d27_som1_winc3400/production/_ext/1909873291/nmasic.o
 .debug_line    0x000061b5      0x3c6 build/sam_a5d27_som1_winc3400/production/_ext/1909873291/nmbus.o
 .debug_line    0x0000657b     0x20d6 build/sam_a5d27_som1_winc3400/production/_ext/1909873291/m2m_wifi.o
 .debug_line    0x00008651      0x1f5 build/sam_a5d27_som1_winc3400/production/_ext/1483395904/inet_ntop.o
 .debug_line    0x00008846     0x138c build/sam_a5d27_som1_winc3400/production/_ext/1483395904/socket.o
 .debug_line    0x00009bd2      0x129 build/sam_a5d27_som1_winc3400/production/_ext/973425813/wdrv_winc_osal.o
 .debug_line    0x00009cfb      0x5d3 build/sam_a5d27_som1_winc3400/production/_ext/237603529/wdrv_winc_systime.o
 .debug_line    0x0000a2ce      0x882 build/sam_a5d27_som1_winc3400/production/_ext/237603529/wdrv_winc_sta.o
 .debug_line    0x0000ab50      0x336 build/sam_a5d27_som1_winc3400/production/_ext/237603529/wdrv_winc_bssctx.o
 .debug_line    0x0000ae86      0x867 build/sam_a5d27_som1_winc3400/production/_ext/237603529/wdrv_winc_bssfind.o
 .debug_line    0x0000b6ed      0x883 build/sam_a5d27_som1_winc3400/production/_ext/237603529/wdrv_winc_socket.o
 .debug_line    0x0000bf70     0x16c8 build/sam_a5d27_som1_winc3400/production/_ext/237603529/wdrv_winc.o
 .debug_line    0x0000d638      0x617 build/sam_a5d27_som1_winc3400/production/_ext/237603529/wdrv_winc_authctx.o
 .debug_line    0x0000dc4f      0x415 build/sam_a5d27_som1_winc3400/production/_ext/883939571/plib_aic.o
 .debug_line    0x0000e064      0x140 build/sam_a5d27_som1_winc3400/production/_ext/883937548/plib_clk.o
 .debug_line    0x0000e1a4      0x65a build/sam_a5d27_som1_winc3400/production/_ext/1895127654/plib_flexcom4_spi_master.o
 .debug_line    0x0000e7fe      0x152 build/sam_a5d27_som1_winc3400/production/_ext/662486865/plib_matrix.o
 .debug_line    0x0000e950      0x4fb build/sam_a5d27_som1_winc3400/production/_ext/883927897/plib_mmu.o
 .debug_line    0x0000ee4b      0x3c5 build/sam_a5d27_som1_winc3400/production/_ext/883925144/plib_pio.o
 .debug_line    0x0000f210      0x257 build/sam_a5d27_som1_winc3400/production/_ext/941317725/plib_tc0.o
 .debug_line    0x0000f467      0x80d build/sam_a5d27_som1_winc3400/production/_ext/1631734212/plib_uart1.o
 .debug_line    0x0000fc74      0x472 build/sam_a5d27_som1_winc3400/production/_ext/958701621/plib_xdmac0.o
 .debug_line    0x000100e6      0x6b4 build/sam_a5d27_som1_winc3400/production/_ext/1006343247/sys_console_uart.o
 .debug_line    0x0001079a      0x6d6 build/sam_a5d27_som1_winc3400/production/_ext/1006343247/sys_console.o
 .debug_line    0x00010e70      0x219 build/sam_a5d27_som1_winc3400/production/_ext/100066323/sys_debug.o
 .debug_line    0x00011089      0x17e build/sam_a5d27_som1_winc3400/production/_ext/775042947/sys_dma.o
 .debug_line    0x00011207      0x55d build/sam_a5d27_som1_winc3400/production/_ext/937565385/sys_int.o
 .debug_line    0x00011764     0x11cf build/sam_a5d27_som1_winc3400/production/_ext/695691069/sys_time.o
 .debug_line    0x00012933      0x7e9 build/sam_a5d27_som1_winc3400/production/_ext/1420774346/initialization.o
 .debug_line    0x0001311c       0xab build/sam_a5d27_som1_winc3400/production/_ext/1420774346/fault_handlers.o
 .debug_line    0x000131c7      0x111 build/sam_a5d27_som1_winc3400/production/_ext/1420774346/cstartup.o
 .debug_line    0x000132d8      0x167 build/sam_a5d27_som1_winc3400/production/_ext/1420774346/tasks.o
 .debug_line    0x0001343f      0x1a1 build/sam_a5d27_som1_winc3400/production/_ext/1420774346/interrupts.o
 .debug_line    0x000135e0      0x2f3 build/sam_a5d27_som1_winc3400/production/_ext/1360937237/app.o
 .debug_line    0x000138d3       0x7d build/sam_a5d27_som1_winc3400/production/_ext/1360937237/main.o
 .debug_line    0x00013950      0x4fd build/sam_a5d27_som1_winc3400/production/_ext/1360937237/example.o
 .debug_line    0x00013e4d       0xba c:/program files/microchip/xc32/v4.10/bin/bin/../../lib/gcc/pic32c/8.3.1/arm/v7-a+simd/hard\libgcc.a(_udivsi3.o)
 .debug_line    0x00013f07       0xc6 c:/program files/microchip/xc32/v4.10/bin/bin/../../lib/gcc/pic32c/8.3.1/arm/v7-a+simd/hard\libgcc.a(_divsi3.o)
 .debug_line    0x00013fcd       0x9e c:/program files/microchip/xc32/v4.10/bin/bin/../../lib/gcc/pic32c/8.3.1/arm/v7-a+simd/hard\libgcc.a(_dvmd_tls.o)
 .debug_line    0x0001406b       0x9e c:/program files/microchip/xc32/v4.10/bin/bin/../../lib/gcc/pic32c/8.3.1/arm/v7-a+simd/hard\libgcc.a(_aeabi_uldivmod.o)
 .debug_line    0x00014109      0x190 c:/program files/microchip/xc32/v4.10/bin/bin/../../lib/gcc/pic32c/8.3.1/arm/v7-a+simd/hard\libgcc.a(_udivmoddi4.o)
 .debug_line    0x00014299      0x1d2 c:/program files/microchip/xc32/v4.10/bin/bin/../../lib/gcc/pic32c/8.3.1/../../../../pic32c/lib/arm/v7-a+simd/hard\libc-musl.a(__libc_start_main.o)
 .debug_line    0x0001446b       0xbf c:/program files/microchip/xc32/v4.10/bin/bin/../../lib/gcc/pic32c/8.3.1/../../../../pic32c/lib/arm/v7-a+simd/hard\libc-musl.a(libc.o)
 .debug_line    0x0001452a      0xadc c:/program files/microchip/xc32/v4.10/bin/bin/../../lib/gcc/pic32c/8.3.1/../../../../pic32c/lib/arm/v7-a+simd/hard\libc-musl.a(malloc.o)
 .debug_line    0x00015006       0xfc c:/program files/microchip/xc32/v4.10/bin/bin/../../lib/gcc/pic32c/8.3.1/../../../../pic32c/lib/arm/v7-a+simd/hard\libc-musl.a(expand_heap.o)
 .debug_line    0x00015102      0x255 c:/program files/microchip/xc32/v4.10/bin/bin/../../lib/gcc/pic32c/8.3.1/../../../../pic32c/lib/arm/v7-a+simd/hard\libc-musl.a(vsnprintf.o)
 .debug_line    0x00015357       0xf3 c:/program files/microchip/xc32/v4.10/bin/bin/../../lib/gcc/pic32c/8.3.1/../../../../pic32c/lib/arm/v7-a+simd/hard\libc-musl.a(memcmp.o)
 .debug_line    0x0001544a       0xe8 c:/program files/microchip/xc32/v4.10/bin/bin/../../lib/gcc/pic32c/8.3.1/../../../../pic32c/lib/arm/v7-a+simd/hard\libc-musl.a(memcpy.o)
 .debug_line    0x00015532       0xe7 c:/program files/microchip/xc32/v4.10/bin/bin/../../lib/gcc/pic32c/8.3.1/../../../../pic32c/lib/arm/v7-a+simd/hard\libc-musl.a(memset.o)
 .debug_line    0x00015619       0xe8 c:/program files/microchip/xc32/v4.10/bin/bin/../../lib/gcc/pic32c/8.3.1/../../../../pic32c/lib/arm/v7-a+simd/hard\libc-musl.a(strlen.o)
 .debug_line    0x00015701       0xbd c:/program files/microchip/xc32/v4.10/bin/bin/../../lib/gcc/pic32c/8.3.1/../../../../pic32c/lib/arm/v7-a+simd/hard\libc-musl.a(strchr.o)
 .debug_line    0x000157be      0x1a5 c:/program files/microchip/xc32/v4.10/bin/bin/../../lib/gcc/pic32c/8.3.1/../../../../pic32c/lib/arm/v7-a+simd/hard\libc-musl.a(strchrnul.o)
 .debug_line    0x00015963      0x28f c:/program files/microchip/xc32/v4.10/bin/bin/../../lib/gcc/pic32c/8.3.1/../../../../pic32c/lib/arm/v7-a+simd/hard\libc-musl.a(mktime.o)
 .debug_line    0x00015bf2      0x10f c:/program files/microchip/xc32/v4.10/bin/bin/../../lib/gcc/pic32c/8.3.1/../../../../pic32c/lib/arm/v7-a+simd/hard\libc-musl.a(__environ.o)
 .debug_line    0x00015d01       0xa4 c:/program files/microchip/xc32/v4.10/bin/bin/../../lib/gcc/pic32c/8.3.1/../../../../pic32c/lib/arm/v7-a+simd/hard\libc-musl.a(__errno_location.o)
 .debug_line    0x00015da5      0x204 c:/program files/microchip/xc32/v4.10/bin/bin/../../lib/gcc/pic32c/8.3.1/../../../../pic32c/lib/arm/v7-a+simd/hard\libc-musl.a(vfprintf.o)
 .debug_line    0x00015fa9      0x1c0 c:/program files/microchip/xc32/v4.10/bin/bin/../../lib/gcc/pic32c/8.3.1/../../../../pic32c/lib/arm/v7-a+simd/hard\libc-musl.a(__tm_to_secs.o)
 .debug_line    0x00016169      0x1f2 c:/program files/microchip/xc32/v4.10/bin/bin/../../lib/gcc/pic32c/8.3.1/../../../../pic32c/lib/arm/v7-a+simd/hard\libc-musl.a(__year_to_secs.o)
 .debug_line    0x0001635b      0x31e c:/program files/microchip/xc32/v4.10/bin/bin/../../lib/gcc/pic32c/8.3.1/../../../../pic32c/lib/arm/v7-a+simd/hard\libc-musl.a(__secs_to_tm.o)
 .debug_line    0x00016679      0x698 c:/program files/microchip/xc32/v4.10/bin/bin/../../lib/gcc/pic32c/8.3.1/../../../../pic32c/lib/arm/v7-a+simd/hard\libc-musl.a(__printf_core.o)
 .debug_line    0x00016d11      0x167 c:/program files/microchip/xc32/v4.10/bin/bin/../../lib/gcc/pic32c/8.3.1/../../../../pic32c/lib/arm/v7-a+simd/hard\libc-musl.a(atoi.o)
 .debug_line    0x00016e78       0xcf c:/program files/microchip/xc32/v4.10/bin/bin/../../lib/gcc/pic32c/8.3.1/../../../../pic32c/lib/arm/v7-a+simd/hard\libc-musl.a(__month_to_secs.o)
 .debug_line    0x00016f47      0x16b c:/program files/microchip/xc32/v4.10/bin/bin/../../lib/gcc/pic32c/8.3.1/../../../../pic32c/lib/arm/v7-a+simd/hard\libc-musl.a(tolower.o)
 .debug_line    0x000170b2      0x628 c:/program files/microchip/xc32/v4.10/bin/bin/../../lib/gcc/pic32c/8.3.1/../../../../pic32c/lib/arm/v7-a+simd/hard\libc-musl.a(__fmt_a.o)
 .debug_line    0x000176da      0x21f c:/program files/microchip/xc32/v4.10/bin/bin/../../lib/gcc/pic32c/8.3.1/../../../../pic32c/lib/arm/v7-a+simd/hard\libc-musl.a(__fmt_d.o)
 .debug_line    0x000178f9      0x643 c:/program files/microchip/xc32/v4.10/bin/bin/../../lib/gcc/pic32c/8.3.1/../../../../pic32c/lib/arm/v7-a+simd/hard\libc-musl.a(__fmt_fp.o)
 .debug_line    0x00017f3c      0x1d4 c:/program files/microchip/xc32/v4.10/bin/bin/../../lib/gcc/pic32c/8.3.1/../../../../pic32c/lib/arm/v7-a+simd/hard\libc-musl.a(__fmt_o.o)
 .debug_line    0x00018110      0x212 c:/program files/microchip/xc32/v4.10/bin/bin/../../lib/gcc/pic32c/8.3.1/../../../../pic32c/lib/arm/v7-a+simd/hard\libc-musl.a(__fmt_s.o)
 .debug_line    0x00018322      0x23c c:/program files/microchip/xc32/v4.10/bin/bin/../../lib/gcc/pic32c/8.3.1/../../../../pic32c/lib/arm/v7-a+simd/hard\libc-musl.a(__fmt_u.o)
 .debug_line    0x0001855e      0x2fa c:/program files/microchip/xc32/v4.10/bin/bin/../../lib/gcc/pic32c/8.3.1/../../../../pic32c/lib/arm/v7-a+simd/hard\libc-musl.a(__fmt_x.o)
 .debug_line    0x00018858      0x179 c:/program files/microchip/xc32/v4.10/bin/bin/../../lib/gcc/pic32c/8.3.1/../../../../pic32c/lib/arm/v7-a+simd/hard\libc-musl.a(__pop_float.o)
 .debug_line    0x000189d1      0x226 c:/program files/microchip/xc32/v4.10/bin/bin/../../lib/gcc/pic32c/8.3.1/../../../../pic32c/lib/arm/v7-a+simd/hard\libc-musl.a(__pop_int.o)
 .debug_line    0x00018bf7      0x1f2 c:/program files/microchip/xc32/v4.10/bin/bin/../../lib/gcc/pic32c/8.3.1/../../../../pic32c/lib/arm/v7-a+simd/hard\libc-musl.a(__pop_ptr.o)
 .debug_line    0x00018de9       0xb6 c:/program files/microchip/xc32/v4.10/bin/bin/../../lib/gcc/pic32c/8.3.1/../../../../pic32c/lib/arm/v7-a+simd/hard\libc-musl.a(strcpy.o)
 .debug_line    0x00018e9f      0x16b c:/program files/microchip/xc32/v4.10/bin/bin/../../lib/gcc/pic32c/8.3.1/../../../../pic32c/lib/arm/v7-a+simd/hard\libc-musl.a(toupper.o)
 .debug_line    0x0001900a       0xcb c:/program files/microchip/xc32/v4.10/bin/bin/../../lib/gcc/pic32c/8.3.1/../../../../pic32c/lib/arm/v7-a+simd/hard\libc-musl.a(stpcpy.o)
 .debug_line    0x000190d5      0x142 c:/program files/microchip/xc32/v4.10/bin/bin/../../lib/gcc/pic32c/8.3.1/../../../../pic32c/lib/arm/v7-a+simd/hard\libm-musl.a(floor.o)
 .debug_line    0x00019217      0x6bf c:/program files/microchip/xc32/v4.10/bin/bin/../../lib/gcc/pic32c/8.3.1/../../../../pic32c/lib/arm/v7-a+simd/hard\libm-musl.a(fma.o)
 .debug_line    0x000198d6      0x137 c:/program files/microchip/xc32/v4.10/bin/bin/../../lib/gcc/pic32c/8.3.1/../../../../pic32c/lib/arm/v7-a+simd/hard\libm-musl.a(scalbn.o)
 .debug_line    0x00019a0d       0xbd c:/program files/microchip/xc32/v4.10/bin/bin/../../lib/gcc/pic32c/8.3.1/../../../../pic32c/lib/arm/v7-a+simd/hard\libpic32c.a(sbrk.o)
 .debug_line    0x00019aca      0x1a0 c:/program files/microchip/xc32/v4.10/bin/bin/../../lib/gcc/pic32c/8.3.1/arm/v7-a+simd/hard\libgcc.a(_arm_addsubdf3.o)
 .debug_line    0x00019c6a       0xbc c:/program files/microchip/xc32/v4.10/bin/bin/../../lib/gcc/pic32c/8.3.1/arm/v7-a+simd/hard\libgcc.a(_aeabi_ldivmod.o)

.debug_str      0x00000000     0x2b39
 .debug_str     0x00000000      0x298 build/sam_a5d27_som1_winc3400/production/_ext/1279932671/drv_spi.o
 .debug_str     0x00000298       0x14 build/sam_a5d27_som1_winc3400/production/_ext/1407615473/wdrv_winc_gpio.o
 .debug_str     0x000002ac       0x52 build/sam_a5d27_som1_winc3400/production/_ext/1407615473/wdrv_winc_eint.o
 .debug_str     0x000002fe      0x11f build/sam_a5d27_som1_winc3400/production/_ext/1846510740/wdrv_winc_spi.o
 .debug_str     0x0000041d       0x83 build/sam_a5d27_som1_winc3400/production/_ext/1941162184/nm_common.o
 .debug_str     0x000004a0       0xd5 build/sam_a5d27_som1_winc3400/production/_ext/1909873291/nmspi.o
 .debug_str     0x00000575      0x146 build/sam_a5d27_som1_winc3400/production/_ext/1909873291/nmdrv.o
 .debug_str     0x000006bb       0xb8 build/sam_a5d27_som1_winc3400/production/_ext/1909873291/m2m_ota.o
 .debug_str     0x00000773       0xb7 build/sam_a5d27_som1_winc3400/production/_ext/1909873291/m2m_ssl.o
 .debug_str     0x0000082a      0x150 build/sam_a5d27_som1_winc3400/production/_ext/1909873291/m2m_hif.o
 .debug_str     0x0000097a       0xb9 build/sam_a5d27_som1_winc3400/production/_ext/1909873291/nmasic.o
 .debug_str     0x00000a33       0xac build/sam_a5d27_som1_winc3400/production/_ext/1909873291/nmbus.o
 .debug_str     0x00000adf      0x4de build/sam_a5d27_som1_winc3400/production/_ext/1909873291/m2m_wifi.o
 .debug_str     0x00000fbd        0x0 build/sam_a5d27_som1_winc3400/production/_ext/1483395904/inet_ntop.o
 .debug_str     0x00000fbd      0x1ef build/sam_a5d27_som1_winc3400/production/_ext/1483395904/socket.o
 .debug_str     0x000011ac       0x2a build/sam_a5d27_som1_winc3400/production/_ext/973425813/wdrv_winc_osal.o
 .debug_str     0x000011d6       0xb5 build/sam_a5d27_som1_winc3400/production/_ext/237603529/wdrv_winc_systime.o
 .debug_str     0x0000128b      0x1c1 build/sam_a5d27_som1_winc3400/production/_ext/237603529/wdrv_winc_sta.o
 .debug_str     0x0000144c        0x8 build/sam_a5d27_som1_winc3400/production/_ext/237603529/wdrv_winc_bssctx.o
 .debug_str     0x00001454      0x138 build/sam_a5d27_som1_winc3400/production/_ext/237603529/wdrv_winc_bssfind.o
 .debug_str     0x0000158c      0x160 build/sam_a5d27_som1_winc3400/production/_ext/237603529/wdrv_winc_socket.o
 .debug_str     0x000016ec      0x453 build/sam_a5d27_som1_winc3400/production/_ext/237603529/wdrv_winc.o
 .debug_str     0x00001b3f       0x7d build/sam_a5d27_som1_winc3400/production/_ext/237603529/wdrv_winc_authctx.o
 .debug_str     0x00001bbc       0x28 build/sam_a5d27_som1_winc3400/production/_ext/883939571/plib_aic.o
 .debug_str     0x00001be4        0x0 build/sam_a5d27_som1_winc3400/production/_ext/883937548/plib_clk.o
 .debug_str     0x00001be4       0x3b build/sam_a5d27_som1_winc3400/production/_ext/1895127654/plib_flexcom4_spi_master.o
 .debug_str     0x00001c1f       0x3c build/sam_a5d27_som1_winc3400/production/_ext/662486865/plib_matrix.o
 .debug_str     0x00001c5b        0x0 build/sam_a5d27_som1_winc3400/production/_ext/883927897/plib_mmu.o
 .debug_str     0x00001c5b       0x27 build/sam_a5d27_som1_winc3400/production/_ext/883925144/plib_pio.o
 .debug_str     0x00001c82        0xa build/sam_a5d27_som1_winc3400/production/_ext/941317725/plib_tc0.o
 .debug_str     0x00001c8c       0xa5 build/sam_a5d27_som1_winc3400/production/_ext/1631734212/plib_uart1.o
 .debug_str     0x00001d31       0x2b build/sam_a5d27_som1_winc3400/production/_ext/958701621/plib_xdmac0.o
 .debug_str     0x00001d5c       0xa7 build/sam_a5d27_som1_winc3400/production/_ext/1006343247/sys_console_uart.o
 .debug_str     0x00001e03       0x38 build/sam_a5d27_som1_winc3400/production/_ext/1006343247/sys_console.o
 .debug_str     0x00001e3b        0x0 build/sam_a5d27_som1_winc3400/production/_ext/100066323/sys_debug.o
 .debug_str     0x00001e3b       0x34 build/sam_a5d27_som1_winc3400/production/_ext/775042947/sys_dma.o
 .debug_str     0x00001e6f       0x64 build/sam_a5d27_som1_winc3400/production/_ext/937565385/sys_int.o
 .debug_str     0x00001ed3      0x14b build/sam_a5d27_som1_winc3400/production/_ext/695691069/sys_time.o
 .debug_str     0x0000201e      0x1ae build/sam_a5d27_som1_winc3400/production/_ext/1420774346/initialization.o
 .debug_str     0x000021cc        0x0 build/sam_a5d27_som1_winc3400/production/_ext/1420774346/fault_handlers.o
 .debug_str     0x000021cc       0xa5 build/sam_a5d27_som1_winc3400/production/_ext/1420774346/cstartup.o
 .debug_str     0x00002271       0x1a build/sam_a5d27_som1_winc3400/production/_ext/1420774346/tasks.o
 .debug_str     0x0000228b       0x28 build/sam_a5d27_som1_winc3400/production/_ext/1420774346/interrupts.o
 .debug_str     0x000022b3       0x71 build/sam_a5d27_som1_winc3400/production/_ext/1360937237/app.o
 .debug_str     0x00002324       0x19 build/sam_a5d27_som1_winc3400/production/_ext/1360937237/main.o
 .debug_str     0x0000233d      0x197 build/sam_a5d27_som1_winc3400/production/_ext/1360937237/example.o
 .debug_str     0x000024d4       0xf5 c:/program files/microchip/xc32/v4.10/bin/bin/../../lib/gcc/pic32c/8.3.1/arm/v7-a+simd/hard\libgcc.a(_udivsi3.o)
 .debug_str     0x000025c9       0xf5 c:/program files/microchip/xc32/v4.10/bin/bin/../../lib/gcc/pic32c/8.3.1/arm/v7-a+simd/hard\libgcc.a(_divsi3.o)
 .debug_str     0x000026be       0xf5 c:/program files/microchip/xc32/v4.10/bin/bin/../../lib/gcc/pic32c/8.3.1/arm/v7-a+simd/hard\libgcc.a(_dvmd_tls.o)
 .debug_str     0x000027b3       0xf1 c:/program files/microchip/xc32/v4.10/bin/bin/../../lib/gcc/pic32c/8.3.1/arm/v7-a+simd/hard\libgcc.a(_aeabi_uldivmod.o)
 .debug_str     0x000028a4        0x0 c:/program files/microchip/xc32/v4.10/bin/bin/../../lib/gcc/pic32c/8.3.1/arm/v7-a+simd/hard\libgcc.a(_udivmoddi4.o)
 .debug_str     0x000028a4        0x0 c:/program files/microchip/xc32/v4.10/bin/bin/../../lib/gcc/pic32c/8.3.1/../../../../pic32c/lib/arm/v7-a+simd/hard\libc-musl.a(__libc_start_main.o)
 .debug_str     0x000028a4        0x0 c:/program files/microchip/xc32/v4.10/bin/bin/../../lib/gcc/pic32c/8.3.1/../../../../pic32c/lib/arm/v7-a+simd/hard\libc-musl.a(libc.o)
 .debug_str     0x000028a4       0x13 c:/program files/microchip/xc32/v4.10/bin/bin/../../lib/gcc/pic32c/8.3.1/../../../../pic32c/lib/arm/v7-a+simd/hard\libc-musl.a(malloc.o)
 .debug_str     0x000028b7        0x0 c:/program files/microchip/xc32/v4.10/bin/bin/../../lib/gcc/pic32c/8.3.1/../../../../pic32c/lib/arm/v7-a+simd/hard\libc-musl.a(expand_heap.o)
 .debug_str     0x000028b7        0x9 c:/program files/microchip/xc32/v4.10/bin/bin/../../lib/gcc/pic32c/8.3.1/../../../../pic32c/lib/arm/v7-a+simd/hard\libc-musl.a(vsnprintf.o)
 .debug_str     0x000028c0        0x0 c:/program files/microchip/xc32/v4.10/bin/bin/../../lib/gcc/pic32c/8.3.1/../../../../pic32c/lib/arm/v7-a+simd/hard\libc-musl.a(memcmp.o)
 .debug_str     0x000028c0        0x0 c:/program files/microchip/xc32/v4.10/bin/bin/../../lib/gcc/pic32c/8.3.1/../../../../pic32c/lib/arm/v7-a+simd/hard\libc-musl.a(memcpy.o)
 .debug_str     0x000028c0        0x0 c:/program files/microchip/xc32/v4.10/bin/bin/../../lib/gcc/pic32c/8.3.1/../../../../pic32c/lib/arm/v7-a+simd/hard\libc-musl.a(memset.o)
 .debug_str     0x000028c0        0x0 c:/program files/microchip/xc32/v4.10/bin/bin/../../lib/gcc/pic32c/8.3.1/../../../../pic32c/lib/arm/v7-a+simd/hard\libc-musl.a(strlen.o)
 .debug_str     0x000028c0        0xc c:/program files/microchip/xc32/v4.10/bin/bin/../../lib/gcc/pic32c/8.3.1/../../../../pic32c/lib/arm/v7-a+simd/hard\libc-musl.a(strchr.o)
 .debug_str     0x000028cc        0x0 c:/program files/microchip/xc32/v4.10/bin/bin/../../lib/gcc/pic32c/8.3.1/../../../../pic32c/lib/arm/v7-a+simd/hard\libc-musl.a(strchrnul.o)
 .debug_str     0x000028cc       0x1a c:/program files/microchip/xc32/v4.10/bin/bin/../../lib/gcc/pic32c/8.3.1/../../../../pic32c/lib/arm/v7-a+simd/hard\libc-musl.a(mktime.o)
 .debug_str     0x000028e6        0x0 c:/program files/microchip/xc32/v4.10/bin/bin/../../lib/gcc/pic32c/8.3.1/../../../../pic32c/lib/arm/v7-a+simd/hard\libc-musl.a(__environ.o)
 .debug_str     0x000028e6        0x0 c:/program files/microchip/xc32/v4.10/bin/bin/../../lib/gcc/pic32c/8.3.1/../../../../pic32c/lib/arm/v7-a+simd/hard\libc-musl.a(__errno_location.o)
 .debug_str     0x000028e6       0x1e c:/program files/microchip/xc32/v4.10/bin/bin/../../lib/gcc/pic32c/8.3.1/../../../../pic32c/lib/arm/v7-a+simd/hard\libc-musl.a(vfprintf.o)
 .debug_str     0x00002904       0x1f c:/program files/microchip/xc32/v4.10/bin/bin/../../lib/gcc/pic32c/8.3.1/../../../../pic32c/lib/arm/v7-a+simd/hard\libc-musl.a(__tm_to_secs.o)
 .debug_str     0x00002923        0x0 c:/program files/microchip/xc32/v4.10/bin/bin/../../lib/gcc/pic32c/8.3.1/../../../../pic32c/lib/arm/v7-a+simd/hard\libc-musl.a(__year_to_secs.o)
 .debug_str     0x00002923        0x0 c:/program files/microchip/xc32/v4.10/bin/bin/../../lib/gcc/pic32c/8.3.1/../../../../pic32c/lib/arm/v7-a+simd/hard\libc-musl.a(__secs_to_tm.o)
 .debug_str     0x00002923       0x20 c:/program files/microchip/xc32/v4.10/bin/bin/../../lib/gcc/pic32c/8.3.1/../../../../pic32c/lib/arm/v7-a+simd/hard\libc-musl.a(__printf_core.o)
 .debug_str     0x00002943        0x0 c:/program files/microchip/xc32/v4.10/bin/bin/../../lib/gcc/pic32c/8.3.1/../../../../pic32c/lib/arm/v7-a+simd/hard\libc-musl.a(atoi.o)
 .debug_str     0x00002943        0x0 c:/program files/microchip/xc32/v4.10/bin/bin/../../lib/gcc/pic32c/8.3.1/../../../../pic32c/lib/arm/v7-a+simd/hard\libc-musl.a(__month_to_secs.o)
 .debug_str     0x00002943        0x0 c:/program files/microchip/xc32/v4.10/bin/bin/../../lib/gcc/pic32c/8.3.1/../../../../pic32c/lib/arm/v7-a+simd/hard\libc-musl.a(tolower.o)
 .debug_str     0x00002943        0x0 c:/program files/microchip/xc32/v4.10/bin/bin/../../lib/gcc/pic32c/8.3.1/../../../../pic32c/lib/arm/v7-a+simd/hard\libc-musl.a(__fmt_a.o)
 .debug_str     0x00002943        0x0 c:/program files/microchip/xc32/v4.10/bin/bin/../../lib/gcc/pic32c/8.3.1/../../../../pic32c/lib/arm/v7-a+simd/hard\libc-musl.a(__fmt_d.o)
 .debug_str     0x00002943        0x0 c:/program files/microchip/xc32/v4.10/bin/bin/../../lib/gcc/pic32c/8.3.1/../../../../pic32c/lib/arm/v7-a+simd/hard\libc-musl.a(__fmt_fp.o)
 .debug_str     0x00002943        0x0 c:/program files/microchip/xc32/v4.10/bin/bin/../../lib/gcc/pic32c/8.3.1/../../../../pic32c/lib/arm/v7-a+simd/hard\libc-musl.a(__fmt_o.o)
 .debug_str     0x00002943        0x0 c:/program files/microchip/xc32/v4.10/bin/bin/../../lib/gcc/pic32c/8.3.1/../../../../pic32c/lib/arm/v7-a+simd/hard\libc-musl.a(__fmt_s.o)
 .debug_str     0x00002943        0x6 c:/program files/microchip/xc32/v4.10/bin/bin/../../lib/gcc/pic32c/8.3.1/../../../../pic32c/lib/arm/v7-a+simd/hard\libc-musl.a(__fmt_u.o)
 .debug_str     0x00002949        0x0 c:/program files/microchip/xc32/v4.10/bin/bin/../../lib/gcc/pic32c/8.3.1/../../../../pic32c/lib/arm/v7-a+simd/hard\libc-musl.a(__fmt_x.o)
 .debug_str     0x00002949        0x0 c:/program files/microchip/xc32/v4.10/bin/bin/../../lib/gcc/pic32c/8.3.1/../../../../pic32c/lib/arm/v7-a+simd/hard\libc-musl.a(__pop_float.o)
 .debug_str     0x00002949        0x0 c:/program files/microchip/xc32/v4.10/bin/bin/../../lib/gcc/pic32c/8.3.1/../../../../pic32c/lib/arm/v7-a+simd/hard\libc-musl.a(__pop_int.o)
 .debug_str     0x00002949        0x0 c:/program files/microchip/xc32/v4.10/bin/bin/../../lib/gcc/pic32c/8.3.1/../../../../pic32c/lib/arm/v7-a+simd/hard\libc-musl.a(__pop_ptr.o)
 .debug_str     0x00002949        0x9 c:/program files/microchip/xc32/v4.10/bin/bin/../../lib/gcc/pic32c/8.3.1/../../../../pic32c/lib/arm/v7-a+simd/hard\libc-musl.a(strcpy.o)
 .debug_str     0x00002952        0x0 c:/program files/microchip/xc32/v4.10/bin/bin/../../lib/gcc/pic32c/8.3.1/../../../../pic32c/lib/arm/v7-a+simd/hard\libc-musl.a(toupper.o)
 .debug_str     0x00002952        0x0 c:/program files/microchip/xc32/v4.10/bin/bin/../../lib/gcc/pic32c/8.3.1/../../../../pic32c/lib/arm/v7-a+simd/hard\libc-musl.a(stpcpy.o)
 .debug_str     0x00002952        0x0 c:/program files/microchip/xc32/v4.10/bin/bin/../../lib/gcc/pic32c/8.3.1/../../../../pic32c/lib/arm/v7-a+simd/hard\libm-musl.a(floor.o)
 .debug_str     0x00002952        0x0 c:/program files/microchip/xc32/v4.10/bin/bin/../../lib/gcc/pic32c/8.3.1/../../../../pic32c/lib/arm/v7-a+simd/hard\libm-musl.a(fma.o)
 .debug_str     0x00002952        0x0 c:/program files/microchip/xc32/v4.10/bin/bin/../../lib/gcc/pic32c/8.3.1/../../../../pic32c/lib/arm/v7-a+simd/hard\libm-musl.a(scalbn.o)
 .debug_str     0x00002952        0x0 c:/program files/microchip/xc32/v4.10/bin/bin/../../lib/gcc/pic32c/8.3.1/../../../../pic32c/lib/arm/v7-a+simd/hard\libpic32c.a(sbrk.o)
 .debug_str     0x00002952       0xf6 c:/program files/microchip/xc32/v4.10/bin/bin/../../lib/gcc/pic32c/8.3.1/arm/v7-a+simd/hard\libgcc.a(_arm_addsubdf3.o)
 .debug_str     0x00002a48       0xf1 c:/program files/microchip/xc32/v4.10/bin/bin/../../lib/gcc/pic32c/8.3.1/arm/v7-a+simd/hard\libgcc.a(_aeabi_ldivmod.o)

.debug_frame    0x00000000     0x3ef8
 .debug_frame   0x00000000      0x244 build/sam_a5d27_som1_winc3400/production/_ext/1279932671/drv_spi.o
 .debug_frame   0x00000244       0x50 build/sam_a5d27_som1_winc3400/production/_ext/1407615473/wdrv_winc_gpio.o
 .debug_frame   0x00000294       0x40 build/sam_a5d27_som1_winc3400/production/_ext/1407615473/wdrv_winc_eint.o
 .debug_frame   0x000002d4       0x9c build/sam_a5d27_som1_winc3400/production/_ext/1846510740/wdrv_winc_spi.o
 .debug_frame   0x00000370       0x5c build/sam_a5d27_som1_winc3400/production/_ext/1941162184/nm_common.o
 .debug_frame   0x000003cc      0x1e4 build/sam_a5d27_som1_winc3400/production/_ext/1909873291/nmspi.o
 .debug_frame   0x000005b0      0x124 build/sam_a5d27_som1_winc3400/production/_ext/1909873291/nmdrv.o
 .debug_frame   0x000006d4      0x104 build/sam_a5d27_som1_winc3400/production/_ext/1909873291/m2m_ota.o
 .debug_frame   0x000007d8      0x150 build/sam_a5d27_som1_winc3400/production/_ext/1909873291/m2m_ssl.o
 .debug_frame   0x00000928      0x19c build/sam_a5d27_som1_winc3400/production/_ext/1909873291/m2m_hif.o
 .debug_frame   0x00000ac4      0x2f4 build/sam_a5d27_som1_winc3400/production/_ext/1909873291/nmasic.o
 .debug_frame   0x00000db8       0xf0 build/sam_a5d27_som1_winc3400/production/_ext/1909873291/nmbus.o
 .debug_frame   0x00000ea8      0x924 build/sam_a5d27_som1_winc3400/production/_ext/1909873291/m2m_wifi.o
 .debug_frame   0x000017cc       0x60 build/sam_a5d27_som1_winc3400/production/_ext/1483395904/inet_ntop.o
 .debug_frame   0x0000182c      0x2ec build/sam_a5d27_som1_winc3400/production/_ext/1483395904/socket.o
 .debug_frame   0x00001b18       0x2c build/sam_a5d27_som1_winc3400/production/_ext/973425813/wdrv_winc_osal.o
 .debug_frame   0x00001b44       0xe4 build/sam_a5d27_som1_winc3400/production/_ext/237603529/wdrv_winc_systime.o
 .debug_frame   0x00001c28       0xe8 build/sam_a5d27_som1_winc3400/production/_ext/237603529/wdrv_winc_sta.o
 .debug_frame   0x00001d10       0xb4 build/sam_a5d27_som1_winc3400/production/_ext/237603529/wdrv_winc_bssctx.o
 .debug_frame   0x00001dc4      0x134 build/sam_a5d27_som1_winc3400/production/_ext/237603529/wdrv_winc_bssfind.o
 .debug_frame   0x00001ef8      0x1c8 build/sam_a5d27_som1_winc3400/production/_ext/237603529/wdrv_winc_socket.o
 .debug_frame   0x000020c0      0x26c build/sam_a5d27_som1_winc3400/production/_ext/237603529/wdrv_winc.o
 .debug_frame   0x0000232c       0xb0 build/sam_a5d27_som1_winc3400/production/_ext/237603529/wdrv_winc_authctx.o
 .debug_frame   0x000023dc       0x6c build/sam_a5d27_som1_winc3400/production/_ext/883939571/plib_aic.o
 .debug_frame   0x00002448       0x20 build/sam_a5d27_som1_winc3400/production/_ext/883937548/plib_clk.o
 .debug_frame   0x00002468       0xdc build/sam_a5d27_som1_winc3400/production/_ext/1895127654/plib_flexcom4_spi_master.o
 .debug_frame   0x00002544       0x20 build/sam_a5d27_som1_winc3400/production/_ext/662486865/plib_matrix.o
 .debug_frame   0x00002564       0x58 build/sam_a5d27_som1_winc3400/production/_ext/883927897/plib_mmu.o
 .debug_frame   0x000025bc       0xf4 build/sam_a5d27_som1_winc3400/production/_ext/883925144/plib_pio.o
 .debug_frame   0x000026b0       0xd0 build/sam_a5d27_som1_winc3400/production/_ext/941317725/plib_tc0.o
 .debug_frame   0x00002780      0x1bc build/sam_a5d27_som1_winc3400/production/_ext/1631734212/plib_uart1.o
 .debug_frame   0x0000293c       0xfc build/sam_a5d27_som1_winc3400/production/_ext/958701621/plib_xdmac0.o
 .debug_frame   0x00002a38       0xf8 build/sam_a5d27_som1_winc3400/production/_ext/1006343247/sys_console_uart.o
 .debug_frame   0x00002b30      0x19c build/sam_a5d27_som1_winc3400/production/_ext/1006343247/sys_console.o
 .debug_frame   0x00002ccc       0x70 build/sam_a5d27_som1_winc3400/production/_ext/100066323/sys_debug.o
 .debug_frame   0x00002d3c       0x48 build/sam_a5d27_som1_winc3400/production/_ext/775042947/sys_dma.o
 .debug_frame   0x00002d84      0x118 build/sam_a5d27_som1_winc3400/production/_ext/937565385/sys_int.o
 .debug_frame   0x00002e9c      0x3bc build/sam_a5d27_som1_winc3400/production/_ext/695691069/sys_time.o
 .debug_frame   0x00003258       0x28 build/sam_a5d27_som1_winc3400/production/_ext/1420774346/initialization.o
 .debug_frame   0x00003280       0x50 build/sam_a5d27_som1_winc3400/production/_ext/1420774346/fault_handlers.o
 .debug_frame   0x000032d0       0x28 build/sam_a5d27_som1_winc3400/production/_ext/1420774346/tasks.o
 .debug_frame   0x000032f8       0x40 build/sam_a5d27_som1_winc3400/production/_ext/1420774346/interrupts.o
 .debug_frame   0x00003338       0x38 build/sam_a5d27_som1_winc3400/production/_ext/1360937237/app.o
 .debug_frame   0x00003370       0x28 build/sam_a5d27_som1_winc3400/production/_ext/1360937237/main.o
 .debug_frame   0x00003398       0x8c build/sam_a5d27_som1_winc3400/production/_ext/1360937237/example.o
 .debug_frame   0x00003424       0x20 c:/program files/microchip/xc32/v4.10/bin/bin/../../lib/gcc/pic32c/8.3.1/arm/v7-a+simd/hard\libgcc.a(_udivsi3.o)
 .debug_frame   0x00003444       0x20 c:/program files/microchip/xc32/v4.10/bin/bin/../../lib/gcc/pic32c/8.3.1/arm/v7-a+simd/hard\libgcc.a(_divsi3.o)
 .debug_frame   0x00003464       0x2c c:/program files/microchip/xc32/v4.10/bin/bin/../../lib/gcc/pic32c/8.3.1/arm/v7-a+simd/hard\libgcc.a(_aeabi_uldivmod.o)
 .debug_frame   0x00003490       0x34 c:/program files/microchip/xc32/v4.10/bin/bin/../../lib/gcc/pic32c/8.3.1/arm/v7-a+simd/hard\libgcc.a(_udivmoddi4.o)
 .debug_frame   0x000034c4       0x3c c:/program files/microchip/xc32/v4.10/bin/bin/../../lib/gcc/pic32c/8.3.1/../../../../pic32c/lib/arm/v7-a+simd/hard\libc-musl.a(__libc_start_main.o)
 .debug_frame   0x00003500      0x144 c:/program files/microchip/xc32/v4.10/bin/bin/../../lib/gcc/pic32c/8.3.1/../../../../pic32c/lib/arm/v7-a+simd/hard\libc-musl.a(malloc.o)
 .debug_frame   0x00003644       0x28 c:/program files/microchip/xc32/v4.10/bin/bin/../../lib/gcc/pic32c/8.3.1/../../../../pic32c/lib/arm/v7-a+simd/hard\libc-musl.a(expand_heap.o)
 .debug_frame   0x0000366c       0x38 c:/program files/microchip/xc32/v4.10/bin/bin/../../lib/gcc/pic32c/8.3.1/../../../../pic32c/lib/arm/v7-a+simd/hard\libc-musl.a(vsnprintf.o)
 .debug_frame   0x000036a4       0x30 c:/program files/microchip/xc32/v4.10/bin/bin/../../lib/gcc/pic32c/8.3.1/../../../../pic32c/lib/arm/v7-a+simd/hard\libc-musl.a(memcmp.o)
 .debug_frame   0x000036d4       0x20 c:/program files/microchip/xc32/v4.10/bin/bin/../../lib/gcc/pic32c/8.3.1/../../../../pic32c/lib/arm/v7-a+simd/hard\libc-musl.a(memcpy.o)
 .debug_frame   0x000036f4       0x20 c:/program files/microchip/xc32/v4.10/bin/bin/../../lib/gcc/pic32c/8.3.1/../../../../pic32c/lib/arm/v7-a+simd/hard\libc-musl.a(memset.o)
 .debug_frame   0x00003714       0x20 c:/program files/microchip/xc32/v4.10/bin/bin/../../lib/gcc/pic32c/8.3.1/../../../../pic32c/lib/arm/v7-a+simd/hard\libc-musl.a(strlen.o)
 .debug_frame   0x00003734       0x28 c:/program files/microchip/xc32/v4.10/bin/bin/../../lib/gcc/pic32c/8.3.1/../../../../pic32c/lib/arm/v7-a+simd/hard\libc-musl.a(strchr.o)
 .debug_frame   0x0000375c       0x30 c:/program files/microchip/xc32/v4.10/bin/bin/../../lib/gcc/pic32c/8.3.1/../../../../pic32c/lib/arm/v7-a+simd/hard\libc-musl.a(strchrnul.o)
 .debug_frame   0x0000378c       0x34 c:/program files/microchip/xc32/v4.10/bin/bin/../../lib/gcc/pic32c/8.3.1/../../../../pic32c/lib/arm/v7-a+simd/hard\libc-musl.a(mktime.o)
 .debug_frame   0x000037c0       0x3c c:/program files/microchip/xc32/v4.10/bin/bin/../../lib/gcc/pic32c/8.3.1/../../../../pic32c/lib/arm/v7-a+simd/hard\libc-musl.a(vfprintf.o)
 .debug_frame   0x000037fc       0x34 c:/program files/microchip/xc32/v4.10/bin/bin/../../lib/gcc/pic32c/8.3.1/../../../../pic32c/lib/arm/v7-a+simd/hard\libc-musl.a(__tm_to_secs.o)
 .debug_frame   0x00003830       0x38 c:/program files/microchip/xc32/v4.10/bin/bin/../../lib/gcc/pic32c/8.3.1/../../../../pic32c/lib/arm/v7-a+simd/hard\libc-musl.a(__year_to_secs.o)
 .debug_frame   0x00003868       0x38 c:/program files/microchip/xc32/v4.10/bin/bin/../../lib/gcc/pic32c/8.3.1/../../../../pic32c/lib/arm/v7-a+simd/hard\libc-musl.a(__secs_to_tm.o)
 .debug_frame   0x000038a0       0xd0 c:/program files/microchip/xc32/v4.10/bin/bin/../../lib/gcc/pic32c/8.3.1/../../../../pic32c/lib/arm/v7-a+simd/hard\libc-musl.a(__printf_core.o)
 .debug_frame   0x00003970       0x20 c:/program files/microchip/xc32/v4.10/bin/bin/../../lib/gcc/pic32c/8.3.1/../../../../pic32c/lib/arm/v7-a+simd/hard\libc-musl.a(atoi.o)
 .debug_frame   0x00003990       0x20 c:/program files/microchip/xc32/v4.10/bin/bin/../../lib/gcc/pic32c/8.3.1/../../../../pic32c/lib/arm/v7-a+simd/hard\libc-musl.a(__month_to_secs.o)
 .debug_frame   0x000039b0       0x30 c:/program files/microchip/xc32/v4.10/bin/bin/../../lib/gcc/pic32c/8.3.1/../../../../pic32c/lib/arm/v7-a+simd/hard\libc-musl.a(tolower.o)
 .debug_frame   0x000039e0       0x84 c:/program files/microchip/xc32/v4.10/bin/bin/../../lib/gcc/pic32c/8.3.1/../../../../pic32c/lib/arm/v7-a+simd/hard\libc-musl.a(__fmt_a.o)
 .debug_frame   0x00003a64       0x3c c:/program files/microchip/xc32/v4.10/bin/bin/../../lib/gcc/pic32c/8.3.1/../../../../pic32c/lib/arm/v7-a+simd/hard\libc-musl.a(__fmt_d.o)
 .debug_frame   0x00003aa0       0x78 c:/program files/microchip/xc32/v4.10/bin/bin/../../lib/gcc/pic32c/8.3.1/../../../../pic32c/lib/arm/v7-a+simd/hard\libc-musl.a(__fmt_fp.o)
 .debug_frame   0x00003b18       0x34 c:/program files/microchip/xc32/v4.10/bin/bin/../../lib/gcc/pic32c/8.3.1/../../../../pic32c/lib/arm/v7-a+simd/hard\libc-musl.a(__fmt_o.o)
 .debug_frame   0x00003b4c       0x34 c:/program files/microchip/xc32/v4.10/bin/bin/../../lib/gcc/pic32c/8.3.1/../../../../pic32c/lib/arm/v7-a+simd/hard\libc-musl.a(__fmt_s.o)
 .debug_frame   0x00003b80       0x5c c:/program files/microchip/xc32/v4.10/bin/bin/../../lib/gcc/pic32c/8.3.1/../../../../pic32c/lib/arm/v7-a+simd/hard\libc-musl.a(__fmt_u.o)
 .debug_frame   0x00003bdc       0x40 c:/program files/microchip/xc32/v4.10/bin/bin/../../lib/gcc/pic32c/8.3.1/../../../../pic32c/lib/arm/v7-a+simd/hard\libc-musl.a(__fmt_x.o)
 .debug_frame   0x00003c1c       0x20 c:/program files/microchip/xc32/v4.10/bin/bin/../../lib/gcc/pic32c/8.3.1/../../../../pic32c/lib/arm/v7-a+simd/hard\libc-musl.a(__pop_float.o)
 .debug_frame   0x00003c3c       0x3c c:/program files/microchip/xc32/v4.10/bin/bin/../../lib/gcc/pic32c/8.3.1/../../../../pic32c/lib/arm/v7-a+simd/hard\libc-musl.a(__pop_int.o)
 .debug_frame   0x00003c78       0x20 c:/program files/microchip/xc32/v4.10/bin/bin/../../lib/gcc/pic32c/8.3.1/../../../../pic32c/lib/arm/v7-a+simd/hard\libc-musl.a(__pop_ptr.o)
 .debug_frame   0x00003c98       0x28 c:/program files/microchip/xc32/v4.10/bin/bin/../../lib/gcc/pic32c/8.3.1/../../../../pic32c/lib/arm/v7-a+simd/hard\libc-musl.a(strcpy.o)
 .debug_frame   0x00003cc0       0x30 c:/program files/microchip/xc32/v4.10/bin/bin/../../lib/gcc/pic32c/8.3.1/../../../../pic32c/lib/arm/v7-a+simd/hard\libc-musl.a(toupper.o)
 .debug_frame   0x00003cf0       0x20 c:/program files/microchip/xc32/v4.10/bin/bin/../../lib/gcc/pic32c/8.3.1/../../../../pic32c/lib/arm/v7-a+simd/hard\libc-musl.a(stpcpy.o)
 .debug_frame   0x00003d10       0x28 c:/program files/microchip/xc32/v4.10/bin/bin/../../lib/gcc/pic32c/8.3.1/../../../../pic32c/lib/arm/v7-a+simd/hard\libm-musl.a(floor.o)
 .debug_frame   0x00003d38       0x90 c:/program files/microchip/xc32/v4.10/bin/bin/../../lib/gcc/pic32c/8.3.1/../../../../pic32c/lib/arm/v7-a+simd/hard\libm-musl.a(fma.o)
 .debug_frame   0x00003dc8       0x20 c:/program files/microchip/xc32/v4.10/bin/bin/../../lib/gcc/pic32c/8.3.1/../../../../pic32c/lib/arm/v7-a+simd/hard\libm-musl.a(scalbn.o)
 .debug_frame   0x00003de8       0x20 c:/program files/microchip/xc32/v4.10/bin/bin/../../lib/gcc/pic32c/8.3.1/../../../../pic32c/lib/arm/v7-a+simd/hard\libpic32c.a(sbrk.o)
 .debug_frame   0x00003e08       0xac c:/program files/microchip/xc32/v4.10/bin/bin/../../lib/gcc/pic32c/8.3.1/arm/v7-a+simd/hard\libgcc.a(_arm_addsubdf3.o)
 .debug_frame   0x00003eb4       0x44 c:/program files/microchip/xc32/v4.10/bin/bin/../../lib/gcc/pic32c/8.3.1/arm/v7-a+simd/hard\libgcc.a(_aeabi_ldivmod.o)

.note.GNU-stack
                0x00000000        0x0
 .note.GNU-stack
                0x00000000        0x0 c:/program files/microchip/xc32/v4.10/bin/bin/../../lib/gcc/pic32c/8.3.1/../../../../pic32c/lib/arm/v7-a+simd/hard\libc-musl.a(__libc_start_main.o)
 .note.GNU-stack
                0x00000000        0x0 c:/program files/microchip/xc32/v4.10/bin/bin/../../lib/gcc/pic32c/8.3.1/../../../../pic32c/lib/arm/v7-a+simd/hard\libc-musl.a(libc.o)
 .note.GNU-stack
                0x00000000        0x0 c:/program files/microchip/xc32/v4.10/bin/bin/../../lib/gcc/pic32c/8.3.1/../../../../pic32c/lib/arm/v7-a+simd/hard\libc-musl.a(malloc.o)
 .note.GNU-stack
                0x00000000        0x0 c:/program files/microchip/xc32/v4.10/bin/bin/../../lib/gcc/pic32c/8.3.1/../../../../pic32c/lib/arm/v7-a+simd/hard\libc-musl.a(expand_heap.o)
 .note.GNU-stack
                0x00000000        0x0 c:/program files/microchip/xc32/v4.10/bin/bin/../../lib/gcc/pic32c/8.3.1/../../../../pic32c/lib/arm/v7-a+simd/hard\libc-musl.a(vsnprintf.o)
 .note.GNU-stack
                0x00000000        0x0 c:/program files/microchip/xc32/v4.10/bin/bin/../../lib/gcc/pic32c/8.3.1/../../../../pic32c/lib/arm/v7-a+simd/hard\libc-musl.a(memcmp.o)
 .note.GNU-stack
                0x00000000        0x0 c:/program files/microchip/xc32/v4.10/bin/bin/../../lib/gcc/pic32c/8.3.1/../../../../pic32c/lib/arm/v7-a+simd/hard\libc-musl.a(memcpy.o)
 .note.GNU-stack
                0x00000000        0x0 c:/program files/microchip/xc32/v4.10/bin/bin/../../lib/gcc/pic32c/8.3.1/../../../../pic32c/lib/arm/v7-a+simd/hard\libc-musl.a(memset.o)
 .note.GNU-stack
                0x00000000        0x0 c:/program files/microchip/xc32/v4.10/bin/bin/../../lib/gcc/pic32c/8.3.1/../../../../pic32c/lib/arm/v7-a+simd/hard\libc-musl.a(strlen.o)
 .note.GNU-stack
                0x00000000        0x0 c:/program files/microchip/xc32/v4.10/bin/bin/../../lib/gcc/pic32c/8.3.1/../../../../pic32c/lib/arm/v7-a+simd/hard\libc-musl.a(strchr.o)
 .note.GNU-stack
                0x00000000        0x0 c:/program files/microchip/xc32/v4.10/bin/bin/../../lib/gcc/pic32c/8.3.1/../../../../pic32c/lib/arm/v7-a+simd/hard\libc-musl.a(strchrnul.o)
 .note.GNU-stack
                0x00000000        0x0 c:/program files/microchip/xc32/v4.10/bin/bin/../../lib/gcc/pic32c/8.3.1/../../../../pic32c/lib/arm/v7-a+simd/hard\libc-musl.a(mktime.o)
 .note.GNU-stack
                0x00000000        0x0 c:/program files/microchip/xc32/v4.10/bin/bin/../../lib/gcc/pic32c/8.3.1/../../../../pic32c/lib/arm/v7-a+simd/hard\libc-musl.a(__environ.o)
 .note.GNU-stack
                0x00000000        0x0 c:/program files/microchip/xc32/v4.10/bin/bin/../../lib/gcc/pic32c/8.3.1/../../../../pic32c/lib/arm/v7-a+simd/hard\libc-musl.a(__errno_location.o)
 .note.GNU-stack
                0x00000000        0x0 c:/program files/microchip/xc32/v4.10/bin/bin/../../lib/gcc/pic32c/8.3.1/../../../../pic32c/lib/arm/v7-a+simd/hard\libc-musl.a(vfprintf.o)
 .note.GNU-stack
                0x00000000        0x0 c:/program files/microchip/xc32/v4.10/bin/bin/../../lib/gcc/pic32c/8.3.1/../../../../pic32c/lib/arm/v7-a+simd/hard\libc-musl.a(__tm_to_secs.o)
 .note.GNU-stack
                0x00000000        0x0 c:/program files/microchip/xc32/v4.10/bin/bin/../../lib/gcc/pic32c/8.3.1/../../../../pic32c/lib/arm/v7-a+simd/hard\libc-musl.a(__year_to_secs.o)
 .note.GNU-stack
                0x00000000        0x0 c:/program files/microchip/xc32/v4.10/bin/bin/../../lib/gcc/pic32c/8.3.1/../../../../pic32c/lib/arm/v7-a+simd/hard\libc-musl.a(__secs_to_tm.o)
 .note.GNU-stack
                0x00000000        0x0 c:/program files/microchip/xc32/v4.10/bin/bin/../../lib/gcc/pic32c/8.3.1/../../../../pic32c/lib/arm/v7-a+simd/hard\libc-musl.a(__printf_core.o)
 .note.GNU-stack
                0x00000000        0x0 c:/program files/microchip/xc32/v4.10/bin/bin/../../lib/gcc/pic32c/8.3.1/../../../../pic32c/lib/arm/v7-a+simd/hard\libc-musl.a(atoi.o)
 .note.GNU-stack
                0x00000000        0x0 c:/program files/microchip/xc32/v4.10/bin/bin/../../lib/gcc/pic32c/8.3.1/../../../../pic32c/lib/arm/v7-a+simd/hard\libc-musl.a(__month_to_secs.o)
 .note.GNU-stack
                0x00000000        0x0 c:/program files/microchip/xc32/v4.10/bin/bin/../../lib/gcc/pic32c/8.3.1/../../../../pic32c/lib/arm/v7-a+simd/hard\libc-musl.a(tolower.o)
 .note.GNU-stack
                0x00000000        0x0 c:/program files/microchip/xc32/v4.10/bin/bin/../../lib/gcc/pic32c/8.3.1/../../../../pic32c/lib/arm/v7-a+simd/hard\libc-musl.a(__fmt_a.o)
 .note.GNU-stack
                0x00000000        0x0 c:/program files/microchip/xc32/v4.10/bin/bin/../../lib/gcc/pic32c/8.3.1/../../../../pic32c/lib/arm/v7-a+simd/hard\libc-musl.a(__fmt_d.o)
 .note.GNU-stack
                0x00000000        0x0 c:/program files/microchip/xc32/v4.10/bin/bin/../../lib/gcc/pic32c/8.3.1/../../../../pic32c/lib/arm/v7-a+simd/hard\libc-musl.a(__fmt_fp.o)
 .note.GNU-stack
                0x00000000        0x0 c:/program files/microchip/xc32/v4.10/bin/bin/../../lib/gcc/pic32c/8.3.1/../../../../pic32c/lib/arm/v7-a+simd/hard\libc-musl.a(__fmt_o.o)
 .note.GNU-stack
                0x00000000        0x0 c:/program files/microchip/xc32/v4.10/bin/bin/../../lib/gcc/pic32c/8.3.1/../../../../pic32c/lib/arm/v7-a+simd/hard\libc-musl.a(__fmt_s.o)
 .note.GNU-stack
                0x00000000        0x0 c:/program files/microchip/xc32/v4.10/bin/bin/../../lib/gcc/pic32c/8.3.1/../../../../pic32c/lib/arm/v7-a+simd/hard\libc-musl.a(__fmt_u.o)
 .note.GNU-stack
                0x00000000        0x0 c:/program files/microchip/xc32/v4.10/bin/bin/../../lib/gcc/pic32c/8.3.1/../../../../pic32c/lib/arm/v7-a+simd/hard\libc-musl.a(__fmt_x.o)
 .note.GNU-stack
                0x00000000        0x0 c:/program files/microchip/xc32/v4.10/bin/bin/../../lib/gcc/pic32c/8.3.1/../../../../pic32c/lib/arm/v7-a+simd/hard\libc-musl.a(__pop_float.o)
 .note.GNU-stack
                0x00000000        0x0 c:/program files/microchip/xc32/v4.10/bin/bin/../../lib/gcc/pic32c/8.3.1/../../../../pic32c/lib/arm/v7-a+simd/hard\libc-musl.a(__pop_int.o)
 .note.GNU-stack
                0x00000000        0x0 c:/program files/microchip/xc32/v4.10/bin/bin/../../lib/gcc/pic32c/8.3.1/../../../../pic32c/lib/arm/v7-a+simd/hard\libc-musl.a(__pop_ptr.o)
 .note.GNU-stack
                0x00000000        0x0 c:/program files/microchip/xc32/v4.10/bin/bin/../../lib/gcc/pic32c/8.3.1/../../../../pic32c/lib/arm/v7-a+simd/hard\libc-musl.a(strcpy.o)
 .note.GNU-stack
                0x00000000        0x0 c:/program files/microchip/xc32/v4.10/bin/bin/../../lib/gcc/pic32c/8.3.1/../../../../pic32c/lib/arm/v7-a+simd/hard\libc-musl.a(toupper.o)
 .note.GNU-stack
                0x00000000        0x0 c:/program files/microchip/xc32/v4.10/bin/bin/../../lib/gcc/pic32c/8.3.1/../../../../pic32c/lib/arm/v7-a+simd/hard\libc-musl.a(stpcpy.o)
 .note.GNU-stack
                0x00000000        0x0 c:/program files/microchip/xc32/v4.10/bin/bin/../../lib/gcc/pic32c/8.3.1/../../../../pic32c/lib/arm/v7-a+simd/hard\libm-musl.a(floor.o)
 .note.GNU-stack
                0x00000000        0x0 c:/program files/microchip/xc32/v4.10/bin/bin/../../lib/gcc/pic32c/8.3.1/../../../../pic32c/lib/arm/v7-a+simd/hard\libm-musl.a(fma.o)
 .note.GNU-stack
                0x00000000        0x0 c:/program files/microchip/xc32/v4.10/bin/bin/../../lib/gcc/pic32c/8.3.1/../../../../pic32c/lib/arm/v7-a+simd/hard\libm-musl.a(scalbn.o)

__xc_reference_data
                0x00000000       0x60
 __xc_reference_data
                0x00000000        0x4 c:/program files/microchip/xc32/v4.10/bin/bin/../../lib/gcc/pic32c/8.3.1/../../../../pic32c/lib/arm/v7-a+simd/hard\libc-musl.a(vfprintf.o)
                0x00000000                __vfprintf_needs_fmt
 __xc_reference_data
                0x00000004       0x5c c:/program files/microchip/xc32/v4.10/bin/bin/../../lib/gcc/pic32c/8.3.1/../../../../pic32c/lib/arm/v7-a+simd/hard\libc-musl.a(__io_fmt_needed.o)
                0x00000004                __io_fmt_needed

.stack          0x21000220      0x100
 .stack         0x21000220      0x100 stack

.eh_frame%z1    0x00000000        0x0
 .eh_frame      0x00000000        0x0 c:/program files/microchip/xc32/v4.10/bin/bin/../../lib/gcc/pic32c/8.3.1/arm/v7-a+simd/hard/crtbegin.o
